 MapServer

 Timestamp is 686c0264 (Mon Jul 07 11:22:44 2025)

 Preferred load address is 00400000

 Start         Length     Name                   Class
 0001:00000000 0000975dH .text$di                CODE
 0001:00009760 002cdea7H .text$mn                CODE
 0001:002d7610 00016f48H .text$x                 CODE
 0001:002ee560 00001a5dH .text$yd                CODE
 0002:00000000 00000104H .CRT$XCA                DATA
 0002:00000104 000001e1H .CRT$XCC                DATA
 0002:000002e8 00000121H .CRT$XCL                DATA
 0002:0000040c 0000052cH .CRT$XCU                DATA
 0002:00000938 00000104H .CRT$XCZ                DATA
 0002:00000a3c 00000104H .CRT$XIA                DATA
 0002:00000b40 00000118H .CRT$XIC                DATA
 0002:00000c58 00000104H .CRT$XIY                DATA
 0002:00000d5c 00000104H .CRT$XIZ                DATA
 0002:00000e60 00000104H .CRT$XPA                DATA
 0002:00000f64 00000104H .CRT$XPB                DATA
 0002:00001068 00000109H .CRT$XPX                DATA
 0002:00001174 00000104H .CRT$XPXA               DATA
 0002:00001278 00000104H .CRT$XPZ                DATA
 0002:0000137c 00000104H .CRT$XTA                DATA
 0002:00001480 00000104H .CRT$XTZ                DATA
 0002:00001590 0004626cH .rdata                  DATA
 0002:000477fc 00000199H .rdata$debug            DATA
 0002:00047998 00005382H .rdata$r                DATA
 0002:0004cd20 000018cbH .rdata$sxdata           DATA
 0002:0004e5ec 00000104H .rtc$IAA                DATA
 0002:0004e6f0 00000104H .rtc$IZZ                DATA
 0002:0004e7f4 00000104H .rtc$TAA                DATA
 0002:0004e8f8 00000104H .rtc$TZZ                DATA
 0002:0004ea00 0001bc73H .xdata$x                DATA
 0002:0006a673 00000000H .edata                  DATA
 0003:00000000 00005324H .data                   DATA
 0003:00005328 0000317fH .data$r                 DATA
 0003:000084c0 00084a64H .bss                    DATA
 0004:00000000 00000438H .idata$5                DATA
 0004:00000438 00000064H .idata$2                DATA
 0004:0000049c 00000014H .idata$3                DATA
 0004:000004b0 00000438H .idata$4                DATA
 0004:000008e8 00000e23H .idata$6                DATA
 0005:00000000 0000026cH .rsrc$01                DATA
 0005:00000270 000007d3H .rsrc$02                DATA

  Address         Publics by Value              Rva+Base       Lib:Object

 0000:00000000       ___guard_flags             00000000     <absolute>
 0000:00000000       ___guard_fids_table        00000000     <absolute>
 0000:00000000       __except_list              00000000     <absolute>
 0000:00000000       ___guard_fids_count        00000000     <absolute>
 0000:000004f5       ___safe_se_handler_count   000004f5     <absolute>
 0000:00000000       ___ImageBase               00400000     <linker-defined>
 0001:00009760       ??$?6U?$char_traits@D@std@@@std@@YAAAV?$basic_ostream@DU?$char_traits@D@std@@@0@AAV10@PBD@Z 0040a760 f i cApplicationStartup.obj
 0001:00009be0       ??$_Allocate@D@std@@YAPADIPAD@Z 0040abe0 f i cApplicationStartup.obj
 0001:00009c40       ??$_Allocate@U_Container_proxy@std@@@std@@YAPAU_Container_proxy@0@IPAU10@@Z 0040ac40 f i cApplicationStartup.obj
 0001:00009ca0       ??$_DebugHeapDelete@V_Facet_base@std@@@std@@YAXPAV_Facet_base@0@@Z 0040aca0 f i cApplicationStartup.obj
 0001:00009ce0       ??$_DebugHeapDelete@Vfacet@locale@std@@@std@@YAXPAVfacet@locale@0@@Z 0040ace0 f i cApplicationStartup.obj
 0001:00009d20       ??$_Debug_pointer@$$A6AAAV?$basic_ostream@DU?$char_traits@D@std@@@std@@AAV12@@Z@std@@YAXP6AAAV?$basic_ostream@DU?$char_traits@D@std@@@0@AAV10@@ZPB_WI@Z 0040ad20 f i cApplicationStartup.obj
 0001:00009d60       ??$_Debug_pointer@D@std@@YAXPADPB_WI@Z 0040ad60 f i cApplicationStartup.obj
 0001:00009da0       ??$_Debug_pointer@D@std@@YAXPBDPB_WI@Z 0040ada0 f i cApplicationStartup.obj
 0001:00009de0       ??$_Debug_range2@PBD@std@@YAXPBD0PB_WIUrandom_access_iterator_tag@0@@Z 0040ade0 f i cApplicationStartup.obj
 0001:00009e60       ??$_Debug_range@PBD@std@@YAXPBD0PB_WI@Z 0040ae60 f i cApplicationStartup.obj
 0001:00009eb0       ??$_Iter_cat@PBD@std@@YA?AUrandom_access_iterator_tag@0@ABQBD@Z 0040aeb0 f i cApplicationStartup.obj
 0001:00009ee0       ??$addressof@D@std@@YAPADAAD@Z 0040aee0 f i cApplicationStartup.obj
 0001:00009f00       ??$construct@PADAAPAD@?$_Wrap_alloc@V?$allocator@D@std@@@std@@QAEXPAPADAAPAD@Z 0040af00 f i cApplicationStartup.obj
 0001:00009f40       ??$construct@PADAAPAD@?$allocator@D@std@@QAEXPAPADAAPAD@Z 0040af40 f i cApplicationStartup.obj
 0001:00009ff0       ??$construct@PADAAPAD@?$allocator_traits@V?$allocator@D@std@@@std@@SAXAAV?$allocator@D@1@PAPADAAPAD@Z 0040aff0 f i cApplicationStartup.obj
 0001:0000a030       ??$construct@U_Container_proxy@std@@U12@@?$allocator@U_Container_proxy@std@@@std@@QAEXPAU_Container_proxy@1@$$QAU21@@Z 0040b030 f i cApplicationStartup.obj
 0001:0000a0f0       ??$destroy@PAD@?$_Wrap_alloc@V?$allocator@D@std@@@std@@QAEXPAPAD@Z 0040b0f0 f i cApplicationStartup.obj
 0001:0000a120       ??$destroy@PAD@?$allocator@D@std@@QAEXPAPAD@Z 0040b120 f i cApplicationStartup.obj
 0001:0000a140       ??$destroy@PAD@?$allocator_traits@V?$allocator@D@std@@@std@@SAXAAV?$allocator@D@1@PAPAD@Z 0040b140 f i cApplicationStartup.obj
 0001:0000a170       ??$destroy@U_Container_proxy@std@@@?$allocator@U_Container_proxy@std@@@std@@QAEXPAU_Container_proxy@1@@Z 0040b170 f i cApplicationStartup.obj
 0001:0000a190       ??$endl@DU?$char_traits@D@std@@@std@@YAAAV?$basic_ostream@DU?$char_traits@D@std@@@0@AAV10@@Z 0040b190 f i cApplicationStartup.obj
 0001:0000a1e0       ??$forward@AAPAD@std@@YAAAPADAAPAD@Z 0040b1e0 f i cApplicationStartup.obj
 0001:0000a200       ??$forward@U_Container_proxy@std@@@std@@YA$$QAU_Container_proxy@0@AAU10@@Z 0040b200 f i cApplicationStartup.obj
 0001:0000a220       ??$forward@V?$basic_string@DU?$char_traits@D@std@@V?$allocator@D@2@@std@@@std@@YA$$QAV?$basic_string@DU?$char_traits@D@std@@V?$allocator@D@2@@0@AAV10@@Z 0040b220 f i cApplicationStartup.obj
 0001:0000a240       ??$use_facet@V?$ctype@D@std@@@std@@YAABV?$ctype@D@0@ABVlocale@0@@Z 0040b240 f i cApplicationStartup.obj
 0001:0000a380       ??0?$_String_alloc@$0A@U?$_String_base_types@DV?$allocator@D@std@@@std@@@std@@QAE@ABV?$allocator@D@1@@Z 0040b380 f i cApplicationStartup.obj
 0001:0000a400       ??0?$_String_val@U?$_Simple_types@D@std@@@std@@QAE@XZ 0040b400 f i cApplicationStartup.obj
 0001:0000a440       ??0?$_Wrap_alloc@V?$allocator@D@std@@@std@@QAE@ABV?$allocator@D@1@@Z 0040b440 f i cApplicationStartup.obj
 0001:0000a470       ??0?$_Wrap_alloc@V?$allocator@D@std@@@std@@QAE@XZ 0040b470 f i cApplicationStartup.obj
 0001:0000a4a0       ??0?$_Yarn@D@std@@QAE@XZ   0040b4a0 f i cApplicationStartup.obj
 0001:0000a4d0       ??0?$_Yarn@_W@std@@QAE@XZ  0040b4d0 f i cApplicationStartup.obj
 0001:0000a510       ??0?$allocator@D@std@@QAE@ABV01@@Z 0040b510 f i cApplicationStartup.obj
 0001:0000a530       ??0?$allocator@D@std@@QAE@XZ 0040b530 f i cApplicationStartup.obj
 0001:0000a550       ??0?$allocator@U_Container_proxy@std@@@std@@QAE@XZ 0040b550 f i cApplicationStartup.obj
 0001:0000a570       ??0?$basic_string@DU?$char_traits@D@std@@V?$allocator@D@2@@std@@QAE@$$QAV01@@Z 0040b570 f i cApplicationStartup.obj
 0001:0000a5e0       ??0?$basic_string@DU?$char_traits@D@std@@V?$allocator@D@2@@std@@QAE@ABV01@@Z 0040b5e0 f i cApplicationStartup.obj
 0001:0000a6a0       ??0?$basic_string@DU?$char_traits@D@std@@V?$allocator@D@2@@std@@QAE@PBD@Z 0040b6a0 f i cApplicationStartup.obj
 0001:0000a740       ??0?$ctype@D@std@@QAE@ABV_Locinfo@1@I@Z 0040b740 f i cApplicationStartup.obj
 0001:0000a7d0       ??0Handler@Event@@QAE@XZ   0040b7d0 f i cApplicationStartup.obj
 0001:0000a840       ??0_Container_base12@std@@QAE@XZ 0040b840 f i cApplicationStartup.obj
 0001:0000a870       ??0_Container_proxy@std@@QAE@XZ 0040b870 f i cApplicationStartup.obj
 0001:0000a8b0       ??0_Facet_base@std@@QAE@XZ 0040b8b0 f i cApplicationStartup.obj
 0001:0000a8e0       ??0_Generic_error_category@std@@QAE@XZ 0040b8e0 f i cApplicationStartup.obj
 0001:0000a910       ??0_Ignore@std@@QAE@XZ     0040b910 f i cApplicationStartup.obj
 0001:0000a930       ??0_Iostream_error_category@std@@QAE@XZ 0040b930 f i cApplicationStartup.obj
 0001:0000a960       ??0_Locinfo@std@@QAE@PBD@Z 0040b960 f i cApplicationStartup.obj
 0001:0000aa80       ??0_Sentry_base@?$basic_ostream@DU?$char_traits@D@std@@@std@@QAE@AAV12@@Z 0040ba80 f i cApplicationStartup.obj
 0001:0000ab00       ??0_System_error@std@@IAE@Verror_code@1@ABV?$basic_string@DU?$char_traits@D@std@@V?$allocator@D@2@@1@@Z 0040bb00 f i cApplicationStartup.obj
 0001:0000abf0       ??0_System_error@std@@QAE@ABV01@@Z 0040bbf0 f i cApplicationStartup.obj
 0001:0000ac40       ??0_System_error_category@std@@QAE@XZ 0040bc40 f i cApplicationStartup.obj
 0001:0000ac70       ??0cApplicationStartup@@QAE@XZ 0040bc70 f   cApplicationStartup.obj
 0001:0000ac90       ??0ctype_base@std@@QAE@I@Z 0040bc90 f i cApplicationStartup.obj
 0001:0000acd0       ??0error_category@std@@QAE@XZ 0040bcd0 f i cApplicationStartup.obj
 0001:0000ad00       ??0error_code@std@@QAE@HABVerror_category@1@@Z 0040bd00 f i cApplicationStartup.obj
 0001:0000ad40       ??0error_condition@std@@QAE@HABVerror_category@1@@Z 0040bd40 f i cApplicationStartup.obj
 0001:0000ad80       ??0facet@locale@std@@IAE@I@Z 0040bd80 f i cApplicationStartup.obj
 0001:0000ae20       ??0failure@ios_base@std@@QAE@ABV012@@Z 0040be20 f i cApplicationStartup.obj
 0001:0000ae60       ??0failure@ios_base@std@@QAE@PBDABVerror_code@2@@Z 0040be60 f i cApplicationStartup.obj
 0001:0000aeb0       ??0id@locale@std@@QAE@I@Z  0040beb0 f i cApplicationStartup.obj
 0001:0000aee0       ??0locale@std@@QAE@ABV01@@Z 0040bee0 f i cApplicationStartup.obj
 0001:0000af20       ??0runtime_error@std@@QAE@ABV01@@Z 0040bf20 f i cApplicationStartup.obj
 0001:0000af60       ??0runtime_error@std@@QAE@ABV?$basic_string@DU?$char_traits@D@std@@V?$allocator@D@2@@1@@Z 0040bf60 f i cApplicationStartup.obj
 0001:0000afb0       ??0runtime_error@std@@QAE@PBD@Z 0040bfb0 f i cApplicationStartup.obj
 0001:0000aff0       ??0sentry@?$basic_ostream@DU?$char_traits@D@std@@@std@@QAE@AAV12@@Z 0040bff0 f i cApplicationStartup.obj
 0001:0000b100       ??0system_error@std@@QAE@ABV01@@Z 0040c100 f i cApplicationStartup.obj
 0001:0000b140       ??0system_error@std@@QAE@Verror_code@1@PBD@Z 0040c140 f i cApplicationStartup.obj
 0001:0000b200       ??1?$_String_alloc@$0A@U?$_String_base_types@DV?$allocator@D@std@@@std@@@std@@QAE@XZ 0040c200 f i cApplicationStartup.obj
 0001:0000b230       ??1?$_String_val@U?$_Simple_types@D@std@@@std@@QAE@XZ 0040c230 f i cApplicationStartup.obj
 0001:0000b260       ??1?$_Yarn@D@std@@QAE@XZ   0040c260 f i cApplicationStartup.obj
 0001:0000b290       ??1?$_Yarn@_W@std@@QAE@XZ  0040c290 f i cApplicationStartup.obj
 0001:0000b2c0       ??1?$basic_string@DU?$char_traits@D@std@@V?$allocator@D@2@@std@@QAE@XZ 0040c2c0 f i cApplicationStartup.obj
 0001:0000b2f0       ??1?$ctype@D@std@@MAE@XZ   0040c2f0 f i cApplicationStartup.obj
 0001:0000b330       ??1Handler@Event@@QAE@XZ   0040c330 f i cApplicationStartup.obj
 0001:0000b350       ??1_Container_base12@std@@QAE@XZ 0040c350 f i cApplicationStartup.obj
 0001:0000b380       ??1_Facet_base@std@@UAE@XZ 0040c380 f i cApplicationStartup.obj
 0001:0000b3b0       ??1_Generic_error_category@std@@UAE@XZ 0040c3b0 f i cApplicationStartup.obj
 0001:0000b3e0       ??1_Iostream_error_category@std@@UAE@XZ 0040c3e0 f i cApplicationStartup.obj
 0001:0000b410       ??1_Locinfo@std@@QAE@XZ    0040c410 f i cApplicationStartup.obj
 0001:0000b4a0       ??1_Sentry_base@?$basic_ostream@DU?$char_traits@D@std@@@std@@QAE@XZ 0040c4a0 f i cApplicationStartup.obj
 0001:0000b510       ??1_System_error@std@@UAE@XZ 0040c510 f i cApplicationStartup.obj
 0001:0000b540       ??1_System_error_category@std@@UAE@XZ 0040c540 f i cApplicationStartup.obj
 0001:0000b570       ??1cApplicationStartup@@QAE@XZ 0040c570 f   cApplicationStartup.obj
 0001:0000b590       ??1ctype_base@std@@UAE@XZ  0040c590 f i cApplicationStartup.obj
 0001:0000b5c0       ??1error_category@std@@UAE@XZ 0040c5c0 f i cApplicationStartup.obj
 0001:0000b5f0       ??1facet@locale@std@@MAE@XZ 0040c5f0 f i cApplicationStartup.obj
 0001:0000b620       ??1failure@ios_base@std@@UAE@XZ 0040c620 f i cApplicationStartup.obj
 0001:0000b650       ??1locale@std@@QAE@XZ      0040c650 f i cApplicationStartup.obj
 0001:0000b6a0       ??1runtime_error@std@@UAE@XZ 0040c6a0 f i cApplicationStartup.obj
 0001:0000b6d0       ??1sentry@?$basic_ostream@DU?$char_traits@D@std@@@std@@QAE@XZ 0040c6d0 f i cApplicationStartup.obj
 0001:0000b710       ??1system_error@std@@UAE@XZ 0040c710 f i cApplicationStartup.obj
 0001:0000b740       ??2@YAPAXIPAX@Z            0040c740 f i cApplicationStartup.obj
 0001:0000b760       ??2facet@locale@std@@SAPAXIABU_DebugHeapTag_t@2@PADH@Z 0040c760 f i cApplicationStartup.obj
 0001:0000b7a0       ??3@YAXPAX0@Z              0040c7a0 f i cApplicationStartup.obj
 0001:0000b7c0       ??3facet@locale@std@@SAXPAX@Z 0040c7c0 f i cApplicationStartup.obj
 0001:0000b7f0       ??3facet@locale@std@@SAXPAXABU_DebugHeapTag_t@2@PADH@Z 0040c7f0 f i cApplicationStartup.obj
 0001:0000b820       ??6?$basic_ostream@DU?$char_traits@D@std@@@std@@QAEAAV01@P6AAAV01@AAV01@@Z@Z 0040c820 f i cApplicationStartup.obj
 0001:0000b870       ??8error_category@std@@QBE_NABV01@@Z 0040c870 f i cApplicationStartup.obj
 0001:0000b8b0       ??8error_condition@std@@QBE_NABV01@@Z 0040c8b0 f i cApplicationStartup.obj
 0001:0000b930       ??Bid@locale@std@@QAEIXZ   0040c930 f i cApplicationStartup.obj
 0001:0000b9a0       ??Bsentry@?$basic_ostream@DU?$char_traits@D@std@@@std@@QBE_NXZ 0040c9a0 f i cApplicationStartup.obj
 0001:0000b9c0       ??_G?$ctype@D@std@@MAEPAXI@Z 0040c9c0 f i cApplicationStartup.obj
 0001:0000b9c0       ??_E?$ctype@D@std@@MAEPAXI@Z 0040c9c0 f i cApplicationStartup.obj
 0001:0000ba10       ??_E_Facet_base@std@@UAEPAXI@Z 0040ca10 f i cApplicationStartup.obj
 0001:0000ba10       ??_G_Facet_base@std@@UAEPAXI@Z 0040ca10 f i cApplicationStartup.obj
 0001:0000ba60       ??_G_Generic_error_category@std@@UAEPAXI@Z 0040ca60 f i cApplicationStartup.obj
 0001:0000ba60       ??_E_Generic_error_category@std@@UAEPAXI@Z 0040ca60 f i cApplicationStartup.obj
 0001:0000bab0       ??_E_Iostream_error_category@std@@UAEPAXI@Z 0040cab0 f i cApplicationStartup.obj
 0001:0000bab0       ??_G_Iostream_error_category@std@@UAEPAXI@Z 0040cab0 f i cApplicationStartup.obj
 0001:0000bb00       ??_G_System_error@std@@UAEPAXI@Z 0040cb00 f i cApplicationStartup.obj
 0001:0000bb00       ??_E_System_error@std@@UAEPAXI@Z 0040cb00 f i cApplicationStartup.obj
 0001:0000bb50       ??_G_System_error_category@std@@UAEPAXI@Z 0040cb50 f i cApplicationStartup.obj
 0001:0000bb50       ??_E_System_error_category@std@@UAEPAXI@Z 0040cb50 f i cApplicationStartup.obj
 0001:0000bba0       ??_Gctype_base@std@@UAEPAXI@Z 0040cba0 f i cApplicationStartup.obj
 0001:0000bba0       ??_Ectype_base@std@@UAEPAXI@Z 0040cba0 f i cApplicationStartup.obj
 0001:0000bbf0       ??_Gerror_category@std@@UAEPAXI@Z 0040cbf0 f i cApplicationStartup.obj
 0001:0000bbf0       ??_Eerror_category@std@@UAEPAXI@Z 0040cbf0 f i cApplicationStartup.obj
 0001:0000bc40       ??_Gfacet@locale@std@@MAEPAXI@Z 0040cc40 f i cApplicationStartup.obj
 0001:0000bc40       ??_Efacet@locale@std@@MAEPAXI@Z 0040cc40 f i cApplicationStartup.obj
 0001:0000bc90       ??_Gfailure@ios_base@std@@UAEPAXI@Z 0040cc90 f i cApplicationStartup.obj
 0001:0000bc90       ??_Efailure@ios_base@std@@UAEPAXI@Z 0040cc90 f i cApplicationStartup.obj
 0001:0000bce0       ??_Eruntime_error@std@@UAEPAXI@Z 0040cce0 f i cApplicationStartup.obj
 0001:0000bce0       ??_Gruntime_error@std@@UAEPAXI@Z 0040cce0 f i cApplicationStartup.obj
 0001:0000bd30       ??_Esystem_error@std@@UAEPAXI@Z 0040cd30 f i cApplicationStartup.obj
 0001:0000bd30       ??_Gsystem_error@std@@UAEPAXI@Z 0040cd30 f i cApplicationStartup.obj
 0001:0000bd80       ?BackgroundWindowProcess@@YGJPAUHWND__@@IIJ@Z 0040cd80 f   cApplicationStartup.obj
 0001:0000c100       ?Borrado@@YAXXZ            0040d100 f   cApplicationStartup.obj
 0001:0000c180       ?CharacterLogList@@YAXPAD@Z 0040d180 f   cApplicationStartup.obj
 0001:0000c400       ?ChatLogs@@YAXPAD@Z        0040d400 f   cApplicationStartup.obj
 0001:0000c680       ?ConfigList@@YAXPAD@Z      0040d680 f   cApplicationStartup.obj
 0001:0000c6a0       ?CreateBackgroundWindow@cApplicationStartup@@AAEPAUHWND__@@XZ 0040d6a0 f   cApplicationStartup.obj
 0001:0000c7f0       ?Deinitialize@@YAXXZ       0040d7f0 f   cApplicationStartup.obj
 0001:0000c810       ?ErrorList@@YAXPAD@Z       0040d810 f   cApplicationStartup.obj
 0001:0000ca90       ?Initialize@@YA_NXZ        0040da90 f   cApplicationStartup.obj
 0001:0000cb10       ?InitializeSockets@cApplicationStartup@@AAEXXZ 0040db10 f   cApplicationStartup.obj
 0001:0000cb60       ?OnAccept@@YAXXZ           0040db60 f   cApplicationStartup.obj
 0001:0000cb90       ?OnDestroy@@YAXXZ          0040db90 f   cApplicationStartup.obj
 0001:0000ccb0       ?PutEkAndPkLogFileList@@YAXPAD@Z 0040dcb0 f   cApplicationStartup.obj
 0001:0000cf10       ?PutGMLogData@@YAXPAD@Z    0040df10 f   cApplicationStartup.obj
 0001:0000d170       ?PutLogCoinsFileList@@YAXPAD@Z 0040e170 f   cApplicationStartup.obj
 0001:0000d3d0       ?PutLogDrops@@YAXPAD@Z     0040e3d0 f   cApplicationStartup.obj
 0001:0000d650       ?PutLogHacksFileList@@YAXPAD@Z 0040e650 f   cApplicationStartup.obj
 0001:0000d870       ?PutLogItemsList@@YAXPAD@Z 0040e870 f   cApplicationStartup.obj
 0001:0000dad0       ?PutLogList@@YAXPAD@Z      0040ead0 f   cApplicationStartup.obj
 0001:0000dd50       ?PutLogOnlinesFileList@@YAXPAD@Z 0040ed50 f   cApplicationStartup.obj
 0001:0000de50       ?PutLogTradeFileList@@YAXPAD@Z 0040ee50 f   cApplicationStartup.obj
 0001:0000e0b0       ?StartCoreserver@cApplicationStartup@@AAEXXZ 0040f0b0 f   cApplicationStartup.obj
 0001:0000e240       ?StartTimer@cApplicationStartup@@AAEIK@Z 0040f240 f   cApplicationStartup.obj
 0001:0000e2a0       ?Startup@cApplicationStartup@@QAEXXZ 0040f2a0 f   cApplicationStartup.obj
 0001:0000e360       ?UpdateConfigList@@YAXPAD@Z 0040f360 f   cApplicationStartup.obj
 0001:0000e3a0       ?_Alloc_proxy@?$_String_alloc@$0A@U?$_String_base_types@DV?$allocator@D@std@@@std@@@std@@QAEXXZ 0040f3a0 f i cApplicationStartup.obj
 0001:0000e400       ?_Assign_rv@?$basic_string@DU?$char_traits@D@std@@V?$allocator@D@2@@std@@QAEX$$QAV12@@Z 0040f400 f i cApplicationStartup.obj
 0001:0000e4c0       ?_Copy@?$basic_string@DU?$char_traits@D@std@@V?$allocator@D@2@@std@@QAEXII@Z 0040f4c0 f i cApplicationStartup.obj
 0001:0000e6f0       ?_Decref@facet@locale@std@@UAEPAV_Facet_base@3@XZ 0040f6f0 f i cApplicationStartup.obj
 0001:0000e730       ?_Eos@?$basic_string@DU?$char_traits@D@std@@V?$allocator@D@2@@std@@QAEXI@Z 0040f730 f i cApplicationStartup.obj
 0001:0000e780       ?_Free_proxy@?$_String_alloc@$0A@U?$_String_base_types@DV?$allocator@D@std@@@std@@@std@@QAEXXZ 0040f780 f i cApplicationStartup.obj
 0001:0000e7e0       ?_Getal@?$_String_alloc@$0A@U?$_String_base_types@DV?$allocator@D@std@@@std@@@std@@QBE?AU?$_Wrap_alloc@V?$allocator@D@std@@@2@XZ 0040f7e0 f i cApplicationStartup.obj
 0001:0000e810       ?_Getcat@?$ctype@D@std@@SAIPAPBVfacet@locale@2@PBV42@@Z 0040f810 f i cApplicationStartup.obj
 0001:0000e990       ?_Getctype@_Locinfo@std@@QBE?AU_Ctypevec@@XZ 0040f990 f i cApplicationStartup.obj
 0001:0000ea00       ?_Getfacet@locale@std@@QBEPBVfacet@12@I@Z 0040fa00 f i cApplicationStartup.obj
 0001:0000eab0       ?_Grow@?$basic_string@DU?$char_traits@D@std@@V?$allocator@D@2@@std@@QAE_NI_N@Z 0040fab0 f i cApplicationStartup.obj
 0001:0000eb90       ?_Incref@facet@locale@std@@UAEXXZ 0040fb90 f i cApplicationStartup.obj
 0001:0000ebc0       ?_Init@?$ctype@D@std@@IAEXABV_Locinfo@2@@Z 0040fbc0 f i cApplicationStartup.obj
 0001:0000ec10       ?_Init_atomic_counter@std@@YAXAAKK@Z 0040fc10 f i cApplicationStartup.obj
 0001:0000ec30       ?_Inside@?$basic_string@DU?$char_traits@D@std@@V?$allocator@D@2@@std@@QAE_NPBD@Z 0040fc30 f i cApplicationStartup.obj
 0001:0000ec90       ?_Makestr@_System_error@std@@CA?AV?$basic_string@DU?$char_traits@D@std@@V?$allocator@D@2@@2@Verror_code@2@V32@@Z 0040fc90 f i cApplicationStartup.obj
 0001:0000ed90       ?_Myptr@?$_String_val@U?$_Simple_types@D@std@@@std@@QAEPADXZ 0040fd90 f i cApplicationStartup.obj
 0001:0000ede0       ?_Myptr@?$_String_val@U?$_Simple_types@D@std@@@std@@QBEPBDXZ 0040fde0 f i cApplicationStartup.obj
 0001:0000ee30       ?_Orphan_all@_Container_base12@std@@QAEXXZ 0040fe30 f i cApplicationStartup.obj
 0001:0000eec0       ?_Osfx@?$basic_ostream@DU?$char_traits@D@std@@@std@@QAEXXZ 0040fec0 f i cApplicationStartup.obj
 0001:0000efd0       ?_Pnavail@?$basic_streambuf@DU?$char_traits@D@std@@@std@@IBE_JXZ 0040ffd0 f i cApplicationStartup.obj
 0001:0000f020       ?_Pninc@?$basic_streambuf@DU?$char_traits@D@std@@@std@@IAEPADXZ 00410020 f i cApplicationStartup.obj
 0001:0000f080       ?_StopTimer@@YAXI@Z        00410080 f   cApplicationStartup.obj
 0001:0000f0d0       ?_Tidy@?$_Yarn@D@std@@AAEXXZ 004100d0 f i cApplicationStartup.obj
 0001:0000f120       ?_Tidy@?$_Yarn@_W@std@@AAEXXZ 00410120 f i cApplicationStartup.obj
 0001:0000f170       ?_Tidy@?$basic_string@DU?$char_traits@D@std@@V?$allocator@D@2@@std@@QAEX_NI@Z 00410170 f i cApplicationStartup.obj
 0001:0000f250       ?_Tidy@?$ctype@D@std@@IAEXXZ 00410250 f i cApplicationStartup.obj
 0001:0000f2c0       ?_TimerFunc@@YGXIIKKK@Z    004102c0 f   cApplicationStartup.obj
 0001:0000f300       ?_Xlen@?$basic_string@DU?$char_traits@D@std@@V?$allocator@D@2@@std@@QBEXXZ 00410300 f i cApplicationStartup.obj
 0001:0000f330       ?_Xran@?$basic_string@DU?$char_traits@D@std@@V?$allocator@D@2@@std@@QBEXXZ 00410330 f i cApplicationStartup.obj
 0001:0000f360       ?allocate@?$_Wrap_alloc@V?$allocator@D@std@@@std@@QAEPADI@Z 00410360 f i cApplicationStartup.obj
 0001:0000f390       ?allocate@?$allocator@D@std@@QAEPADI@Z 00410390 f i cApplicationStartup.obj
 0001:0000f3c0       ?allocate@?$allocator@U_Container_proxy@std@@@std@@QAEPAU_Container_proxy@2@I@Z 004103c0 f i cApplicationStartup.obj
 0001:0000f3f0       ?append@?$basic_string@DU?$char_traits@D@std@@V?$allocator@D@2@@std@@QAEAAV12@ABV12@@Z 004103f0 f i cApplicationStartup.obj
 0001:0000f430       ?append@?$basic_string@DU?$char_traits@D@std@@V?$allocator@D@2@@std@@QAEAAV12@ABV12@II@Z 00410430 f i cApplicationStartup.obj
 0001:0000f520       ?append@?$basic_string@DU?$char_traits@D@std@@V?$allocator@D@2@@std@@QAEAAV12@PBD@Z 00410520 f i cApplicationStartup.obj
 0001:0000f580       ?append@?$basic_string@DU?$char_traits@D@std@@V?$allocator@D@2@@std@@QAEAAV12@PBDI@Z 00410580 f i cApplicationStartup.obj
 0001:0000f690       ?assign@?$basic_string@DU?$char_traits@D@std@@V?$allocator@D@2@@std@@QAEAAV12@ABV12@II@Z 00410690 f i cApplicationStartup.obj
 0001:0000f770       ?assign@?$basic_string@DU?$char_traits@D@std@@V?$allocator@D@2@@std@@QAEAAV12@PBD@Z 00410770 f i cApplicationStartup.obj
 0001:0000f7d0       ?assign@?$basic_string@DU?$char_traits@D@std@@V?$allocator@D@2@@std@@QAEAAV12@PBDI@Z 004107d0 f i cApplicationStartup.obj
 0001:0000f8a0       ?assign@?$char_traits@D@std@@SAXAADABD@Z 004108a0 f i cApplicationStartup.obj
 0001:0000f8c0       ?c_str@?$_Yarn@D@std@@QBEPBDXZ 004108c0 f i cApplicationStartup.obj
 0001:0000f900       ?c_str@?$basic_string@DU?$char_traits@D@std@@V?$allocator@D@2@@std@@QBEPBDXZ 00410900 f i cApplicationStartup.obj
 0001:0000f930       ?c_str@locale@std@@QBEPBDXZ 00410930 f i cApplicationStartup.obj
 0001:0000f980       ?category@error_code@std@@QBEABVerror_category@2@XZ 00410980 f i cApplicationStartup.obj
 0001:0000f9a0       ?category@error_condition@std@@QBEABVerror_category@2@XZ 004109a0 f i cApplicationStartup.obj
 0001:0000f9c0       ?clear@?$basic_ios@DU?$char_traits@D@std@@@std@@QAEXH_N@Z 004109c0 f i cApplicationStartup.obj
 0001:0000fa10       ?clear@ios_base@std@@QAEXH_N@Z 00410a10 f i cApplicationStartup.obj
 0001:0000fb50       ?copy@?$char_traits@D@std@@SAPADPADPBDI@Z 00410b50 f i cApplicationStartup.obj
 0001:0000fba0       ?deallocate@?$_Wrap_alloc@V?$allocator@D@std@@@std@@QAEXPADI@Z 00410ba0 f i cApplicationStartup.obj
 0001:0000fbd0       ?deallocate@?$allocator@D@std@@QAEXPADI@Z 00410bd0 f i cApplicationStartup.obj
 0001:0000fc00       ?deallocate@?$allocator@U_Container_proxy@std@@@std@@QAEXPAU_Container_proxy@2@I@Z 00410c00 f i cApplicationStartup.obj
 0001:0000fc30       ?default_error_condition@_System_error_category@std@@UBE?AVerror_condition@2@H@Z 00410c30 f i cApplicationStartup.obj
 0001:0000fca0       ?default_error_condition@error_category@std@@UBE?AVerror_condition@2@H@Z 00410ca0 f i cApplicationStartup.obj
 0001:0000fce0       ?do_narrow@?$ctype@D@std@@MBEDDD@Z 00410ce0 f i cApplicationStartup.obj
 0001:0000fd00       ?do_narrow@?$ctype@D@std@@MBEPBDPBD0DPAD@Z 00410d00 f i cApplicationStartup.obj
 0001:0000fd80       ?do_tolower@?$ctype@D@std@@MBEDD@Z 00410d80 f i cApplicationStartup.obj
 0001:0000fdc0       ?do_tolower@?$ctype@D@std@@MBEPBDPADPBD@Z 00410dc0 f i cApplicationStartup.obj
 0001:0000fe40       ?do_toupper@?$ctype@D@std@@MBEDD@Z 00410e40 f i cApplicationStartup.obj
 0001:0000fe80       ?do_toupper@?$ctype@D@std@@MBEPBDPADPBD@Z 00410e80 f i cApplicationStartup.obj
 0001:0000ff00       ?do_widen@?$ctype@D@std@@MBEDD@Z 00410f00 f i cApplicationStartup.obj
 0001:0000ff20       ?do_widen@?$ctype@D@std@@MBEPBDPBD0PAD@Z 00410f20 f i cApplicationStartup.obj
 0001:0000ffa0       ?empty@?$basic_string@DU?$char_traits@D@std@@V?$allocator@D@2@@std@@QBE_NXZ 00410fa0 f i cApplicationStartup.obj
 0001:0000ffe0       ?eof@?$char_traits@D@std@@SAHXZ 00410fe0 f i cApplicationStartup.obj
 0001:00010000       ?eq_int_type@?$char_traits@D@std@@SA_NABH0@Z 00411000 f i cApplicationStartup.obj
 0001:00010040       ?equivalent@error_category@std@@UBE_NABVerror_code@2@H@Z 00411040 f i cApplicationStartup.obj
 0001:000100a0       ?equivalent@error_category@std@@UBE_NHABVerror_condition@2@@Z 004110a0 f i cApplicationStartup.obj
 0001:000100f0       ?erase@?$basic_string@DU?$char_traits@D@std@@V?$allocator@D@2@@std@@QAEAAV12@I@Z 004110f0 f i cApplicationStartup.obj
 0001:00010140       ?erase@?$basic_string@DU?$char_traits@D@std@@V?$allocator@D@2@@std@@QAEAAV12@II@Z 00411140 f i cApplicationStartup.obj
 0001:000101f0       ?fill@?$basic_ios@DU?$char_traits@D@std@@@std@@QBEDXZ 004111f0 f i cApplicationStartup.obj
 0001:00010210       ?flags@ios_base@std@@QBEHXZ 00411210 f i cApplicationStartup.obj
 0001:00010230       ?flush@?$basic_ostream@DU?$char_traits@D@std@@@std@@QAEAAV12@XZ 00411230 f i cApplicationStartup.obj
 0001:00010320       ?generic_category@std@@YAABVerror_category@1@XZ 00411320 f i cApplicationStartup.obj
 0001:00010340       ?getloc@ios_base@std@@QBE?AVlocale@2@XZ 00411340 f i cApplicationStartup.obj
 0001:00010390       ?good@ios_base@std@@QBE_NXZ 00411390 f i cApplicationStartup.obj
 0001:000103d0       ?iostream_category@std@@YAABVerror_category@1@XZ 004113d0 f i cApplicationStartup.obj
 0001:000103f0       ?length@?$char_traits@D@std@@SAIPBD@Z 004113f0 f i cApplicationStartup.obj
 0001:00010440       ?make_error_code@std@@YA?AVerror_code@1@W4io_errc@1@@Z 00411440 f i cApplicationStartup.obj
 0001:00010470       ?max_size@?$_Wrap_alloc@V?$allocator@D@std@@@std@@QBEIXZ 00411470 f i cApplicationStartup.obj
 0001:000104a0       ?max_size@?$allocator@D@std@@QBEIXZ 004114a0 f i cApplicationStartup.obj
 0001:000104c0       ?max_size@?$allocator_traits@V?$allocator@D@std@@@std@@SAIABV?$allocator@D@2@@Z 004114c0 f i cApplicationStartup.obj
 0001:000104e0       ?max_size@?$basic_string@DU?$char_traits@D@std@@V?$allocator@D@2@@std@@QBEIXZ 004114e0 f i cApplicationStartup.obj
 0001:00010540       ?message@_Generic_error_category@std@@UBE?AV?$basic_string@DU?$char_traits@D@std@@V?$allocator@D@2@@2@H@Z 00411540 f i cApplicationStartup.obj
 0001:000105b0       ?message@_Iostream_error_category@std@@UBE?AV?$basic_string@DU?$char_traits@D@std@@V?$allocator@D@2@@2@H@Z 004115b0 f i cApplicationStartup.obj
 0001:00010630       ?message@_System_error_category@std@@UBE?AV?$basic_string@DU?$char_traits@D@std@@V?$allocator@D@2@@2@H@Z 00411630 f i cApplicationStartup.obj
 0001:000106a0       ?message@error_code@std@@QBE?AV?$basic_string@DU?$char_traits@D@std@@V?$allocator@D@2@@2@XZ 004116a0 f i cApplicationStartup.obj
 0001:00010700       ?move@?$char_traits@D@std@@SAPADPADPBDI@Z 00411700 f i cApplicationStartup.obj
 0001:00010750       ?name@_Generic_error_category@std@@UBEPBDXZ 00411750 f i cApplicationStartup.obj
 0001:00010770       ?name@_Iostream_error_category@std@@UBEPBDXZ 00411770 f i cApplicationStartup.obj
 0001:00010790       ?name@_System_error_category@std@@UBEPBDXZ 00411790 f i cApplicationStartup.obj
 0001:000107b0       ?pubsync@?$basic_streambuf@DU?$char_traits@D@std@@@std@@QAEHXZ 004117b0 f i cApplicationStartup.obj
 0001:000107e0       ?put@?$basic_ostream@DU?$char_traits@D@std@@@std@@QAEAAV12@D@Z 004117e0 f i cApplicationStartup.obj
 0001:00010960       ?rdbuf@?$basic_ios@DU?$char_traits@D@std@@@std@@QBEPAV?$basic_streambuf@DU?$char_traits@D@std@@@2@XZ 00411960 f i cApplicationStartup.obj
 0001:00010980       ?rdstate@ios_base@std@@QBEHXZ 00411980 f i cApplicationStartup.obj
 0001:000109a0       ?select_on_container_copy_construction@?$_Wrap_alloc@V?$allocator@D@std@@@std@@QBE?AU12@XZ 004119a0 f i cApplicationStartup.obj
 0001:000109e0       ?select_on_container_copy_construction@?$allocator@D@std@@QBE?AV12@XZ 004119e0 f i cApplicationStartup.obj
 0001:00010a10       ?select_on_container_copy_construction@?$allocator_traits@V?$allocator@D@std@@@std@@SA?AV?$allocator@D@2@ABV32@@Z 00411a10 f i cApplicationStartup.obj
 0001:00010a40       ?setstate@?$basic_ios@DU?$char_traits@D@std@@@std@@QAEXH_N@Z 00411a40 f i cApplicationStartup.obj
 0001:00010a90       ?size@?$basic_string@DU?$char_traits@D@std@@V?$allocator@D@2@@std@@QBEIXZ 00411a90 f i cApplicationStartup.obj
 0001:00010ab0       ?sputc@?$basic_streambuf@DU?$char_traits@D@std@@@std@@QAEHD@Z 00411ab0 f i cApplicationStartup.obj
 0001:00010b50       ?sputn@?$basic_streambuf@DU?$char_traits@D@std@@@std@@QAE_JPBD_J@Z 00411b50 f i cApplicationStartup.obj
 0001:00010b90       ?system_category@std@@YAABVerror_category@1@XZ 00411b90 f i cApplicationStartup.obj
 0001:00010bb0       ?tie@?$basic_ios@DU?$char_traits@D@std@@@std@@QBEPAV?$basic_ostream@DU?$char_traits@D@std@@@2@XZ 00411bb0 f i cApplicationStartup.obj
 0001:00010bd0       ?to_int_type@?$char_traits@D@std@@SAHABD@Z 00411bd0 f i cApplicationStartup.obj
 0001:00010bf0       ?value@error_code@std@@QBEHXZ 00411bf0 f i cApplicationStartup.obj
 0001:00010c10       ?value@error_condition@std@@QBEHXZ 00411c10 f i cApplicationStartup.obj
 0001:00010c30       ?widen@?$basic_ios@DU?$char_traits@D@std@@@std@@QBEDD@Z 00411c30 f i cApplicationStartup.obj
 0001:00010ce0       ?widen@?$ctype@D@std@@QBEDD@Z 00411ce0 f i cApplicationStartup.obj
 0001:00010d10       ?width@ios_base@std@@QAE_J_J@Z 00411d10 f i cApplicationStartup.obj
 0001:00010d60       ?width@ios_base@std@@QBE_JXZ 00411d60 f i cApplicationStartup.obj
 0001:00010d90       _hypot                     00411d90 f i cApplicationStartup.obj
 0001:00010dd0       ?DeleteNpc@CMapServer@@QAEXHHH@Z 00411dd0 f   Drops.obj
 0001:00016a40       ?NpcDeadItemGenerator@CMapServer@@QAEXHFD@Z 00417a40 f   Drops.obj
 0001:00019610       ?RollByProbabilityTable@CMapServer@@QAEHPBHH@Z 0041a610 f   Drops.obj
 0001:000196a0       ?bCheckClientMoveFrequency@CMapServer@@QAE_NHH@Z 0041a6a0 f   Drops.obj
 0001:00019700       ?bGetMultipleItemNamesWhenDeleteNpc@CMapServer@@QAEHFHHHFFHHPAHPAUtagPOINT@@0@Z 0041a700 f   Drops.obj
 0001:0001a570       _main                      0041b570 f   main.obj
 0001:0001a720       ??0CBuildItem@@QAE@XZ      0041b720 f   BuildItem.obj
 0001:0001a820       ??1CBuildItem@@UAE@XZ      0041b820 f   BuildItem.obj
 0001:0001a850       ??_ECBuildItem@@UAEPAXI@Z  0041b850 f i BuildItem.obj
 0001:0001a850       ??_GCBuildItem@@UAEPAXI@Z  0041b850 f i BuildItem.obj
 0001:0001a8a0       ??$?0V<lambda_d6f1c9119fbc315a7d806e1c05d81231>@@$$$V@?$_Bind@$0A@XV<lambda_d6f1c9119fbc315a7d806e1c05d81231>@@$$$V@std@@QAE@$$QAV<lambda_d6f1c9119fbc315a7d806e1c05d81231>@@@Z 0041b8a0 f i Client.obj
 0001:0001a8f0       ??$?0V<lambda_d6f1c9119fbc315a7d806e1c05d81231>@@$$$V@thread@std@@QAE@$$QAV<lambda_d6f1c9119fbc315a7d806e1c05d81231>@@@Z 0041b8f0 f i Client.obj
 0001:0001a950       ??$?0V?$_Bind@$0A@XV<lambda_d6f1c9119fbc315a7d806e1c05d81231>@@$$$V@std@@@?$_LaunchPad@V?$_Bind@$0A@XV<lambda_d6f1c9119fbc315a7d806e1c05d81231>@@$$$V@std@@@std@@QAE@$$QAV?$_Bind@$0A@XV<lambda_d6f1c9119fbc315a7d806e1c05d81231>@@$$$V@1@@Z 0041b950 f i Client.obj
 0001:0001a9f0       ??$?8DD@std@@YA_NABV?$allocator@D@0@0@Z 0041b9f0 f i Client.obj
 0001:0001aa10       ??$?8DU?$char_traits@D@std@@V?$allocator@D@1@@std@@YA_NABV?$basic_string@DU?$char_traits@D@std@@V?$allocator@D@2@@0@PBD@Z 0041ba10 f i Client.obj
 0001:0001aa50       ??$?8V?$allocator@D@std@@V01@@std@@YA_NABU?$_Wrap_alloc@V?$allocator@D@std@@@0@0@Z 0041ba50 f i Client.obj
 0001:0001aa90       ??$?9DD@std@@YA_NABV?$allocator@D@0@0@Z 0041ba90 f i Client.obj
 0001:0001aae0       ??$?9V?$allocator@D@std@@V01@@std@@YA_NABU?$_Wrap_alloc@V?$allocator@D@std@@@0@0@Z 0041bae0 f i Client.obj
 0001:0001ab30       ??$?R$$$V@?$_Bind@$0A@XV<lambda_d6f1c9119fbc315a7d806e1c05d81231>@@$$$V@std@@QAEXXZ 0041bb30 f i Client.obj
 0001:0001ad30       ??$_Allocate@Ust_charquest@CClient@@@std@@YAPAUst_charquest@CClient@@IPAU12@@Z 0041bd30 f i Client.obj
 0001:0001ad90       ??$_Allocate@V?$basic_string@DU?$char_traits@D@std@@V?$allocator@D@2@@std@@@std@@YAPAV?$basic_string@DU?$char_traits@D@std@@V?$allocator@D@2@@0@IPAV10@@Z 0041bd90 f i Client.obj
 0001:0001adf0       ??$_DebugHeapDelete@Vlocale@std@@@std@@YAXPAVlocale@0@@Z 0041bdf0 f i Client.obj
 0001:0001ae30       ??$_DebugHeapDelete@X@std@@YAXPAX@Z 0041be30 f i Client.obj
 0001:0001ae60       ??$_Debug_pointer@Ust_charquest@CClient@@@std@@YAXPAUst_charquest@CClient@@PB_WI@Z 0041be60 f i Client.obj
 0001:0001aea0       ??$_Debug_pointer@V?$basic_string@DU?$char_traits@D@std@@V?$allocator@D@2@@std@@@std@@YAXPAV?$basic_string@DU?$char_traits@D@std@@V?$allocator@D@2@@0@PB_WI@Z 0041bea0 f i Client.obj
 0001:0001aee0       ??$_Debug_pointer@V?$ostreambuf_iterator@DU?$char_traits@D@std@@@std@@@std@@YAXAAV?$ostreambuf_iterator@DU?$char_traits@D@std@@@0@PB_WI@Z 0041bee0 f i Client.obj
 0001:0001af00       ??$_Debug_range2@PAUst_charquest@CClient@@@std@@YAXPAUst_charquest@CClient@@0PB_WIUrandom_access_iterator_tag@0@@Z 0041bf00 f i Client.obj
 0001:0001af80       ??$_Debug_range2@PAV?$basic_string@DU?$char_traits@D@std@@V?$allocator@D@2@@std@@@std@@YAXPAV?$basic_string@DU?$char_traits@D@std@@V?$allocator@D@2@@0@0PB_WIUrandom_access_iterator_tag@0@@Z 0041bf80 f i Client.obj
 0001:0001b000       ??$_Debug_range@PAUst_charquest@CClient@@@std@@YAXPAUst_charquest@CClient@@0PB_WI@Z 0041c000 f i Client.obj
 0001:0001b050       ??$_Debug_range@PAV?$basic_string@DU?$char_traits@D@std@@V?$allocator@D@2@@std@@@std@@YAXPAV?$basic_string@DU?$char_traits@D@std@@V?$allocator@D@2@@0@0PB_WI@Z 0041c050 f i Client.obj
 0001:0001b0a0       ??$_Decay_copy@V<lambda_d6f1c9119fbc315a7d806e1c05d81231>@@@std@@YA?AV<lambda_d6f1c9119fbc315a7d806e1c05d81231>@@$$QAV1@@Z 0041c0a0 f i Client.obj
 0001:0001b0d0       ??$_Destroy_range@U?$_Wrap_alloc@V?$allocator@Ust_charquest@CClient@@@std@@@std@@@std@@YAXPAUst_charquest@CClient@@0AAU?$_Wrap_alloc@V?$allocator@Ust_charquest@CClient@@@std@@@0@@Z 0041c0d0 f i Client.obj
 0001:0001b120       ??$_Destroy_range@U?$_Wrap_alloc@V?$allocator@Ust_charquest@CClient@@@std@@@std@@@std@@YAXPAUst_charquest@CClient@@0AAU?$_Wrap_alloc@V?$allocator@Ust_charquest@CClient@@@std@@@0@U_Nonscalar_ptr_iterator_tag@0@@Z 0041c120 f i Client.obj
 0001:0001b160       ??$_Destroy_range@U?$_Wrap_alloc@V?$allocator@V?$basic_string@DU?$char_traits@D@std@@V?$allocator@D@2@@std@@@std@@@std@@@std@@YAXPAV?$basic_string@DU?$char_traits@D@std@@V?$allocator@D@2@@0@0AAU?$_Wrap_alloc@V?$allocator@V?$basic_string@DU?$char_traits@D@std@@V?$allocator@D@2@@std@@@std@@@0@@Z 0041c160 f i Client.obj
 0001:0001b1b0       ??$_Destroy_range@U?$_Wrap_alloc@V?$allocator@V?$basic_string@DU?$char_traits@D@std@@V?$allocator@D@2@@std@@@std@@@std@@@std@@YAXPAV?$basic_string@DU?$char_traits@D@std@@V?$allocator@D@2@@0@0AAU?$_Wrap_alloc@V?$allocator@V?$basic_string@DU?$char_traits@D@std@@V?$allocator@D@2@@std@@@std@@@0@U_Nonscalar_ptr_iterator_tag@0@@Z 0041c1b0 f i Client.obj
 0001:0001b1f0       ??$_Do_call@$$$V$S@?$_Bind@$0A@XV<lambda_d6f1c9119fbc315a7d806e1c05d81231>@@$$$V@std@@QAEXV?$tuple@$$$V@1@U?$_Arg_idx@$S@1@@Z 0041c1f0 f i Client.obj
 0001:0001b220       ??$_Fgetc@D@std@@YA_NAADPAU_iobuf@@@Z 0041c220 f i Client.obj
 0001:0001b270       ??$_Fputc@D@std@@YA_NDPAU_iobuf@@@Z 0041c270 f i Client.obj
 0001:0001b2c0       ??$_Getvals@D@?$numpunct@D@std@@IAEXDPBUlconv@@U_Cvtvec@@@Z 0041c2c0 f i Client.obj
 0001:0001b340       ??$_Iter_cat@PAUst_charquest@CClient@@@std@@YA?AUrandom_access_iterator_tag@0@ABQAUst_charquest@CClient@@@Z 0041c340 f i Client.obj
 0001:0001b370       ??$_Iter_cat@PAV?$basic_string@DU?$char_traits@D@std@@V?$allocator@D@2@@std@@@std@@YA?AUrandom_access_iterator_tag@0@ABQAV?$basic_string@DU?$char_traits@D@std@@V?$allocator@D@2@@0@@Z 0041c370 f i Client.obj
 0001:0001b3a0       ??$_Launch@V?$_Bind@$0A@XV<lambda_d6f1c9119fbc315a7d806e1c05d81231>@@$$$V@std@@@std@@YAXPAU_Thrd_imp_t@@$$QAV?$_Bind@$0A@XV<lambda_d6f1c9119fbc315a7d806e1c05d81231>@@$$$V@0@@Z 0041c3a0 f i Client.obj
 0001:0001b430       ??$_Maklocchr@D@std@@YADDPADABU_Cvtvec@@@Z 0041c430 f i Client.obj
 0001:0001b450       ??$_Maklocstr@D@std@@YAPADPBDPADABU_Cvtvec@@@Z 0041c450 f i Client.obj
 0001:0001b4f0       ??$_Move@PAUst_charquest@CClient@@PAU12@@std@@YAPAUst_charquest@CClient@@PAU12@00@Z 0041c4f0 f i Client.obj
 0001:0001b540       ??$_Move@PAUst_charquest@CClient@@PAU12@@std@@YAPAUst_charquest@CClient@@PAU12@00U_Nonscalar_ptr_iterator_tag@0@@Z 0041c540 f i Client.obj
 0001:0001b5b0       ??$_Ptr_cat@Ust_charquest@CClient@@U12@@std@@YA?AU_Nonscalar_ptr_iterator_tag@0@PAUst_charquest@CClient@@0@Z 0041c5b0 f i Client.obj
 0001:0001b5d0       ??$_Ptr_cat@V?$basic_string@DU?$char_traits@D@std@@V?$allocator@D@2@@std@@V12@@std@@YA?AU_Nonscalar_ptr_iterator_tag@0@PAV?$basic_string@DU?$char_traits@D@std@@V?$allocator@D@2@@0@0@Z 0041c5d0 f i Client.obj
 0001:0001b5f0       ??$_Rechecked@PAUst_charquest@CClient@@PAU12@@std@@YAAAPAUst_charquest@CClient@@AAPAU12@PAU12@@Z 0041c5f0 f i Client.obj
 0001:0001b620       ??$_Rechecked@PAV?$basic_string@DU?$char_traits@D@std@@V?$allocator@D@2@@std@@PAV12@@std@@YAAAPAV?$basic_string@DU?$char_traits@D@std@@V?$allocator@D@2@@0@AAPAV10@PAV10@@Z 0041c620 f i Client.obj
 0001:0001b650       ??$_Umove@PAUst_charquest@CClient@@@?$vector@Ust_charquest@CClient@@V?$allocator@Ust_charquest@CClient@@@std@@@std@@IAEPAUst_charquest@CClient@@PAU23@00@Z 0041c650 f i Client.obj
 0001:0001b6a0       ??$_Umove@PAV?$basic_string@DU?$char_traits@D@std@@V?$allocator@D@2@@std@@@?$vector@V?$basic_string@DU?$char_traits@D@std@@V?$allocator@D@2@@std@@V?$allocator@V?$basic_string@DU?$char_traits@D@std@@V?$allocator@D@2@@std@@@2@@std@@IAEPAV?$basic_string@DU?$char_traits@D@std@@V?$allocator@D@2@@1@PAV21@00@Z 0041c6a0 f i Client.obj
 0001:0001b6f0       ??$_Unchecked@PAUst_charquest@CClient@@@std@@YAPAUst_charquest@CClient@@PAU12@@Z 0041c6f0 f i Client.obj
 0001:0001b710       ??$_Unchecked@PAV?$basic_string@DU?$char_traits@D@std@@V?$allocator@D@2@@std@@@std@@YAPAV?$basic_string@DU?$char_traits@D@std@@V?$allocator@D@2@@0@PAV10@@Z 0041c710 f i Client.obj
 0001:0001b730       ??$_Ungetc@D@std@@YA_NABDPAU_iobuf@@@Z 0041c730 f i Client.obj
 0001:0001b780       ??$_Uninit_move@PAUst_charquest@CClient@@PAU12@U?$_Wrap_alloc@V?$allocator@Ust_charquest@CClient@@@std@@@std@@@std@@YAPAUst_charquest@CClient@@PAU12@00AAU?$_Wrap_alloc@V?$allocator@Ust_charquest@CClient@@@std@@@0@@Z 0041c780 f i Client.obj
 0001:0001b7e0       ??$_Uninit_move@PAUst_charquest@CClient@@PAU12@V?$allocator@Ust_charquest@CClient@@@std@@U12@@std@@YAPAUst_charquest@CClient@@PAU12@00AAU?$_Wrap_alloc@V?$allocator@Ust_charquest@CClient@@@std@@@0@0U_Nonscalar_ptr_iterator_tag@0@@Z 0041c7e0 f i Client.obj
 0001:0001b920       ??$_Uninit_move@PAV?$basic_string@DU?$char_traits@D@std@@V?$allocator@D@2@@std@@PAV12@U?$_Wrap_alloc@V?$allocator@V?$basic_string@DU?$char_traits@D@std@@V?$allocator@D@2@@std@@@std@@@2@@std@@YAPAV?$basic_string@DU?$char_traits@D@std@@V?$allocator@D@2@@0@PAV10@00AAU?$_Wrap_alloc@V?$allocator@V?$basic_string@DU?$char_traits@D@std@@V?$allocator@D@2@@std@@@std@@@0@@Z 0041c920 f i Client.obj
 0001:0001b980       ??$_Uninit_move@PAV?$basic_string@DU?$char_traits@D@std@@V?$allocator@D@2@@std@@PAV12@V?$allocator@V?$basic_string@DU?$char_traits@D@std@@V?$allocator@D@2@@std@@@2@V12@@std@@YAPAV?$basic_string@DU?$char_traits@D@std@@V?$allocator@D@2@@0@PAV10@00AAU?$_Wrap_alloc@V?$allocator@V?$basic_string@DU?$char_traits@D@std@@V?$allocator@D@2@@std@@@std@@@0@0U_Nonscalar_ptr_iterator_tag@0@@Z 0041c980 f i Client.obj
 0001:0001bab0       ??$_Uninitialized_move@PAUst_charquest@CClient@@PAU12@U?$_Wrap_alloc@V?$allocator@Ust_charquest@CClient@@@std@@@std@@@std@@YAPAUst_charquest@CClient@@PAU12@00AAU?$_Wrap_alloc@V?$allocator@Ust_charquest@CClient@@@std@@@0@@Z 0041cab0 f i Client.obj
 0001:0001bb20       ??$_Uninitialized_move@PAV?$basic_string@DU?$char_traits@D@std@@V?$allocator@D@2@@std@@PAV12@U?$_Wrap_alloc@V?$allocator@V?$basic_string@DU?$char_traits@D@std@@V?$allocator@D@2@@std@@@std@@@2@@std@@YAPAV?$basic_string@DU?$char_traits@D@std@@V?$allocator@D@2@@0@PAV10@00AAU?$_Wrap_alloc@V?$allocator@V?$basic_string@DU?$char_traits@D@std@@V?$allocator@D@2@@std@@@std@@@0@@Z 0041cb20 f i Client.obj
 0001:0001bb90       ??$_Val_type@PAUst_charquest@CClient@@@std@@YAPAUst_charquest@CClient@@PAU12@@Z 0041cb90 f i Client.obj
 0001:0001bbb0       ??$_Val_type@PAV?$basic_string@DU?$char_traits@D@std@@V?$allocator@D@2@@std@@@std@@YAPAV?$basic_string@DU?$char_traits@D@std@@V?$allocator@D@2@@0@PAV10@@Z 0041cbb0 f i Client.obj
 0001:0001bbd0       ??$addressof@$$CBUst_charquest@CClient@@@std@@YAPBUst_charquest@CClient@@ABU12@@Z 0041cbd0 f i Client.obj
 0001:0001bbf0       ??$addressof@V?$basic_string@DU?$char_traits@D@std@@V?$allocator@D@2@@std@@@std@@YAPAV?$basic_string@DU?$char_traits@D@std@@V?$allocator@D@2@@0@AAV10@@Z 0041cbf0 f i Client.obj
 0001:0001bc10       ??$bind@V<lambda_d6f1c9119fbc315a7d806e1c05d81231>@@$$$V@std@@YA?AV?$_Bind@$0A@XV<lambda_d6f1c9119fbc315a7d806e1c05d81231>@@$$$V@0@$$QAV<lambda_d6f1c9119fbc315a7d806e1c05d81231>@@@Z 0041cc10 f i Client.obj
 0001:0001bc50       ??$construct@U_Container_proxy@std@@U12@@?$_Wrap_alloc@V?$allocator@U_Container_proxy@std@@@std@@@std@@QAEXPAU_Container_proxy@1@$$QAU21@@Z 0041cc50 f i Client.obj
 0001:0001bc90       ??$construct@U_Container_proxy@std@@U12@@?$allocator_traits@V?$allocator@U_Container_proxy@std@@@std@@@std@@SAXAAV?$allocator@U_Container_proxy@std@@@1@PAU_Container_proxy@1@$$QAU31@@Z 0041cc90 f i Client.obj
 0001:0001bcd0       ??$construct@Ust_charquest@CClient@@AAU12@@?$_Wrap_alloc@V?$allocator@Ust_charquest@CClient@@@std@@@std@@QAEXPAUst_charquest@CClient@@AAU23@@Z 0041ccd0 f i Client.obj
 0001:0001bd10       ??$construct@Ust_charquest@CClient@@AAU12@@?$allocator@Ust_charquest@CClient@@@std@@QAEXPAUst_charquest@CClient@@AAU23@@Z 0041cd10 f i Client.obj
 0001:0001bdd0       ??$construct@Ust_charquest@CClient@@AAU12@@?$allocator_traits@V?$allocator@Ust_charquest@CClient@@@std@@@std@@SAXAAV?$allocator@Ust_charquest@CClient@@@1@PAUst_charquest@CClient@@AAU34@@Z 0041cdd0 f i Client.obj
 0001:0001be10       ??$construct@Ust_charquest@CClient@@ABU12@@?$_Wrap_alloc@V?$allocator@Ust_charquest@CClient@@@std@@@std@@QAEXPAUst_charquest@CClient@@ABU23@@Z 0041ce10 f i Client.obj
 0001:0001be50       ??$construct@Ust_charquest@CClient@@ABU12@@?$allocator_traits@V?$allocator@Ust_charquest@CClient@@@std@@@std@@SAXAAV?$allocator@Ust_charquest@CClient@@@1@PAUst_charquest@CClient@@ABU34@@Z 0041ce50 f i Client.obj
 0001:0001be90       ??$construct@Ust_charquest@CClient@@U12@@?$_Wrap_alloc@V?$allocator@Ust_charquest@CClient@@@std@@@std@@QAEXPAUst_charquest@CClient@@$$QAU23@@Z 0041ce90 f i Client.obj
 0001:0001bed0       ??$construct@Ust_charquest@CClient@@U12@@?$allocator@Ust_charquest@CClient@@@std@@QAEXPAUst_charquest@CClient@@$$QAU23@@Z 0041ced0 f i Client.obj
 0001:0001bf90       ??$construct@Ust_charquest@CClient@@U12@@?$allocator_traits@V?$allocator@Ust_charquest@CClient@@@std@@@std@@SAXAAV?$allocator@Ust_charquest@CClient@@@1@PAUst_charquest@CClient@@$$QAU34@@Z 0041cf90 f i Client.obj
 0001:0001bfd0       ??$construct@V?$basic_string@DU?$char_traits@D@std@@V?$allocator@D@2@@std@@V12@@?$_Wrap_alloc@V?$allocator@V?$basic_string@DU?$char_traits@D@std@@V?$allocator@D@2@@std@@@std@@@std@@QAEXPAV?$basic_string@DU?$char_traits@D@std@@V?$allocator@D@2@@1@$$QAV21@@Z 0041cfd0 f i Client.obj
 0001:0001c010       ??$construct@V?$basic_string@DU?$char_traits@D@std@@V?$allocator@D@2@@std@@V12@@?$allocator@V?$basic_string@DU?$char_traits@D@std@@V?$allocator@D@2@@std@@@std@@QAEXPAV?$basic_string@DU?$char_traits@D@std@@V?$allocator@D@2@@1@$$QAV21@@Z 0041d010 f i Client.obj
 0001:0001c0c0       ??$construct@V?$basic_string@DU?$char_traits@D@std@@V?$allocator@D@2@@std@@V12@@?$allocator_traits@V?$allocator@V?$basic_string@DU?$char_traits@D@std@@V?$allocator@D@2@@std@@@std@@@std@@SAXAAV?$allocator@V?$basic_string@DU?$char_traits@D@std@@V?$allocator@D@2@@std@@@1@PAV?$basic_string@DU?$char_traits@D@std@@V?$allocator@D@2@@1@$$QAV31@@Z 0041d0c0 f i Client.obj
 0001:0001c100       ??$destroy@U_Container_proxy@std@@@?$_Wrap_alloc@V?$allocator@U_Container_proxy@std@@@std@@@std@@QAEXPAU_Container_proxy@1@@Z 0041d100 f i Client.obj
 0001:0001c130       ??$destroy@U_Container_proxy@std@@@?$allocator_traits@V?$allocator@U_Container_proxy@std@@@std@@@std@@SAXAAV?$allocator@U_Container_proxy@std@@@1@PAU_Container_proxy@1@@Z 0041d130 f i Client.obj
 0001:0001c160       ??$destroy@Ust_charquest@CClient@@@?$_Wrap_alloc@V?$allocator@Ust_charquest@CClient@@@std@@@std@@QAEXPAUst_charquest@CClient@@@Z 0041d160 f i Client.obj
 0001:0001c190       ??$destroy@Ust_charquest@CClient@@@?$allocator@Ust_charquest@CClient@@@std@@QAEXPAUst_charquest@CClient@@@Z 0041d190 f i Client.obj
 0001:0001c1b0       ??$destroy@Ust_charquest@CClient@@@?$allocator_traits@V?$allocator@Ust_charquest@CClient@@@std@@@std@@SAXAAV?$allocator@Ust_charquest@CClient@@@1@PAUst_charquest@CClient@@@Z 0041d1b0 f i Client.obj
 0001:0001c1e0       ??$destroy@V?$basic_string@DU?$char_traits@D@std@@V?$allocator@D@2@@std@@@?$_Wrap_alloc@V?$allocator@V?$basic_string@DU?$char_traits@D@std@@V?$allocator@D@2@@std@@@std@@@std@@QAEXPAV?$basic_string@DU?$char_traits@D@std@@V?$allocator@D@2@@1@@Z 0041d1e0 f i Client.obj
 0001:0001c210       ??$destroy@V?$basic_string@DU?$char_traits@D@std@@V?$allocator@D@2@@std@@@?$allocator@V?$basic_string@DU?$char_traits@D@std@@V?$allocator@D@2@@std@@@std@@QAEXPAV?$basic_string@DU?$char_traits@D@std@@V?$allocator@D@2@@1@@Z 0041d210 f i Client.obj
 0001:0001c240       ??$destroy@V?$basic_string@DU?$char_traits@D@std@@V?$allocator@D@2@@std@@@?$allocator_traits@V?$allocator@V?$basic_string@DU?$char_traits@D@std@@V?$allocator@D@2@@std@@@std@@@std@@SAXAAV?$allocator@V?$basic_string@DU?$char_traits@D@std@@V?$allocator@D@2@@std@@@1@PAV?$basic_string@DU?$char_traits@D@std@@V?$allocator@D@2@@1@@Z 0041d240 f i Client.obj
 0001:0001c270       ??$forward@AAUst_charquest@CClient@@@std@@YAAAUst_charquest@CClient@@AAU12@@Z 0041d270 f i Client.obj
 0001:0001c290       ??$forward@ABUst_charquest@CClient@@@std@@YAABUst_charquest@CClient@@ABU12@@Z 0041d290 f i Client.obj
 0001:0001c2b0       ??$forward@Ust_charquest@CClient@@@std@@YA$$QAUst_charquest@CClient@@AAU12@@Z 0041d2b0 f i Client.obj
 0001:0001c2d0       ??$forward@V<lambda_d6f1c9119fbc315a7d806e1c05d81231>@@@std@@YA$$QAV<lambda_d6f1c9119fbc315a7d806e1c05d81231>@@AAV1@@Z 0041d2d0 f i Client.obj
 0001:0001c2f0       ??$forward@V?$_Bind@$0A@XV<lambda_d6f1c9119fbc315a7d806e1c05d81231>@@$$$V@std@@@std@@YA$$QAV?$_Bind@$0A@XV<lambda_d6f1c9119fbc315a7d806e1c05d81231>@@$$$V@0@AAV10@@Z 0041d2f0 f i Client.obj
 0001:0001c310       ??$forward@V?$tuple@$$$V@std@@@std@@YA$$QAV?$tuple@$$$V@0@AAV10@@Z 0041d310 f i Client.obj
 0001:0001c330       ??$getline@DU?$char_traits@D@std@@V?$allocator@D@2@@std@@YAAAV?$basic_istream@DU?$char_traits@D@std@@@0@$$QAV10@AAV?$basic_string@DU?$char_traits@D@std@@V?$allocator@D@2@@0@D@Z 0041d330 f i Client.obj
 0001:0001c5b0       ??$getline@DU?$char_traits@D@std@@V?$allocator@D@2@@std@@YAAAV?$basic_istream@DU?$char_traits@D@std@@@0@AAV10@AAV?$basic_string@DU?$char_traits@D@std@@V?$allocator@D@2@@0@@Z 0041d5b0 f i Client.obj
 0001:0001c610       ??$move@AAUst_charquest@CClient@@@std@@YA$$QAUst_charquest@CClient@@AAU12@@Z 0041d610 f i Client.obj
 0001:0001c630       ??$move@AAV?$basic_istream@DU?$char_traits@D@std@@@std@@@std@@YA$$QAV?$basic_istream@DU?$char_traits@D@std@@@0@AAV10@@Z 0041d630 f i Client.obj
 0001:0001c650       ??$tie@$$$V@std@@YA?AV?$tuple@$$$V@0@XZ 0041d650 f i Client.obj
 0001:0001c680       ??$use_facet@V?$codecvt@DDH@std@@@std@@YAABV?$codecvt@DDH@0@ABVlocale@0@@Z 0041d680 f i Client.obj
 0001:0001c7c0       ??$use_facet@V?$num_put@DV?$ostreambuf_iterator@DU?$char_traits@D@std@@@std@@@std@@@std@@YAABV?$num_put@DV?$ostreambuf_iterator@DU?$char_traits@D@std@@@std@@@0@ABVlocale@0@@Z 0041d7c0 f i Client.obj
 0001:0001c900       ??$use_facet@V?$numpunct@D@std@@@std@@YAABV?$numpunct@D@0@ABVlocale@0@@Z 0041d900 f i Client.obj
 0001:0001ca70       ??0?$_Bind@$0A@XV<lambda_d6f1c9119fbc315a7d806e1c05d81231>@@$$$V@std@@QAE@$$QAV01@@Z 0041da70 f i Client.obj
 0001:0001cad0       ??0?$_Iterator012@Urandom_access_iterator_tag@std@@DHPBDABDU_Iterator_base12@2@@std@@QAE@XZ 0041dad0 f i Client.obj
 0001:0001cb00       ??0?$_Iterator012@Urandom_access_iterator_tag@std@@Ust_charquest@CClient@@HPBU34@ABU34@U_Iterator_base12@2@@std@@QAE@ABU01@@Z 0041db00 f i Client.obj
 0001:0001cb30       ??0?$_Iterator012@Urandom_access_iterator_tag@std@@Ust_charquest@CClient@@HPBU34@ABU34@U_Iterator_base12@2@@std@@QAE@XZ 0041db30 f i Client.obj
 0001:0001cb60       ??0?$_Iterator012@Urandom_access_iterator_tag@std@@V?$basic_string@DU?$char_traits@D@std@@V?$allocator@D@2@@2@HPBV32@ABV32@U_Iterator_base12@2@@std@@QAE@XZ 0041db60 f i Client.obj
 0001:0001cb90       ??0?$_String_const_iterator@V?$_String_val@U?$_Simple_types@D@std@@@std@@@std@@QAE@PBDPBU_Container_base12@1@@Z 0041db90 f i Client.obj
 0001:0001cc20       ??0?$_String_iterator@V?$_String_val@U?$_Simple_types@D@std@@@std@@@std@@QAE@PADPBU_Container_base12@1@@Z 0041dc20 f i Client.obj
 0001:0001cc60       ??0?$_Vector_alloc@$0A@U?$_Vec_base_types@Ust_charquest@CClient@@V?$allocator@Ust_charquest@CClient@@@std@@@std@@@std@@QAE@ABV?$allocator@Ust_charquest@CClient@@@1@@Z 0041dc60 f i Client.obj
 0001:0001cce0       ??0?$_Vector_alloc@$0A@U?$_Vec_base_types@V?$basic_string@DU?$char_traits@D@std@@V?$allocator@D@2@@std@@V?$allocator@V?$basic_string@DU?$char_traits@D@std@@V?$allocator@D@2@@std@@@2@@std@@@std@@QAE@ABV?$allocator@V?$basic_string@DU?$char_traits@D@std@@V?$allocator@D@2@@std@@@1@@Z 0041dce0 f i Client.obj
 0001:0001cd60       ??0?$_Vector_const_iterator@V?$_Vector_val@U?$_Simple_types@Ust_charquest@CClient@@@std@@@std@@@std@@QAE@ABV01@@Z 0041dd60 f i Client.obj
 0001:0001cda0       ??0?$_Vector_const_iterator@V?$_Vector_val@U?$_Simple_types@Ust_charquest@CClient@@@std@@@std@@@std@@QAE@PAUst_charquest@CClient@@PBU_Container_base12@1@@Z 0041dda0 f i Client.obj
 0001:0001ce30       ??0?$_Vector_const_iterator@V?$_Vector_val@U?$_Simple_types@V?$basic_string@DU?$char_traits@D@std@@V?$allocator@D@2@@std@@@std@@@std@@@std@@QAE@PAV?$basic_string@DU?$char_traits@D@std@@V?$allocator@D@2@@1@PBU_Container_base12@1@@Z 0041de30 f i Client.obj
 0001:0001cec0       ??0?$_Vector_iterator@V?$_Vector_val@U?$_Simple_types@Ust_charquest@CClient@@@std@@@std@@@std@@QAE@ABV01@@Z 0041dec0 f i Client.obj
 0001:0001cef0       ??0?$_Vector_iterator@V?$_Vector_val@U?$_Simple_types@Ust_charquest@CClient@@@std@@@std@@@std@@QAE@PAUst_charquest@CClient@@PBU_Container_base12@1@@Z 0041def0 f i Client.obj
 0001:0001cf30       ??0?$_Vector_iterator@V?$_Vector_val@U?$_Simple_types@V?$basic_string@DU?$char_traits@D@std@@V?$allocator@D@2@@std@@@std@@@std@@@std@@QAE@PAV?$basic_string@DU?$char_traits@D@std@@V?$allocator@D@2@@1@PBU_Container_base12@1@@Z 0041df30 f i Client.obj
 0001:0001cf70       ??0?$_Vector_val@U?$_Simple_types@Ust_charquest@CClient@@@std@@@std@@QAE@XZ 0041df70 f i Client.obj
 0001:0001cfc0       ??0?$_Vector_val@U?$_Simple_types@V?$basic_string@DU?$char_traits@D@std@@V?$allocator@D@2@@std@@@std@@@std@@QAE@XZ 0041dfc0 f i Client.obj
 0001:0001d010       ??0?$_Wrap_alloc@V?$allocator@U_Container_proxy@std@@@std@@@std@@QAE@XZ 0041e010 f i Client.obj
 0001:0001d040       ??0?$_Wrap_alloc@V?$allocator@Ust_charquest@CClient@@@std@@@std@@QAE@XZ 0041e040 f i Client.obj
 0001:0001d070       ??0?$_Wrap_alloc@V?$allocator@V?$basic_string@DU?$char_traits@D@std@@V?$allocator@D@2@@std@@@std@@@std@@QAE@XZ 0041e070 f i Client.obj
 0001:0001d0a0       ??0?$allocator@Ust_charquest@CClient@@@std@@QAE@XZ 0041e0a0 f i Client.obj
 0001:0001d0c0       ??0?$allocator@V?$basic_string@DU?$char_traits@D@std@@V?$allocator@D@2@@std@@@std@@QAE@XZ 0041e0c0 f i Client.obj
 0001:0001d0e0       ??0?$basic_filebuf@DU?$char_traits@D@std@@@std@@QAE@PAU_iobuf@@@Z 0041e0e0 f i Client.obj
 0001:0001d170       ??0?$basic_ifstream@DU?$char_traits@D@std@@@std@@QAE@ABV?$basic_string@DU?$char_traits@D@std@@V?$allocator@D@2@@1@HH@Z 0041e170 f i Client.obj
 0001:0001d2c0       ??0?$basic_ios@DU?$char_traits@D@std@@@std@@IAE@XZ 0041e2c0 f i Client.obj
 0001:0001d2f0       ??0?$basic_istream@DU?$char_traits@D@std@@@std@@QAE@PAV?$basic_streambuf@DU?$char_traits@D@std@@@1@_N@Z 0041e2f0 f i Client.obj
 0001:0001d400       ??0?$basic_streambuf@DU?$char_traits@D@std@@@std@@IAE@XZ 0041e400 f i Client.obj
 0001:0001d480       ??0?$basic_string@DU?$char_traits@D@std@@V?$allocator@D@2@@std@@QAE@ID@Z 0041e480 f i Client.obj
 0001:0001d520       ??0?$basic_string@DU?$char_traits@D@std@@V?$allocator@D@2@@std@@QAE@XZ 0041e520 f i Client.obj
 0001:0001d5b0       ??0?$codecvt@DDH@std@@QAE@ABV_Locinfo@1@I@Z 0041e5b0 f i Client.obj
 0001:0001d640       ??0?$fpos@H@std@@QAE@H_J@Z 0041e640 f i Client.obj
 0001:0001d690       ??0?$fpos@H@std@@QAE@_J@Z  0041e690 f i Client.obj
 0001:0001d6f0       ??0?$num_put@DV?$ostreambuf_iterator@DU?$char_traits@D@std@@@std@@@std@@QAE@ABV_Locinfo@1@I@Z 0041e6f0 f i Client.obj
 0001:0001d780       ??0?$numpunct@D@std@@QAE@ABV_Locinfo@1@I_N@Z 0041e780 f i Client.obj
 0001:0001d820       ??0?$ostreambuf_iterator@DU?$char_traits@D@std@@@std@@QAE@PAV?$basic_streambuf@DU?$char_traits@D@std@@@1@@Z 0041e820 f i Client.obj
 0001:0001d850       ??0?$tuple@$$$V@std@@QAE@ABV01@@Z 0041e850 f i Client.obj
 0001:0001d870       ??0?$tuple@$$$V@std@@QAE@XZ 0041e870 f i Client.obj
 0001:0001d890       ??0?$vector@Ust_charquest@CClient@@V?$allocator@Ust_charquest@CClient@@@std@@@std@@QAE@XZ 0041e890 f i Client.obj
 0001:0001d8c0       ??0?$vector@V?$basic_string@DU?$char_traits@D@std@@V?$allocator@D@2@@std@@V?$allocator@V?$basic_string@DU?$char_traits@D@std@@V?$allocator@D@2@@std@@@2@@std@@QAE@XZ 0041e8c0 f i Client.obj
 0001:0001d8f0       ??0CClient@@QAE@PAUHWND__@@H@Z 0041e8f0 f   Client.obj
 0001:0001f300       ??0_Iterator_base12@std@@QAE@ABU01@@Z 00420300 f i Client.obj
 0001:0001f350       ??0_Iterator_base12@std@@QAE@XZ 00420350 f i Client.obj
 0001:0001f390       ??0_Sentry_base@?$basic_istream@DU?$char_traits@D@std@@@std@@QAE@AAV12@@Z 00420390 f i Client.obj
 0001:0001f410       ??0codecvt_base@std@@QAE@I@Z 00420410 f i Client.obj
 0001:0001f450       ??0ios_base@std@@IAE@XZ    00420450 f i Client.obj
 0001:0001f480       ??0locale@std@@QAE@XZ      00420480 f i Client.obj
 0001:0001f4b0       ??0sentry@?$basic_istream@DU?$char_traits@D@std@@@std@@QAE@AAV12@_N@Z 004204b0 f i Client.obj
 0001:0001f540       ??0st_charquest@CClient@@QAE@XZ 00420540 f i Client.obj
 0001:0001f560       ??1?$_Iterator012@Urandom_access_iterator_tag@std@@DHPBDABDU_Iterator_base12@2@@std@@QAE@XZ 00420560 f i Client.obj
 0001:0001f590       ??1?$_Iterator012@Urandom_access_iterator_tag@std@@Ust_charquest@CClient@@HPBU34@ABU34@U_Iterator_base12@2@@std@@QAE@XZ 00420590 f i Client.obj
 0001:0001f5c0       ??1?$_Iterator012@Urandom_access_iterator_tag@std@@V?$basic_string@DU?$char_traits@D@std@@V?$allocator@D@2@@2@HPBV32@ABV32@U_Iterator_base12@2@@std@@QAE@XZ 004205c0 f i Client.obj
 0001:0001f5f0       ??1?$_LaunchPad@V?$_Bind@$0A@XV<lambda_d6f1c9119fbc315a7d806e1c05d81231>@@$$$V@std@@@std@@QAE@XZ 004205f0 f i Client.obj
 0001:0001f620       ??1?$_String_const_iterator@V?$_String_val@U?$_Simple_types@D@std@@@std@@@std@@QAE@XZ 00420620 f i Client.obj
 0001:0001f650       ??1?$_String_iterator@V?$_String_val@U?$_Simple_types@D@std@@@std@@@std@@QAE@XZ 00420650 f i Client.obj
 0001:0001f680       ??1?$_Vector_alloc@$0A@U?$_Vec_base_types@Ust_charquest@CClient@@V?$allocator@Ust_charquest@CClient@@@std@@@std@@@std@@QAE@XZ 00420680 f i Client.obj
 0001:0001f6b0       ??1?$_Vector_alloc@$0A@U?$_Vec_base_types@V?$basic_string@DU?$char_traits@D@std@@V?$allocator@D@2@@std@@V?$allocator@V?$basic_string@DU?$char_traits@D@std@@V?$allocator@D@2@@std@@@2@@std@@@std@@QAE@XZ 004206b0 f i Client.obj
 0001:0001f6e0       ??1?$_Vector_const_iterator@V?$_Vector_val@U?$_Simple_types@Ust_charquest@CClient@@@std@@@std@@@std@@QAE@XZ 004206e0 f i Client.obj
 0001:0001f710       ??1?$_Vector_const_iterator@V?$_Vector_val@U?$_Simple_types@V?$basic_string@DU?$char_traits@D@std@@V?$allocator@D@2@@std@@@std@@@std@@@std@@QAE@XZ 00420710 f i Client.obj
 0001:0001f740       ??1?$_Vector_iterator@V?$_Vector_val@U?$_Simple_types@Ust_charquest@CClient@@@std@@@std@@@std@@QAE@XZ 00420740 f i Client.obj
 0001:0001f770       ??1?$_Vector_iterator@V?$_Vector_val@U?$_Simple_types@V?$basic_string@DU?$char_traits@D@std@@V?$allocator@D@2@@std@@@std@@@std@@@std@@QAE@XZ 00420770 f i Client.obj
 0001:0001f7a0       ??1?$_Vector_val@U?$_Simple_types@Ust_charquest@CClient@@@std@@@std@@QAE@XZ 004207a0 f i Client.obj
 0001:0001f7d0       ??1?$_Vector_val@U?$_Simple_types@V?$basic_string@DU?$char_traits@D@std@@V?$allocator@D@2@@std@@@std@@@std@@QAE@XZ 004207d0 f i Client.obj
 0001:0001f800       ??1?$basic_filebuf@DU?$char_traits@D@std@@@std@@UAE@XZ 00420800 f i Client.obj
 0001:0001f860       ??1?$basic_ifstream@DU?$char_traits@D@std@@@std@@UAE@XZ 00420860 f i Client.obj
 0001:0001f8d0       ??1?$basic_ios@DU?$char_traits@D@std@@@std@@UAE@XZ 004208d0 f i Client.obj
 0001:0001f900       ??1?$basic_istream@DU?$char_traits@D@std@@@std@@UAE@XZ 00420900 f i Client.obj
 0001:0001f960       ??1?$basic_streambuf@DU?$char_traits@D@std@@@std@@UAE@XZ 00420960 f i Client.obj
 0001:0001f9a0       ??1?$codecvt@DDH@std@@MAE@XZ 004209a0 f i Client.obj
 0001:0001f9d0       ??1?$num_put@DV?$ostreambuf_iterator@DU?$char_traits@D@std@@@std@@@std@@MAE@XZ 004209d0 f i Client.obj
 0001:0001fa00       ??1?$numpunct@D@std@@MAE@XZ 00420a00 f i Client.obj
 0001:0001fa40       ??1?$vector@Ust_charquest@CClient@@V?$allocator@Ust_charquest@CClient@@@std@@@std@@QAE@XZ 00420a40 f i Client.obj
 0001:0001fa70       ??1?$vector@V?$basic_string@DU?$char_traits@D@std@@V?$allocator@D@2@@std@@V?$allocator@V?$basic_string@DU?$char_traits@D@std@@V?$allocator@D@2@@std@@@2@@std@@QAE@XZ 00420a70 f i Client.obj
 0001:0001faa0       ??1CClient@@UAE@XZ         00420aa0 f   Client.obj
 0001:0001fd80       ??1_Iterator_base12@std@@QAE@XZ 00420d80 f i Client.obj
 0001:0001fdc0       ??1_Sentry_base@?$basic_istream@DU?$char_traits@D@std@@@std@@QAE@XZ 00420dc0 f i Client.obj
 0001:0001fe30       ??1codecvt_base@std@@UAE@XZ 00420e30 f i Client.obj
 0001:0001fe60       ??1ios_base@std@@UAE@XZ    00420e60 f i Client.obj
 0001:0001fea0       ??1sentry@?$basic_istream@DU?$char_traits@D@std@@@std@@QAE@XZ 00420ea0 f i Client.obj
 0001:0001fed0       ??1thread@std@@QAE@XZ      00420ed0 f i Client.obj
 0001:0001ff00       ??4?$basic_string@DU?$char_traits@D@std@@V?$allocator@D@2@@std@@QAEAAV01@ABV01@@Z 00420f00 f i Client.obj
 0001:0001ffa0       ??4?$ostreambuf_iterator@DU?$char_traits@D@std@@@std@@QAEAAV01@D@Z 00420fa0 f i Client.obj
 0001:00020010       ??4_Iterator_base12@std@@QAEAAU01@ABU01@@Z 00421010 f i Client.obj
 0001:000200d0       ??6?$basic_ostream@DU?$char_traits@D@std@@@std@@QAEAAV01@H@Z 004210d0 f i Client.obj
 0001:00020370       ??8?$_Vector_const_iterator@V?$_Vector_val@U?$_Simple_types@V?$basic_string@DU?$char_traits@D@std@@V?$allocator@D@2@@std@@@std@@@std@@@std@@QBE_NABV01@@Z 00421370 f i Client.obj
 0001:000203d0       ??9?$_Vector_const_iterator@V?$_Vector_val@U?$_Simple_types@V?$basic_string@DU?$char_traits@D@std@@V?$allocator@D@2@@std@@@std@@@std@@@std@@QBE_NABV01@@Z 004213d0 f i Client.obj
 0001:00020420       ??A?$basic_string@DU?$char_traits@D@std@@V?$allocator@D@2@@std@@QAEAADI@Z 00421420 f i Client.obj
 0001:00020480       ??A?$basic_string@DU?$char_traits@D@std@@V?$allocator@D@2@@std@@QBEABDI@Z 00421480 f i Client.obj
 0001:000204e0       ??A?$vector@Ust_charquest@CClient@@V?$allocator@Ust_charquest@CClient@@@std@@@std@@QAEAAUst_charquest@CClient@@I@Z 004214e0 f i Client.obj
 0001:000205a0       ??B?$fpos@H@std@@QBE_JXZ   004215a0 f i Client.obj
 0001:000205e0       ??Bios_base@std@@QBE_NXZ   004215e0 f i Client.obj
 0001:00020630       ??Bsentry@?$basic_istream@DU?$char_traits@D@std@@@std@@QBE_NXZ 00421630 f i Client.obj
 0001:00020650       ??D?$_String_const_iterator@V?$_String_val@U?$_Simple_types@D@std@@@std@@@std@@QBEABDXZ 00421650 f i Client.obj
 0001:00020750       ??D?$_String_iterator@V?$_String_val@U?$_Simple_types@D@std@@@std@@@std@@QBEAADXZ 00421750 f i Client.obj
 0001:00020780       ??D?$_Vector_const_iterator@V?$_Vector_val@U?$_Simple_types@V?$basic_string@DU?$char_traits@D@std@@V?$allocator@D@2@@std@@@std@@@std@@@std@@QBEABV?$basic_string@DU?$char_traits@D@std@@V?$allocator@D@2@@1@XZ 00421780 f i Client.obj
 0001:00020860       ??D?$_Vector_iterator@V?$_Vector_val@U?$_Simple_types@V?$basic_string@DU?$char_traits@D@std@@V?$allocator@D@2@@std@@@std@@@std@@@std@@QBEAAV?$basic_string@DU?$char_traits@D@std@@V?$allocator@D@2@@1@XZ 00421860 f i Client.obj
 0001:00020890       ??D?$ostreambuf_iterator@DU?$char_traits@D@std@@@std@@QAEAAV01@XZ 00421890 f i Client.obj
 0001:000208b0       ??E?$_Vector_const_iterator@V?$_Vector_val@U?$_Simple_types@V?$basic_string@DU?$char_traits@D@std@@V?$allocator@D@2@@std@@@std@@@std@@@std@@QAEAAV01@XZ 004218b0 f i Client.obj
 0001:00020990       ??E?$_Vector_iterator@V?$_Vector_val@U?$_Simple_types@V?$basic_string@DU?$char_traits@D@std@@V?$allocator@D@2@@std@@@std@@@std@@@std@@QAEAAV01@XZ 00421990 f i Client.obj
 0001:000209c0       ??E?$ostreambuf_iterator@DU?$char_traits@D@std@@@std@@QAEAAV01@XZ 004219c0 f i Client.obj
 0001:000209e0       ??H?$_Vector_iterator@V?$_Vector_val@U?$_Simple_types@Ust_charquest@CClient@@@std@@@std@@@std@@QBE?AV01@H@Z 004219e0 f i Client.obj
 0001:00020ac0       ??Y?$_Vector_const_iterator@V?$_Vector_val@U?$_Simple_types@Ust_charquest@CClient@@@std@@@std@@@std@@QAEAAV01@H@Z 00421ac0 f i Client.obj
 0001:00020bd0       ??Y?$_Vector_iterator@V?$_Vector_val@U?$_Simple_types@Ust_charquest@CClient@@@std@@@std@@@std@@QAEAAV01@H@Z 00421bd0 f i Client.obj
 0001:00020c00       ??Y?$basic_string@DU?$char_traits@D@std@@V?$allocator@D@2@@std@@QAEAAV01@D@Z 00421c00 f i Client.obj
 0001:00020c30       ??_D?$basic_ifstream@DU?$char_traits@D@std@@@std@@QAEXXZ 00421c30 f i Client.obj
 0001:00020c70       ??_D?$basic_istream@DU?$char_traits@D@std@@@std@@QAEXXZ 00421c70 f i Client.obj
 0001:00020ca3       ??_E?$basic_ifstream@DU?$char_traits@D@std@@@std@@$4PPPPPPPM@A@AEPAXI@Z 00421ca3 f i Client.obj
 0001:00020cad       ??_E?$basic_istream@DU?$char_traits@D@std@@@std@@$4PPPPPPPM@A@AEPAXI@Z 00421cad f i Client.obj
 0001:00020cc0       ??_G?$basic_filebuf@DU?$char_traits@D@std@@@std@@UAEPAXI@Z 00421cc0 f i Client.obj
 0001:00020cc0       ??_E?$basic_filebuf@DU?$char_traits@D@std@@@std@@UAEPAXI@Z 00421cc0 f i Client.obj
 0001:00020d10       ??_G?$basic_ifstream@DU?$char_traits@D@std@@@std@@UAEPAXI@Z 00421d10 f i Client.obj
 0001:00020d10       ??_E?$basic_ifstream@DU?$char_traits@D@std@@@std@@UAEPAXI@Z 00421d10 f i Client.obj
 0001:00020d60       ??_E?$basic_ios@DU?$char_traits@D@std@@@std@@UAEPAXI@Z 00421d60 f i Client.obj
 0001:00020d60       ??_G?$basic_ios@DU?$char_traits@D@std@@@std@@UAEPAXI@Z 00421d60 f i Client.obj
 0001:00020db0       ??_G?$basic_istream@DU?$char_traits@D@std@@@std@@UAEPAXI@Z 00421db0 f i Client.obj
 0001:00020db0       ??_E?$basic_istream@DU?$char_traits@D@std@@@std@@UAEPAXI@Z 00421db0 f i Client.obj
 0001:00020e00       ??_G?$basic_streambuf@DU?$char_traits@D@std@@@std@@UAEPAXI@Z 00421e00 f i Client.obj
 0001:00020e00       ??_E?$basic_streambuf@DU?$char_traits@D@std@@@std@@UAEPAXI@Z 00421e00 f i Client.obj
 0001:00020e50       ??_G?$basic_string@DU?$char_traits@D@std@@V?$allocator@D@2@@std@@QAEPAXI@Z 00421e50 f i Client.obj
 0001:00020ea0       ??_E?$codecvt@DDH@std@@MAEPAXI@Z 00421ea0 f i Client.obj
 0001:00020ea0       ??_G?$codecvt@DDH@std@@MAEPAXI@Z 00421ea0 f i Client.obj
 0001:00020ef0       ??_E?$num_put@DV?$ostreambuf_iterator@DU?$char_traits@D@std@@@std@@@std@@MAEPAXI@Z 00421ef0 f i Client.obj
 0001:00020ef0       ??_G?$num_put@DV?$ostreambuf_iterator@DU?$char_traits@D@std@@@std@@@std@@MAEPAXI@Z 00421ef0 f i Client.obj
 0001:00020f40       ??_E?$numpunct@D@std@@MAEPAXI@Z 00421f40 f i Client.obj
 0001:00020f40       ??_G?$numpunct@D@std@@MAEPAXI@Z 00421f40 f i Client.obj
 0001:00020f90       ??_GCClient@@UAEPAXI@Z     00421f90 f i Client.obj
 0001:00020f90       ??_ECClient@@UAEPAXI@Z     00421f90 f i Client.obj
 0001:00020fe0       ??_Ecodecvt_base@std@@UAEPAXI@Z 00421fe0 f i Client.obj
 0001:00020fe0       ??_Gcodecvt_base@std@@UAEPAXI@Z 00421fe0 f i Client.obj
 0001:00021030       ??_Eios_base@std@@UAEPAXI@Z 00422030 f i Client.obj
 0001:00021030       ??_Gios_base@std@@UAEPAXI@Z 00422030 f i Client.obj
 0001:00021080       ??_Glocale@std@@QAEPAXI@Z  00422080 f i Client.obj
 0001:000210d0       ?AsignSocket@CClient@@QAEXPAUHWND__@@@Z 004220d0 f   Client.obj
 0001:000211c0       ?CreateItem@CClient@@QAEXPAD@Z 004221c0 f   Client.obj
 0001:00021a90       ?EnableItem@CClient@@QAEXC@Z 00422a90 f   Client.obj
 0001:00021b20       ?Get@Handler@Event@@QAEPAV2@W4EventID@@@Z 00422b20 f i Client.obj
 0001:00021b50       ?GetDex@CClient@@QAEHXZ    00422b50 f   Client.obj
 0001:00021b90       ?GetInt@CClient@@QAEHXZ    00422b90 f   Client.obj
 0001:00021bd0       ?GetInt@CClient@@QBEHXZ    00422bd0 f i Client.obj
 0001:00021c00       ?GetMag@CClient@@QAEHXZ    00422c00 f   Client.obj
 0001:00021c40       ?GetMag@CClient@@QBEHXZ    00422c40 f i Client.obj
 0001:00021c70       ?GetMaxMP@CClient@@QBEHXZ  00422c70 f   Client.obj
 0001:00021cc0       ?GetMaxSP@CClient@@QBEHXZ  00422cc0 f   Client.obj
 0001:00021d00       ?GetStr@CClient@@QAEHXZ    00422d00 f   Client.obj
 0001:00021d40       ?GetStr@CClient@@QBEHXZ    00422d40 f i Client.obj
 0001:00021d70       ?GetVit@CClient@@QAEHXZ    00422d70 f   Client.obj
 0001:00021db0       ?GetWearedItemIndex@CClient@@QAEFH@Z 00422db0 f   Client.obj
 0001:00021de0       ?GetWearedItemIndex@CClient@@QAEHF@Z 00422de0 f   Client.obj
 0001:00021e90       ?Is@Handler@Event@@QAE_NW4EventID@@@Z 00422e90 f i Client.obj
 0001:00021ee0       ?IsInMap@CClient@@QAE_NPAD@Z 00422ee0 f   Client.obj
 0001:00021fa0       ?IsInsideCh@CClient@@QAE_NXZ 00422fa0 f   Client.obj
 0001:00022020       ?IsInsideDM@CClient@@QAE_NXZ 00423020 f   Client.obj
 0001:00022090       ?IsLimboMap@CClient@@QAE_NXZ 00423090 f   Client.obj
 0001:00022250       ?IsLocation@CClient@@QAE_NPAD@Z 00423250 f   Client.obj
 0001:00022310       ?Notify@CClient@@QAEXGKKKPADKKKKKK0D@Z 00423310 f   Client.obj
 0001:00022410       ?ResetClient@CClient@@QAEXXZ 00423410 f   Client.obj
 0001:00023900       ?Send@CClient@@QAEXHGKKKPADKKKKKK0@Z 00424900 f   Client.obj
 0001:00023970       ?WearingItem@CClient@@QAE_NF@Z 00424970 f   Client.obj
 0001:000239b0       ?WearingItem@CClient@@QAE_NFH@Z 004249b0 f   Client.obj
 0001:00023a30       ?_Adopt@_Iterator_base12@std@@QAEXPBU_Container_base12@2@@Z 00424a30 f i Client.obj
 0001:00023b30       ?_Alloc_proxy@?$_Vector_alloc@$0A@U?$_Vec_base_types@Ust_charquest@CClient@@V?$allocator@Ust_charquest@CClient@@@std@@@std@@@std@@QAEXXZ 00424b30 f i Client.obj
 0001:00023b90       ?_Alloc_proxy@?$_Vector_alloc@$0A@U?$_Vec_base_types@V?$basic_string@DU?$char_traits@D@std@@V?$allocator@D@2@@std@@V?$allocator@V?$basic_string@DU?$char_traits@D@std@@V?$allocator@D@2@@std@@@2@@std@@@std@@QAEXXZ 00424b90 f i Client.obj
 0001:00023bf0       ?_Change_alloc@?$_String_alloc@$0A@U?$_String_base_types@DV?$allocator@D@std@@@std@@@std@@QAEXABU?$_Wrap_alloc@V?$allocator@D@std@@@2@@Z 00424bf0 f i Client.obj
 0001:00023c10       ?_Chassign@?$basic_string@DU?$char_traits@D@std@@V?$allocator@D@2@@std@@QAEXIID@Z 00424c10 f i Client.obj
 0001:00023c80       ?_Check_C_return@std@@YAHH@Z 00424c80 f i Client.obj
 0001:00023cb0       ?_Clrcont@_Iterator_base12@std@@QAEXXZ 00424cb0 f i Client.obj
 0001:00023ce0       ?_Compat@?$_Vector_const_iterator@V?$_Vector_val@U?$_Simple_types@V?$basic_string@DU?$char_traits@D@std@@V?$allocator@D@2@@std@@@std@@@std@@@std@@QBEXABV12@@Z 00424ce0 f i Client.obj
 0001:00023db0       ?_Destroy@?$vector@Ust_charquest@CClient@@V?$allocator@Ust_charquest@CClient@@@std@@@std@@IAEXPAUst_charquest@CClient@@0@Z 00424db0 f i Client.obj
 0001:00023e00       ?_Destroy@?$vector@V?$basic_string@DU?$char_traits@D@std@@V?$allocator@D@2@@std@@V?$allocator@V?$basic_string@DU?$char_traits@D@std@@V?$allocator@D@2@@std@@@2@@std@@IAEXPAV?$basic_string@DU?$char_traits@D@std@@V?$allocator@D@2@@2@0@Z 00424e00 f i Client.obj
 0001:00023e50       ?_Endwrite@?$basic_filebuf@DU?$char_traits@D@std@@@std@@IAE_NXZ 00424e50 f i Client.obj
 0001:00024280       ?_Ffmt@?$num_put@DV?$ostreambuf_iterator@DU?$char_traits@D@std@@@std@@@std@@ABAPADPADDH@Z 00425280 f i Client.obj
 0001:00024420       ?_Fput@?$num_put@DV?$ostreambuf_iterator@DU?$char_traits@D@std@@@std@@@std@@ABA?AV?$ostreambuf_iterator@DU?$char_traits@D@std@@@2@V32@AAVios_base@2@DPBDIIII@Z 00425420 f i Client.obj
 0001:00024b10       ?_Free_proxy@?$_Vector_alloc@$0A@U?$_Vec_base_types@Ust_charquest@CClient@@V?$allocator@Ust_charquest@CClient@@@std@@@std@@@std@@QAEXXZ 00425b10 f i Client.obj
 0001:00024b70       ?_Free_proxy@?$_Vector_alloc@$0A@U?$_Vec_base_types@V?$basic_string@DU?$char_traits@D@std@@V?$allocator@D@2@@std@@V?$allocator@V?$basic_string@DU?$char_traits@D@std@@V?$allocator@D@2@@std@@@2@@std@@@std@@QAEXXZ 00425b70 f i Client.obj
 0001:00024bd0       ?_Getal@?$_Vector_alloc@$0A@U?$_Vec_base_types@Ust_charquest@CClient@@V?$allocator@Ust_charquest@CClient@@@std@@@std@@@std@@QBE?AU?$_Wrap_alloc@V?$allocator@Ust_charquest@CClient@@@std@@@2@XZ 00425bd0 f i Client.obj
 0001:00024c00       ?_Getal@?$_Vector_alloc@$0A@U?$_Vec_base_types@V?$basic_string@DU?$char_traits@D@std@@V?$allocator@D@2@@std@@V?$allocator@V?$basic_string@DU?$char_traits@D@std@@V?$allocator@D@2@@std@@@2@@std@@@std@@QBE?AU?$_Wrap_alloc@V?$allocator@V?$basic_string@DU?$char_traits@D@std@@V?$allocator@D@2@@std@@@std@@@2@XZ 00425c00 f i Client.obj
 0001:00024c30       ?_Getcat@?$codecvt@DDH@std@@SAIPAPBVfacet@locale@2@PBV42@@Z 00425c30 f i Client.obj
 0001:00024db0       ?_Getcat@?$num_put@DV?$ostreambuf_iterator@DU?$char_traits@D@std@@@std@@@std@@SAIPAPBVfacet@locale@2@PBV42@@Z 00425db0 f i Client.obj
 0001:00024f30       ?_Getcat@?$numpunct@D@std@@SAIPAPBVfacet@locale@2@PBV42@@Z 00425f30 f i Client.obj
 0001:000250b0       ?_Getcont@_Iterator_base12@std@@QBEPBU_Container_base12@2@XZ 004260b0 f i Client.obj
 0001:000250f0       ?_Getcvt@_Locinfo@std@@QBE?AU_Cvtvec@@XZ 004260f0 f i Client.obj
 0001:00025160       ?_Getfalse@_Locinfo@std@@QBEPBDXZ 00426160 f i Client.obj
 0001:00025180       ?_Getlconv@_Locinfo@std@@QBEPBUlconv@@XZ 00426180 f i Client.obj
 0001:000251a0       ?_Getpfirst@_Container_base12@std@@QBEPAPAU_Iterator_base12@2@XZ 004261a0 f i Client.obj
 0001:000251e0       ?_Getpnext@_Iterator_base12@std@@QAEPAPAU12@XZ 004261e0 f i Client.obj
 0001:00025200       ?_Gettrue@_Locinfo@std@@QBEPBDXZ 00426200 f i Client.obj
 0001:00025220       ?_Gnavail@?$basic_streambuf@DU?$char_traits@D@std@@@std@@IBE_JXZ 00426220 f i Client.obj
 0001:00025270       ?_Gndec@?$basic_streambuf@DU?$char_traits@D@std@@@std@@IAEPADXZ 00426270 f i Client.obj
 0001:000252d0       ?_Gninc@?$basic_streambuf@DU?$char_traits@D@std@@@std@@IAEPADXZ 004262d0 f i Client.obj
 0001:00025330       ?_Gnpreinc@?$basic_streambuf@DU?$char_traits@D@std@@@std@@IAEPADXZ 00426330 f i Client.obj
 0001:00025390       ?_Go@?$_LaunchPad@V?$_Bind@$0A@XV<lambda_d6f1c9119fbc315a7d806e1c05d81231>@@$$$V@std@@@std@@UAEIXZ 00426390 f i Client.obj
 0001:000253c0       ?_Grow_to@?$vector@Ust_charquest@CClient@@V?$allocator@Ust_charquest@CClient@@@std@@@std@@IBEII@Z 004263c0 f i Client.obj
 0001:00025440       ?_Grow_to@?$vector@V?$basic_string@DU?$char_traits@D@std@@V?$allocator@D@2@@std@@V?$allocator@V?$basic_string@DU?$char_traits@D@std@@V?$allocator@D@2@@std@@@2@@std@@IBEII@Z 00426440 f i Client.obj
 0001:000254c0       ?_Ifmt@?$num_put@DV?$ostreambuf_iterator@DU?$char_traits@D@std@@@std@@@std@@ABAPADPADPBDH@Z 004264c0 f i Client.obj
 0001:00025630       ?_Init@?$basic_filebuf@DU?$char_traits@D@std@@@std@@IAEXPAU_iobuf@@W4_Initfl@12@@Z 00426630 f i Client.obj
 0001:00025710       ?_Init@?$basic_streambuf@DU?$char_traits@D@std@@@std@@IAEXPAPAD0PAH001@Z 00426710 f i Client.obj
 0001:00025770       ?_Init@?$basic_streambuf@DU?$char_traits@D@std@@@std@@IAEXXZ 00426770 f i Client.obj
 0001:00025810       ?_Init@?$codecvt@DDH@std@@IAEXABV_Locinfo@2@@Z 00426810 f i Client.obj
 0001:00025830       ?_Init@?$num_put@DV?$ostreambuf_iterator@DU?$char_traits@D@std@@@std@@@std@@IAEXABV_Locinfo@2@@Z 00426830 f i Client.obj
 0001:00025850       ?_Init@?$numpunct@D@std@@IAEXABV_Locinfo@2@_N@Z 00426850 f i Client.obj
 0001:00025aa0       ?_Init@ios_base@std@@IAEXXZ 00426aa0 f i Client.obj
 0001:00025b90       ?_Initcvt@?$basic_filebuf@DU?$char_traits@D@std@@@std@@IAEXPBV?$codecvt@DDH@2@@Z 00426b90 f i Client.obj
 0001:00025bf0       ?_Inside@?$vector@Ust_charquest@CClient@@V?$allocator@Ust_charquest@CClient@@@std@@@std@@IBE_NPBUst_charquest@CClient@@@Z 00426bf0 f i Client.obj
 0001:00025c40       ?_Inside@?$vector@V?$basic_string@DU?$char_traits@D@std@@V?$allocator@D@2@@std@@V?$allocator@V?$basic_string@DU?$char_traits@D@std@@V?$allocator@D@2@@std@@@2@@std@@IBE_NPBV?$basic_string@DU?$char_traits@D@std@@V?$allocator@D@2@@2@@Z 00426c40 f i Client.obj
 0001:00025c90       ?_Ipfx@?$basic_istream@DU?$char_traits@D@std@@@std@@QAE_N_N@Z 00426c90 f i Client.obj
 0001:00025f30       ?_Iput@?$num_put@DV?$ostreambuf_iterator@DU?$char_traits@D@std@@@std@@@std@@ABA?AV?$ostreambuf_iterator@DU?$char_traits@D@std@@@2@V32@AAVios_base@2@DPADI@Z 00426f30 f i Client.obj
 0001:000264e0       ?_Lock@?$basic_filebuf@DU?$char_traits@D@std@@@std@@UAEXXZ 004274e0 f i Client.obj
 0001:00026520       ?_Lock@?$basic_streambuf@DU?$char_traits@D@std@@@std@@UAEXXZ 00427520 f i Client.obj
 0001:00026540       ?_Make_iter@?$vector@Ust_charquest@CClient@@V?$allocator@Ust_charquest@CClient@@@std@@@std@@QBE?AV?$_Vector_iterator@V?$_Vector_val@U?$_Simple_types@Ust_charquest@CClient@@@std@@@std@@@2@V?$_Vector_const_iterator@V?$_Vector_val@U?$_Simple_types@Ust_charquest@CClient@@@std@@@std@@@2@@Z 00427540 f i Client.obj
 0001:000265e0       ?_Orphan_me@_Iterator_base12@std@@QAEXXZ 004275e0 f i Client.obj
 0001:00026680       ?_Orphan_range@?$vector@Ust_charquest@CClient@@V?$allocator@Ust_charquest@CClient@@@std@@@std@@IBEXPAUst_charquest@CClient@@0@Z 00427680 f i Client.obj
 0001:00026770       ?_Orphan_range@?$vector@V?$basic_string@DU?$char_traits@D@std@@V?$allocator@D@2@@std@@V?$allocator@V?$basic_string@DU?$char_traits@D@std@@V?$allocator@D@2@@std@@@2@@std@@IBEXPAV?$basic_string@DU?$char_traits@D@std@@V?$allocator@D@2@@2@0@Z 00427770 f i Client.obj
 0001:00026860       ?_Put@?$num_put@DV?$ostreambuf_iterator@DU?$char_traits@D@std@@@std@@@std@@ABA?AV?$ostreambuf_iterator@DU?$char_traits@D@std@@@2@V32@PBDI@Z 00427860 f i Client.obj
 0001:000268e0       ?_Reallocate@?$vector@Ust_charquest@CClient@@V?$allocator@Ust_charquest@CClient@@@std@@@std@@IAEXI@Z 004278e0 f i Client.obj
 0001:00026a80       ?_Reallocate@?$vector@V?$basic_string@DU?$char_traits@D@std@@V?$allocator@D@2@@std@@V?$allocator@V?$basic_string@DU?$char_traits@D@std@@V?$allocator@D@2@@std@@@2@@std@@IAEXI@Z 00427a80 f i Client.obj
 0001:00026c10       ?_Rep@?$num_put@DV?$ostreambuf_iterator@DU?$char_traits@D@std@@@std@@@std@@ABA?AV?$ostreambuf_iterator@DU?$char_traits@D@std@@@2@V32@DI@Z 00427c10 f i Client.obj
 0001:00026c80       ?_Reserve@?$vector@Ust_charquest@CClient@@V?$allocator@Ust_charquest@CClient@@@std@@@std@@IAEXI@Z 00427c80 f i Client.obj
 0001:00026d00       ?_Reserve@?$vector@V?$basic_string@DU?$char_traits@D@std@@V?$allocator@D@2@@std@@V?$allocator@V?$basic_string@DU?$char_traits@D@std@@V?$allocator@D@2@@std@@@2@@std@@IAEXI@Z 00427d00 f i Client.obj
 0001:00026d80       ?_Reset_back@?$basic_filebuf@DU?$char_traits@D@std@@@std@@AAEXXZ 00427d80 f i Client.obj
 0001:00026de0       ?_Run@?$_LaunchPad@V?$_Bind@$0A@XV<lambda_d6f1c9119fbc315a7d806e1c05d81231>@@$$$V@std@@@std@@CAIPAV12@@Z 00427de0 f i Client.obj
 0001:00026e30       ?_Set_back@?$basic_filebuf@DU?$char_traits@D@std@@@std@@AAEXXZ 00427e30 f i Client.obj
 0001:00026eb0       ?_Thrd_detachX@std@@YAHU_Thrd_imp_t@@@Z 00427eb0 f i Client.obj
 0001:00026ef0       ?_Tidy@?$numpunct@D@std@@AAEXXZ 00427ef0 f i Client.obj
 0001:00026f40       ?_Tidy@?$vector@Ust_charquest@CClient@@V?$allocator@Ust_charquest@CClient@@@std@@@std@@IAEXXZ 00427f40 f i Client.obj
 0001:00026ff0       ?_Tidy@?$vector@V?$basic_string@DU?$char_traits@D@std@@V?$allocator@D@2@@std@@V?$allocator@V?$basic_string@DU?$char_traits@D@std@@V?$allocator@D@2@@std@@@2@@std@@IAEXXZ 00427ff0 f i Client.obj
 0001:000270a0       ?_Unlock@?$basic_filebuf@DU?$char_traits@D@std@@@std@@UAEXXZ 004280a0 f i Client.obj
 0001:000270e0       ?_Unlock@?$basic_streambuf@DU?$char_traits@D@std@@@std@@UAEXXZ 004280e0 f i Client.obj
 0001:00027100       ?_Unused_capacity@?$vector@Ust_charquest@CClient@@V?$allocator@Ust_charquest@CClient@@@std@@@std@@QBEIXZ 00428100 f i Client.obj
 0001:00027130       ?_Unused_capacity@?$vector@V?$basic_string@DU?$char_traits@D@std@@V?$allocator@D@2@@std@@V?$allocator@V?$basic_string@DU?$char_traits@D@std@@V?$allocator@D@2@@std@@@2@@std@@QBEIXZ 00428130 f i Client.obj
 0001:00027160       ?_Xlen@?$vector@Ust_charquest@CClient@@V?$allocator@Ust_charquest@CClient@@@std@@@std@@IBEXXZ 00428160 f i Client.obj
 0001:00027190       ?_Xlen@?$vector@V?$basic_string@DU?$char_traits@D@std@@V?$allocator@D@2@@std@@V?$allocator@V?$basic_string@DU?$char_traits@D@std@@V?$allocator@D@2@@std@@@2@@std@@IBEXXZ 00428190 f i Client.obj
 0001:000271c0       ?active_quest@CClient@@QAEXH@Z 004281c0 f   Client.obj
 0001:000272e0       ?allocate@?$_Wrap_alloc@V?$allocator@U_Container_proxy@std@@@std@@@std@@QAEPAU_Container_proxy@2@I@Z 004282e0 f i Client.obj
 0001:00027310       ?allocate@?$_Wrap_alloc@V?$allocator@Ust_charquest@CClient@@@std@@@std@@QAEPAUst_charquest@CClient@@I@Z 00428310 f i Client.obj
 0001:00027340       ?allocate@?$_Wrap_alloc@V?$allocator@V?$basic_string@DU?$char_traits@D@std@@V?$allocator@D@2@@std@@@std@@@std@@QAEPAV?$basic_string@DU?$char_traits@D@std@@V?$allocator@D@2@@2@I@Z 00428340 f i Client.obj
 0001:00027370       ?allocate@?$allocator@Ust_charquest@CClient@@@std@@QAEPAUst_charquest@CClient@@I@Z 00428370 f i Client.obj
 0001:000273a0       ?allocate@?$allocator@V?$basic_string@DU?$char_traits@D@std@@V?$allocator@D@2@@std@@@std@@QAEPAV?$basic_string@DU?$char_traits@D@std@@V?$allocator@D@2@@2@I@Z 004283a0 f i Client.obj
 0001:000273d0       ?always_noconv@codecvt_base@std@@QBE_NXZ 004283d0 f i Client.obj
 0001:00027400       ?append@?$basic_string@DU?$char_traits@D@std@@V?$allocator@D@2@@std@@QAEAAV12@ID@Z 00428400 f i Client.obj
 0001:000274a0       ?assign@?$basic_string@DU?$char_traits@D@std@@V?$allocator@D@2@@std@@QAEAAV12@$$QAV12@@Z 004284a0 f i Client.obj
 0001:00027550       ?assign@?$basic_string@DU?$char_traits@D@std@@V?$allocator@D@2@@std@@QAEAAV12@ABV12@@Z 00428550 f i Client.obj
 0001:00027590       ?assign@?$basic_string@DU?$char_traits@D@std@@V?$allocator@D@2@@std@@QAEAAV12@ID@Z 00428590 f i Client.obj
 0001:00027610       ?assign@?$char_traits@D@std@@SAPADPADID@Z 00428610 f i Client.obj
 0001:00027640       ?bCreateNewParty@CClient@@QAEHXZ 00428640 f   Client.obj
 0001:00027720       ?begin@?$basic_string@DU?$char_traits@D@std@@V?$allocator@D@2@@std@@QAE?AV?$_String_iterator@V?$_String_val@U?$_Simple_types@D@std@@@std@@@2@XZ 00428720 f i Client.obj
 0001:00027760       ?begin@?$vector@Ust_charquest@CClient@@V?$allocator@Ust_charquest@CClient@@@std@@@std@@QAE?AV?$_Vector_iterator@V?$_Vector_val@U?$_Simple_types@Ust_charquest@CClient@@@std@@@std@@@2@XZ 00428760 f i Client.obj
 0001:000277a0       ?begin@?$vector@V?$basic_string@DU?$char_traits@D@std@@V?$allocator@D@2@@std@@V?$allocator@V?$basic_string@DU?$char_traits@D@std@@V?$allocator@D@2@@std@@@2@@std@@QAE?AV?$_Vector_iterator@V?$_Vector_val@U?$_Simple_types@V?$basic_string@DU?$char_traits@D@std@@V?$allocator@D@2@@std@@@std@@@std@@@2@XZ 004287a0 f i Client.obj
 0001:000277e0       ?bindSocket@CClient@@QAEXH@Z 004287e0 f   Client.obj
 0001:00027950       ?capacity@?$vector@Ust_charquest@CClient@@V?$allocator@Ust_charquest@CClient@@@std@@@std@@QBEIXZ 00428950 f i Client.obj
 0001:00027980       ?capacity@?$vector@V?$basic_string@DU?$char_traits@D@std@@V?$allocator@D@2@@std@@V?$allocator@V?$basic_string@DU?$char_traits@D@std@@V?$allocator@D@2@@std@@@2@@std@@QBEIXZ 00428980 f i Client.obj
 0001:000279b0       ?clear@?$vector@Ust_charquest@CClient@@V?$allocator@Ust_charquest@CClient@@@std@@@std@@QAEXXZ 004289b0 f i Client.obj
 0001:00027a00       ?clear@ios_base@std@@QAEXH@Z 00428a00 f i Client.obj
 0001:00027a30       ?close@?$basic_filebuf@DU?$char_traits@D@std@@@std@@QAEPAV12@XZ 00428a30 f i Client.obj
 0001:00027ac0       ?compare@?$basic_string@DU?$char_traits@D@std@@V?$allocator@D@2@@std@@QBEHIIPBDI@Z 00428ac0 f i Client.obj
 0001:00027bd0       ?compare@?$basic_string@DU?$char_traits@D@std@@V?$allocator@D@2@@std@@QBEHPBD@Z 00428bd0 f i Client.obj
 0001:00027c30       ?compare@?$char_traits@D@std@@SAHPBD0I@Z 00428c30 f i Client.obj
 0001:00027c80       ?construct@?$allocator@Ust_charquest@CClient@@@std@@QAEXPAUst_charquest@CClient@@ABU34@@Z 00428c80 f i Client.obj
 0001:00027ce0       ?deallocate@?$_Wrap_alloc@V?$allocator@U_Container_proxy@std@@@std@@@std@@QAEXPAU_Container_proxy@2@I@Z 00428ce0 f i Client.obj
 0001:00027d10       ?deallocate@?$_Wrap_alloc@V?$allocator@Ust_charquest@CClient@@@std@@@std@@QAEXPAUst_charquest@CClient@@I@Z 00428d10 f i Client.obj
 0001:00027d40       ?deallocate@?$_Wrap_alloc@V?$allocator@V?$basic_string@DU?$char_traits@D@std@@V?$allocator@D@2@@std@@@std@@@std@@QAEXPAV?$basic_string@DU?$char_traits@D@std@@V?$allocator@D@2@@2@I@Z 00428d40 f i Client.obj
 0001:00027d70       ?deallocate@?$allocator@Ust_charquest@CClient@@@std@@QAEXPAUst_charquest@CClient@@I@Z 00428d70 f i Client.obj
 0001:00027da0       ?deallocate@?$allocator@V?$basic_string@DU?$char_traits@D@std@@V?$allocator@D@2@@std@@@std@@QAEXPAV?$basic_string@DU?$char_traits@D@std@@V?$allocator@D@2@@2@I@Z 00428da0 f i Client.obj
 0001:00027dd0       ?decimal_point@?$numpunct@D@std@@QBEDXZ 00428dd0 f i Client.obj
 0001:00027e60       ?detach@thread@std@@QAEXXZ 00428e60 f i Client.obj
 0001:00027ec0       ?do_always_noconv@?$codecvt@DDH@std@@MBE_NXZ 00428ec0 f i Client.obj
 0001:00027ee0       ?do_always_noconv@codecvt_base@std@@MBE_NXZ 00428ee0 f i Client.obj
 0001:00027f00       ?do_decimal_point@?$numpunct@D@std@@MBEDXZ 00428f00 f i Client.obj
 0001:00027f20       ?do_encoding@codecvt_base@std@@MBEHXZ 00428f20 f i Client.obj
 0001:00027f40       ?do_falsename@?$numpunct@D@std@@MBE?AV?$basic_string@DU?$char_traits@D@std@@V?$allocator@D@2@@2@XZ 00428f40 f i Client.obj
 0001:00027f90       ?do_grouping@?$numpunct@D@std@@MBE?AV?$basic_string@DU?$char_traits@D@std@@V?$allocator@D@2@@2@XZ 00428f90 f i Client.obj
 0001:00027fe0       ?do_in@?$codecvt@DDH@std@@MBEHAAHPBD1AAPBDPAD3AAPAD@Z 00428fe0 f i Client.obj
 0001:00028080       ?do_length@?$codecvt@DDH@std@@MBEHAAHPBD1I@Z 00429080 f i Client.obj
 0001:000280d0       ?do_max_length@codecvt_base@std@@MBEHXZ 004290d0 f i Client.obj
 0001:000280f0       ?do_out@?$codecvt@DDH@std@@MBEHAAHPBD1AAPBDPAD3AAPAD@Z 004290f0 f i Client.obj
 0001:00028190       ?do_put@?$num_put@DV?$ostreambuf_iterator@DU?$char_traits@D@std@@@std@@@std@@MBE?AV?$ostreambuf_iterator@DU?$char_traits@D@std@@@2@V32@AAVios_base@2@DJ@Z 00429190 f i Client.obj
 0001:00028240       ?do_put@?$num_put@DV?$ostreambuf_iterator@DU?$char_traits@D@std@@@std@@@std@@MBE?AV?$ostreambuf_iterator@DU?$char_traits@D@std@@@2@V32@AAVios_base@2@DK@Z 00429240 f i Client.obj
 0001:000282f0       ?do_put@?$num_put@DV?$ostreambuf_iterator@DU?$char_traits@D@std@@@std@@@std@@MBE?AV?$ostreambuf_iterator@DU?$char_traits@D@std@@@2@V32@AAVios_base@2@DN@Z 004292f0 f i Client.obj
 0001:00028690       ?do_put@?$num_put@DV?$ostreambuf_iterator@DU?$char_traits@D@std@@@std@@@std@@MBE?AV?$ostreambuf_iterator@DU?$char_traits@D@std@@@2@V32@AAVios_base@2@DO@Z 00429690 f i Client.obj
 0001:00028a00       ?do_put@?$num_put@DV?$ostreambuf_iterator@DU?$char_traits@D@std@@@std@@@std@@MBE?AV?$ostreambuf_iterator@DU?$char_traits@D@std@@@2@V32@AAVios_base@2@DPBX@Z 00429a00 f i Client.obj
 0001:00028a90       ?do_put@?$num_put@DV?$ostreambuf_iterator@DU?$char_traits@D@std@@@std@@@std@@MBE?AV?$ostreambuf_iterator@DU?$char_traits@D@std@@@2@V32@AAVios_base@2@D_J@Z 00429a90 f i Client.obj
 0001:00028b40       ?do_put@?$num_put@DV?$ostreambuf_iterator@DU?$char_traits@D@std@@@std@@@std@@MBE?AV?$ostreambuf_iterator@DU?$char_traits@D@std@@@2@V32@AAVios_base@2@D_K@Z 00429b40 f i Client.obj
 0001:00028bf0       ?do_put@?$num_put@DV?$ostreambuf_iterator@DU?$char_traits@D@std@@@std@@@std@@MBE?AV?$ostreambuf_iterator@DU?$char_traits@D@std@@@2@V32@AAVios_base@2@D_N@Z 00429bf0 f i Client.obj
 0001:00028f30       ?do_thousands_sep@?$numpunct@D@std@@MBEDXZ 00429f30 f i Client.obj
 0001:00028f50       ?do_truename@?$numpunct@D@std@@MBE?AV?$basic_string@DU?$char_traits@D@std@@V?$allocator@D@2@@2@XZ 00429f50 f i Client.obj
 0001:00028fa0       ?do_unshift@?$codecvt@DDH@std@@MBEHAAHPAD1AAPAD@Z 00429fa0 f i Client.obj
 0001:00028fd0       ?eback@?$basic_streambuf@DU?$char_traits@D@std@@@std@@IBEPADXZ 00429fd0 f i Client.obj
 0001:00029000       ?egptr@?$basic_streambuf@DU?$char_traits@D@std@@@std@@IBEPADXZ 0042a000 f i Client.obj
 0001:00029030       ?end@?$vector@V?$basic_string@DU?$char_traits@D@std@@V?$allocator@D@2@@std@@V?$allocator@V?$basic_string@DU?$char_traits@D@std@@V?$allocator@D@2@@std@@@2@@std@@QAE?AV?$_Vector_iterator@V?$_Vector_val@U?$_Simple_types@V?$basic_string@DU?$char_traits@D@std@@V?$allocator@D@2@@std@@@std@@@std@@@2@XZ 0042a030 f i Client.obj
 0001:00029070       ?epptr@?$basic_streambuf@DU?$char_traits@D@std@@@std@@IBEPADXZ 0042a070 f i Client.obj
 0001:000290a0       ?eq@?$char_traits@D@std@@SA_NABD0@Z 0042a0a0 f i Client.obj
 0001:000290e0       ?erase@?$vector@Ust_charquest@CClient@@V?$allocator@Ust_charquest@CClient@@@std@@@std@@QAE?AV?$_Vector_iterator@V?$_Vector_val@U?$_Simple_types@Ust_charquest@CClient@@@std@@@std@@@2@V?$_Vector_const_iterator@V?$_Vector_val@U?$_Simple_types@Ust_charquest@CClient@@@std@@@std@@@2@@Z 0042a0e0 f i Client.obj
 0001:00029250       ?fail@ios_base@std@@QBE_NXZ 0042a250 f i Client.obj
 0001:00029290       ?failed@?$ostreambuf_iterator@DU?$char_traits@D@std@@@std@@QBE_NXZ 0042a290 f i Client.obj
 0001:000292b0       ?falsename@?$numpunct@D@std@@QBE?AV?$basic_string@DU?$char_traits@D@std@@V?$allocator@D@2@@2@XZ 0042a2b0 f i Client.obj
 0001:00029300       ?find@?$basic_string@DU?$char_traits@D@std@@V?$allocator@D@2@@std@@QBEIABV12@I@Z 0042a300 f i Client.obj
 0001:00029340       ?find@?$basic_string@DU?$char_traits@D@std@@V?$allocator@D@2@@std@@QBEIPBDII@Z 0042a340 f i Client.obj
 0001:00029480       ?find@?$char_traits@D@std@@SAPBDPBDIABD@Z 0042a480 f i Client.obj
 0001:000294d0       ?gbump@?$basic_streambuf@DU?$char_traits@D@std@@@std@@IAEXH@Z 0042a4d0 f i Client.obj
 0001:00029520       ?getRebirthStats@CClient@@QAEHXZ 0042a520 f   Client.obj
 0001:00029570       ?get_allocator@?$basic_string@DU?$char_traits@D@std@@V?$allocator@D@2@@std@@QBE?AV?$allocator@D@2@XZ 0042a570 f i Client.obj
 0001:000297d0       ?getloc@?$basic_streambuf@DU?$char_traits@D@std@@@std@@QBE?AVlocale@2@XZ 0042a7d0 f i Client.obj
 0001:00029c30       ?gptr@?$basic_streambuf@DU?$char_traits@D@std@@@std@@IBEPADXZ 0042ac30 f i Client.obj
 0001:00029c60       ?grouping@?$numpunct@D@std@@QBE?AV?$basic_string@DU?$char_traits@D@std@@V?$allocator@D@2@@2@XZ 0042ac60 f i Client.obj
 0001:00029cb0       ?imbue@?$basic_filebuf@DU?$char_traits@D@std@@@std@@MAEXABVlocale@2@@Z 0042acb0 f i Client.obj
 0001:00029cf0       ?imbue@?$basic_streambuf@DU?$char_traits@D@std@@@std@@MAEXABVlocale@2@@Z 0042acf0 f i Client.obj
 0001:00029d10       ?in@?$codecvt@DDH@std@@QBEHAAHPBD1AAPBDPAD3AAPAD@Z 0042ad10 f i Client.obj
 0001:00029d60       ?init@?$basic_ios@DU?$char_traits@D@std@@@std@@IAEXPAV?$basic_streambuf@DU?$char_traits@D@std@@@2@_N@Z 0042ad60 f i Client.obj
 0001:00029df0       ?initializeWinsock@CClient@@QAEXXZ 0042adf0 f   Client.obj
 0001:00029eb0       ?insert@?$basic_string@DU?$char_traits@D@std@@V?$allocator@D@2@@std@@QAEAAV12@IID@Z 0042aeb0 f i Client.obj
 0001:00029fa0       ?is@?$ctype@D@std@@QBE_NFD@Z 0042afa0 f i Client.obj
 0001:0002a050       ?joinable@thread@std@@QBE_NXZ 0042b050 f i Client.obj
 0001:0002a090       ?length@?$basic_string@DU?$char_traits@D@std@@V?$allocator@D@2@@std@@QBEIXZ 0042b090 f i Client.obj
 0001:0002a0b0       ?max_size@?$_Wrap_alloc@V?$allocator@Ust_charquest@CClient@@@std@@@std@@QBEIXZ 0042b0b0 f i Client.obj
 0001:0002a0e0       ?max_size@?$_Wrap_alloc@V?$allocator@V?$basic_string@DU?$char_traits@D@std@@V?$allocator@D@2@@std@@@std@@@std@@QBEIXZ 0042b0e0 f i Client.obj
 0001:0002a110       ?max_size@?$allocator@Ust_charquest@CClient@@@std@@QBEIXZ 0042b110 f i Client.obj
 0001:0002a130       ?max_size@?$allocator@V?$basic_string@DU?$char_traits@D@std@@V?$allocator@D@2@@std@@@std@@QBEIXZ 0042b130 f i Client.obj
 0001:0002a150       ?max_size@?$allocator_traits@V?$allocator@Ust_charquest@CClient@@@std@@@std@@SAIABV?$allocator@Ust_charquest@CClient@@@2@@Z 0042b150 f i Client.obj
 0001:0002a170       ?max_size@?$allocator_traits@V?$allocator@V?$basic_string@DU?$char_traits@D@std@@V?$allocator@D@2@@std@@@std@@@std@@SAIABV?$allocator@V?$basic_string@DU?$char_traits@D@std@@V?$allocator@D@2@@std@@@2@@Z 0042b170 f i Client.obj
 0001:0002a190       ?max_size@?$vector@Ust_charquest@CClient@@V?$allocator@Ust_charquest@CClient@@@std@@@std@@QBEIXZ 0042b190 f i Client.obj
 0001:0002a1c0       ?max_size@?$vector@V?$basic_string@DU?$char_traits@D@std@@V?$allocator@D@2@@std@@V?$allocator@V?$basic_string@DU?$char_traits@D@std@@V?$allocator@D@2@@std@@@2@@std@@QBEIXZ 0042b1c0 f i Client.obj
 0001:0002a1f0       ?not_eof@?$char_traits@D@std@@SAHABH@Z 0042b1f0 f i Client.obj
 0001:0002a250       ?open@?$basic_filebuf@DU?$char_traits@D@std@@@std@@QAEPAV12@PBDHH@Z 0042b250 f i Client.obj
 0001:0002a340       ?out@?$codecvt@DDH@std@@QBEHAAHPBD1AAPBDPAD3AAPAD@Z 0042b340 f i Client.obj
 0001:0002a390       ?overflow@?$basic_filebuf@DU?$char_traits@D@std@@@std@@MAEHH@Z 0042b390 f i Client.obj
 0001:0002a930       ?overflow@?$basic_streambuf@DU?$char_traits@D@std@@@std@@MAEHH@Z 0042b930 f i Client.obj
 0001:0002a950       ?pause_quest@CClient@@QAEXH@Z 0042b950 f   Client.obj
 0001:0002aa00       ?pbackfail@?$basic_filebuf@DU?$char_traits@D@std@@@std@@MAEHH@Z 0042ba00 f i Client.obj
 0001:0002abb0       ?pbackfail@?$basic_streambuf@DU?$char_traits@D@std@@@std@@MAEHH@Z 0042bbb0 f i Client.obj
 0001:0002abd0       ?pbump@?$basic_streambuf@DU?$char_traits@D@std@@@std@@IAEXH@Z 0042bbd0 f i Client.obj
 0001:0002ac20       ?pptr@?$basic_streambuf@DU?$char_traits@D@std@@@std@@IBEPADXZ 0042bc20 f i Client.obj
 0001:0002ac50       ?precision@ios_base@std@@QBE_JXZ 0042bc50 f i Client.obj
 0001:0002ac80       ?push_back@?$vector@Ust_charquest@CClient@@V?$allocator@Ust_charquest@CClient@@@std@@@std@@QAEXABUst_charquest@CClient@@@Z 0042bc80 f i Client.obj
 0001:0002ade0       ?push_back@?$vector@V?$basic_string@DU?$char_traits@D@std@@V?$allocator@D@2@@std@@V?$allocator@V?$basic_string@DU?$char_traits@D@std@@V?$allocator@D@2@@std@@@2@@std@@QAEX$$QAV?$basic_string@DU?$char_traits@D@std@@V?$allocator@D@2@@2@@Z 0042bde0 f i Client.obj
 0001:0002af50       ?put@?$num_put@DV?$ostreambuf_iterator@DU?$char_traits@D@std@@@std@@@std@@QBE?AV?$ostreambuf_iterator@DU?$char_traits@D@std@@@2@V32@AAVios_base@2@DJ@Z 0042bf50 f i Client.obj
 0001:0002afa0       ?read_quest_data@CClient@@QAEXXZ 0042bfa0 f   Client.obj
 0001:0002b590       ?receiveMessageFromClient@CClient@@QAEXPADH@Z 0042c590 f   Client.obj
 0001:0002b6a0       ?remove_quest@CClient@@QAEXH@Z 0042c6a0 f   Client.obj
 0001:0002b7e0       ?req_active_quest@CClient@@QAEXPAD@Z 0042c7e0 f   Client.obj
 0001:0002b850       ?req_dismiss_quest@CClient@@QAEXPAD@Z 0042c850 f   Client.obj
 0001:0002b900       ?req_pause_quest@CClient@@QAEXPAD@Z 0042c900 f   Client.obj
 0001:0002b990       ?req_reward_quest@CClient@@QAEXPAD@Z 0042c990 f   Client.obj
 0001:0002ba10       ?reward_quest@CClient@@QAEXHF@Z 0042ca10 f   Client.obj
 0001:0002c040       ?rfind@?$basic_string@DU?$char_traits@D@std@@V?$allocator@D@2@@std@@QBEIABV12@I@Z 0042d040 f i Client.obj
 0001:0002c080       ?rfind@?$basic_string@DU?$char_traits@D@std@@V?$allocator@D@2@@std@@QBEIPBDII@Z 0042d080 f i Client.obj
 0001:0002c1c0       ?run@CClient@@QAEXXZ       0042d1c0 f   Client.obj
 0001:0002c330       ?save_quest_data@CClient@@QAEXXZ 0042d330 f   Client.obj
 0001:0002ca40       ?sbumpc@?$basic_streambuf@DU?$char_traits@D@std@@@std@@QAEHXZ 0042da40 f i Client.obj
 0001:0002cab0       ?seekoff@?$basic_filebuf@DU?$char_traits@D@std@@@std@@MAE?AV?$fpos@H@2@_JHH@Z 0042dab0 f i Client.obj
 0001:0002cbd0       ?seekoff@?$basic_streambuf@DU?$char_traits@D@std@@@std@@MAE?AV?$fpos@H@2@_JHH@Z 0042dbd0 f i Client.obj
 0001:0002cc10       ?seekpos@?$basic_filebuf@DU?$char_traits@D@std@@@std@@MAE?AV?$fpos@H@2@V32@H@Z 0042dc10 f i Client.obj
 0001:0002cd40       ?seekpos@?$basic_streambuf@DU?$char_traits@D@std@@@std@@MAE?AV?$fpos@H@2@V32@H@Z 0042dd40 f i Client.obj
 0001:0002cd80       ?seekpos@?$fpos@H@std@@QBE_JXZ 0042dd80 f i Client.obj
 0001:0002cdb0       ?send_charquest_data@CClient@@QAEXXZ 0042ddb0 f   Client.obj
 0001:0002d1a0       ?send_charquest_data_byindex@CClient@@QAEXH@Z 0042e1a0 f   Client.obj
 0001:0002d340       ?setbuf@?$basic_filebuf@DU?$char_traits@D@std@@@std@@MAEPAV?$basic_streambuf@DU?$char_traits@D@std@@@2@PAD_J@Z 0042e340 f i Client.obj
 0001:0002d3e0       ?setbuf@?$basic_streambuf@DU?$char_traits@D@std@@@std@@MAEPAV12@PAD_J@Z 0042e3e0 f i Client.obj
 0001:0002d400       ?setg@?$basic_streambuf@DU?$char_traits@D@std@@@std@@IAEXPAD00@Z 0042e400 f i Client.obj
 0001:0002d450       ?setp@?$basic_streambuf@DU?$char_traits@D@std@@@std@@IAEXPAD0@Z 0042e450 f i Client.obj
 0001:0002d4a0       ?sgetc@?$basic_streambuf@DU?$char_traits@D@std@@@std@@QAEHXZ 0042e4a0 f i Client.obj
 0001:0002d510       ?showmanyc@?$basic_streambuf@DU?$char_traits@D@std@@@std@@MAE_JXZ 0042e510 f i Client.obj
 0001:0002d530       ?size@?$vector@Ust_charquest@CClient@@V?$allocator@Ust_charquest@CClient@@@std@@@std@@QBEIXZ 0042e530 f i Client.obj
 0001:0002d560       ?size@?$vector@V?$basic_string@DU?$char_traits@D@std@@V?$allocator@D@2@@std@@V?$allocator@V?$basic_string@DU?$char_traits@D@std@@V?$allocator@D@2@@std@@@2@@std@@QBEIXZ 0042e560 f i Client.obj
 0001:0002d590       ?snextc@?$basic_streambuf@DU?$char_traits@D@std@@@std@@QAEHXZ 0042e590 f i Client.obj
 0001:0002d640       ?startServer@CClient@@QAEXH@Z 0042e640 f   Client.obj
 0001:0002d740       ?state@?$fpos@H@std@@QBEHXZ 0042e740 f i Client.obj
 0001:0002d760       ?stop@CClient@@QAEXXZ      0042e760 f   Client.obj
 0001:0002d7d0       ?stoull@std@@YA_KABV?$basic_string@DU?$char_traits@D@std@@V?$allocator@D@2@@1@PAIH@Z 0042e7d0 f i Client.obj
 0001:0002d870       ?sync@?$basic_filebuf@DU?$char_traits@D@std@@@std@@MAEHXZ 0042e870 f i Client.obj
 0001:0002d910       ?sync@?$basic_streambuf@DU?$char_traits@D@std@@@std@@MAEHXZ 0042e910 f i Client.obj
 0001:0002d930       ?thousands_sep@?$numpunct@D@std@@QBEDXZ 0042e930 f i Client.obj
 0001:0002d960       ?to_char_type@?$char_traits@D@std@@SADABH@Z 0042e960 f i Client.obj
 0001:0002d980       ?to_string@std@@YA?AV?$basic_string@DU?$char_traits@D@std@@V?$allocator@D@2@@1@H@Z 0042e980 f i Client.obj
 0001:0002dae0       ?truename@?$numpunct@D@std@@QBE?AV?$basic_string@DU?$char_traits@D@std@@V?$allocator@D@2@@2@XZ 0042eae0 f i Client.obj
 0001:0002db30       ?uflow@?$basic_filebuf@DU?$char_traits@D@std@@@std@@MAEHXZ 0042eb30 f i Client.obj
 0001:0002e040       ?uflow@?$basic_streambuf@DU?$char_traits@D@std@@@std@@MAEHXZ 0042f040 f i Client.obj
 0001:0002e0c0       ?underflow@?$basic_filebuf@DU?$char_traits@D@std@@@std@@MAEHXZ 0042f0c0 f i Client.obj
 0001:0002e180       ?underflow@?$basic_streambuf@DU?$char_traits@D@std@@@std@@MAEHXZ 0042f180 f i Client.obj
 0001:0002e1a0       ?unshift@?$codecvt@DDH@std@@QBEHAAHPAD1AAPAD@Z 0042f1a0 f i Client.obj
 0001:0002e1e0       ?widen@?$ctype@D@std@@QBEPBDPBD0PAD@Z 0042f1e0 f i Client.obj
 0001:0002e220       ?xsgetn@?$basic_streambuf@DU?$char_traits@D@std@@@std@@MAE_JPAD_J@Z 0042f220 f i Client.obj
 0001:0002e3b0       ?xsputn@?$basic_streambuf@DU?$char_traits@D@std@@@std@@MAE_JPBD_J@Z 0042f3b0 f i Client.obj
 0001:0002e640       ??$?0AAPAUst_fighters@CDeathmatch@@AAPAU01@X@?$pair@PAUst_fighters@CDeathmatch@@PAU12@@std@@QAE@AAPAUst_fighters@CDeathmatch@@0@Z 0042f640 f i deathmatch.obj
 0001:0002e790       ??$_Adjust_heap@PAUst_fighters@CDeathmatch@@HU12@V<lambda_7c6f724b2de2e509c158489e2bbcda24>@@@std@@YAXPAUst_fighters@CDeathmatch@@HH$$QAU12@V<lambda_7c6f724b2de2e509c158489e2bbcda24>@@@Z 0042f790 f i deathmatch.obj
 0001:0002e900       ??$_Allocate@Ust_fighters@CDeathmatch@@@std@@YAPAUst_fighters@CDeathmatch@@IPAU12@@Z 0042f900 f i deathmatch.obj
 0001:0002e960       ??$_Debug_heap@PAUst_fighters@CDeathmatch@@V<lambda_7c6f724b2de2e509c158489e2bbcda24>@@@std@@YAXPAUst_fighters@CDeathmatch@@0V<lambda_7c6f724b2de2e509c158489e2bbcda24>@@@Z 0042f960 f i deathmatch.obj
 0001:0002ea70       ??$_Debug_lt_pred@V<lambda_7c6f724b2de2e509c158489e2bbcda24>@@AAUst_fighters@CDeathmatch@@AAU23@@std@@YA_NV<lambda_7c6f724b2de2e509c158489e2bbcda24>@@AAUst_fighters@CDeathmatch@@1PB_WI@Z 0042fa70 f i deathmatch.obj
 0001:0002eba0       ??$_Debug_pointer@Ust_fighters@CDeathmatch@@@std@@YAXPAUst_fighters@CDeathmatch@@PB_WI@Z 0042fba0 f i deathmatch.obj
 0001:0002ebe0       ??$_Debug_pointer@V<lambda_7c6f724b2de2e509c158489e2bbcda24>@@@std@@YAXAAV<lambda_7c6f724b2de2e509c158489e2bbcda24>@@PB_WI@Z 0042fbe0 f i deathmatch.obj
 0001:0002ec00       ??$_Debug_pointer@V?$_Vector_iterator@V?$_Vector_val@U?$_Simple_types@Ust_fighters@CDeathmatch@@@std@@@std@@@std@@@std@@YAXAAV?$_Vector_iterator@V?$_Vector_val@U?$_Simple_types@Ust_fighters@CDeathmatch@@@std@@@std@@@0@PB_WI@Z 0042fc00 f i deathmatch.obj
 0001:0002ec20       ??$_Debug_range2@PAUst_fighters@CDeathmatch@@@std@@YAXPAUst_fighters@CDeathmatch@@0PB_WIUrandom_access_iterator_tag@0@@Z 0042fc20 f i deathmatch.obj
 0001:0002eca0       ??$_Debug_range2@V?$_Vector_iterator@V?$_Vector_val@U?$_Simple_types@Ust_fighters@CDeathmatch@@@std@@@std@@@std@@@std@@YAXV?$_Vector_iterator@V?$_Vector_val@U?$_Simple_types@Ust_fighters@CDeathmatch@@@std@@@std@@@0@0PB_WIUrandom_access_iterator_tag@0@@Z 0042fca0 f i deathmatch.obj
 0001:0002ed90       ??$_Debug_range@PAUst_fighters@CDeathmatch@@@std@@YAXPAUst_fighters@CDeathmatch@@0PB_WI@Z 0042fd90 f i deathmatch.obj
 0001:0002ede0       ??$_Debug_range@V?$_Vector_iterator@V?$_Vector_val@U?$_Simple_types@Ust_fighters@CDeathmatch@@@std@@@std@@@std@@@std@@YAXV?$_Vector_iterator@V?$_Vector_val@U?$_Simple_types@Ust_fighters@CDeathmatch@@@std@@@std@@@0@0PB_WI@Z 0042fde0 f i deathmatch.obj
 0001:0002eed0       ??$_Destroy_range@U?$_Wrap_alloc@V?$allocator@Ust_fighters@CDeathmatch@@@std@@@std@@@std@@YAXPAUst_fighters@CDeathmatch@@0AAU?$_Wrap_alloc@V?$allocator@Ust_fighters@CDeathmatch@@@std@@@0@@Z 0042fed0 f i deathmatch.obj
 0001:0002ef20       ??$_Destroy_range@U?$_Wrap_alloc@V?$allocator@Ust_fighters@CDeathmatch@@@std@@@std@@@std@@YAXPAUst_fighters@CDeathmatch@@0AAU?$_Wrap_alloc@V?$allocator@Ust_fighters@CDeathmatch@@@std@@@0@U_Nonscalar_ptr_iterator_tag@0@@Z 0042ff20 f i deathmatch.obj
 0001:0002ef60       ??$_Dist_type@PAUst_fighters@CDeathmatch@@@std@@YAPAHPAUst_fighters@CDeathmatch@@@Z 0042ff60 f i deathmatch.obj
 0001:0002ef80       ??$_Insertion_sort1@PAUst_fighters@CDeathmatch@@V<lambda_7c6f724b2de2e509c158489e2bbcda24>@@U12@@std@@YAXPAUst_fighters@CDeathmatch@@0V<lambda_7c6f724b2de2e509c158489e2bbcda24>@@0@Z 0042ff80 f i deathmatch.obj
 0001:0002f170       ??$_Insertion_sort@PAUst_fighters@CDeathmatch@@V<lambda_7c6f724b2de2e509c158489e2bbcda24>@@@std@@YAXPAUst_fighters@CDeathmatch@@0V<lambda_7c6f724b2de2e509c158489e2bbcda24>@@@Z 00430170 f i deathmatch.obj
 0001:0002f1b0       ??$_Iter_cat@PAUst_fighters@CDeathmatch@@@std@@YA?AUrandom_access_iterator_tag@0@ABQAUst_fighters@CDeathmatch@@@Z 004301b0 f i deathmatch.obj
 0001:0002f1e0       ??$_Iter_cat@V?$_Vector_iterator@V?$_Vector_val@U?$_Simple_types@Ust_fighters@CDeathmatch@@@std@@@std@@@std@@@std@@YA?AUrandom_access_iterator_tag@0@ABV?$_Vector_iterator@V?$_Vector_val@U?$_Simple_types@Ust_fighters@CDeathmatch@@@std@@@std@@@0@@Z 004301e0 f i deathmatch.obj
 0001:0002f210       ??$_Make_heap@PAUst_fighters@CDeathmatch@@HU12@V<lambda_7c6f724b2de2e509c158489e2bbcda24>@@@std@@YAXPAUst_fighters@CDeathmatch@@0V<lambda_7c6f724b2de2e509c158489e2bbcda24>@@PAH0@Z 00430210 f i deathmatch.obj
 0001:0002f2e0       ??$_Med3@PAUst_fighters@CDeathmatch@@V<lambda_7c6f724b2de2e509c158489e2bbcda24>@@@std@@YAXPAUst_fighters@CDeathmatch@@00V<lambda_7c6f724b2de2e509c158489e2bbcda24>@@@Z 004302e0 f i deathmatch.obj
 0001:0002f3c0       ??$_Median@PAUst_fighters@CDeathmatch@@V<lambda_7c6f724b2de2e509c158489e2bbcda24>@@@std@@YAXPAUst_fighters@CDeathmatch@@00V<lambda_7c6f724b2de2e509c158489e2bbcda24>@@@Z 004303c0 f i deathmatch.obj
 0001:0002f4f0       ??$_Move@AAUst_fighters@CDeathmatch@@@std@@YA$$QAUst_fighters@CDeathmatch@@AAU12@@Z 004304f0 f i deathmatch.obj
 0001:0002f510       ??$_Move@PAUst_fighters@CDeathmatch@@PAU12@@std@@YAPAUst_fighters@CDeathmatch@@PAU12@00@Z 00430510 f i deathmatch.obj
 0001:0002f560       ??$_Move@PAUst_fighters@CDeathmatch@@PAU12@@std@@YAPAUst_fighters@CDeathmatch@@PAU12@00U_Nonscalar_ptr_iterator_tag@0@@Z 00430560 f i deathmatch.obj
 0001:0002f5e0       ??$_Move_backward@PAUst_fighters@CDeathmatch@@PAU12@@std@@YAPAUst_fighters@CDeathmatch@@PAU12@00@Z 004305e0 f i deathmatch.obj
 0001:0002f630       ??$_Move_backward@PAUst_fighters@CDeathmatch@@PAU12@@std@@YAPAUst_fighters@CDeathmatch@@PAU12@00U_Nonscalar_ptr_iterator_tag@0@@Z 00430630 f i deathmatch.obj
 0001:0002f6a0       ??$_Pop_heap@PAUst_fighters@CDeathmatch@@HU12@V<lambda_7c6f724b2de2e509c158489e2bbcda24>@@@std@@YAXPAUst_fighters@CDeathmatch@@00$$QAU12@V<lambda_7c6f724b2de2e509c158489e2bbcda24>@@PAH@Z 004306a0 f i deathmatch.obj
 0001:0002f730       ??$_Pop_heap@PAUst_fighters@CDeathmatch@@V<lambda_7c6f724b2de2e509c158489e2bbcda24>@@@std@@YAXPAUst_fighters@CDeathmatch@@0V<lambda_7c6f724b2de2e509c158489e2bbcda24>@@@Z 00430730 f i deathmatch.obj
 0001:0002f790       ??$_Pop_heap_0@PAUst_fighters@CDeathmatch@@U12@V<lambda_7c6f724b2de2e509c158489e2bbcda24>@@@std@@YAXPAUst_fighters@CDeathmatch@@0V<lambda_7c6f724b2de2e509c158489e2bbcda24>@@0@Z 00430790 f i deathmatch.obj
 0001:0002f840       ??$_Ptr_cat@Ust_fighters@CDeathmatch@@U12@@std@@YA?AU_Nonscalar_ptr_iterator_tag@0@PAUst_fighters@CDeathmatch@@0@Z 00430840 f i deathmatch.obj
 0001:0002f860       ??$_Push_heap@PAUst_fighters@CDeathmatch@@HU12@V<lambda_7c6f724b2de2e509c158489e2bbcda24>@@@std@@YAXPAUst_fighters@CDeathmatch@@HH$$QAU12@V<lambda_7c6f724b2de2e509c158489e2bbcda24>@@@Z 00430860 f i deathmatch.obj
 0001:0002f960       ??$_Rechecked@PAUst_fighters@CDeathmatch@@PAU12@@std@@YAAAPAUst_fighters@CDeathmatch@@AAPAU12@PAU12@@Z 00430960 f i deathmatch.obj
 0001:0002f990       ??$_Sort@PAUst_fighters@CDeathmatch@@HV<lambda_7c6f724b2de2e509c158489e2bbcda24>@@@std@@YAXPAUst_fighters@CDeathmatch@@0HV<lambda_7c6f724b2de2e509c158489e2bbcda24>@@@Z 00430990 f i deathmatch.obj
 0001:0002fb00       ??$_Sort_heap@PAUst_fighters@CDeathmatch@@V<lambda_7c6f724b2de2e509c158489e2bbcda24>@@@std@@YAXPAUst_fighters@CDeathmatch@@0V<lambda_7c6f724b2de2e509c158489e2bbcda24>@@@Z 00430b00 f i deathmatch.obj
 0001:0002fb60       ??$_Umove@PAUst_fighters@CDeathmatch@@@?$vector@Ust_fighters@CDeathmatch@@V?$allocator@Ust_fighters@CDeathmatch@@@std@@@std@@IAEPAUst_fighters@CDeathmatch@@PAU23@00@Z 00430b60 f i deathmatch.obj
 0001:0002fbb0       ??$_Unchecked@PAUst_fighters@CDeathmatch@@@std@@YAPAUst_fighters@CDeathmatch@@PAU12@@Z 00430bb0 f i deathmatch.obj
 0001:0002fbd0       ??$_Unchecked@V?$_Vector_val@U?$_Simple_types@Ust_fighters@CDeathmatch@@@std@@@std@@@std@@YAPAUst_fighters@CDeathmatch@@V?$_Vector_iterator@V?$_Vector_val@U?$_Simple_types@Ust_fighters@CDeathmatch@@@std@@@std@@@0@@Z 00430bd0 f i deathmatch.obj
 0001:0002fc50       ??$_Unguarded_partition@PAUst_fighters@CDeathmatch@@V<lambda_7c6f724b2de2e509c158489e2bbcda24>@@@std@@YA?AU?$pair@PAUst_fighters@CDeathmatch@@PAU12@@0@PAUst_fighters@CDeathmatch@@0V<lambda_7c6f724b2de2e509c158489e2bbcda24>@@@Z 00430c50 f i deathmatch.obj
 0001:00030190       ??$_Uninit_move@PAUst_fighters@CDeathmatch@@PAU12@U?$_Wrap_alloc@V?$allocator@Ust_fighters@CDeathmatch@@@std@@@std@@@std@@YAPAUst_fighters@CDeathmatch@@PAU12@00AAU?$_Wrap_alloc@V?$allocator@Ust_fighters@CDeathmatch@@@std@@@0@@Z 00431190 f i deathmatch.obj
 0001:000301f0       ??$_Uninit_move@PAUst_fighters@CDeathmatch@@PAU12@V?$allocator@Ust_fighters@CDeathmatch@@@std@@U12@@std@@YAPAUst_fighters@CDeathmatch@@PAU12@00AAU?$_Wrap_alloc@V?$allocator@Ust_fighters@CDeathmatch@@@std@@@0@0U_Nonscalar_ptr_iterator_tag@0@@Z 004311f0 f i deathmatch.obj
 0001:00030320       ??$_Uninitialized_move@PAUst_fighters@CDeathmatch@@PAU12@U?$_Wrap_alloc@V?$allocator@Ust_fighters@CDeathmatch@@@std@@@std@@@std@@YAPAUst_fighters@CDeathmatch@@PAU12@00AAU?$_Wrap_alloc@V?$allocator@Ust_fighters@CDeathmatch@@@std@@@0@@Z 00431320 f i deathmatch.obj
 0001:00030390       ??$_Val_type@PAUst_fighters@CDeathmatch@@@std@@YAPAUst_fighters@CDeathmatch@@PAU12@@Z 00431390 f i deathmatch.obj
 0001:000303b0       ??$addressof@$$CBUst_fighters@CDeathmatch@@@std@@YAPBUst_fighters@CDeathmatch@@ABU12@@Z 004313b0 f i deathmatch.obj
 0001:000303d0       ??$construct@Ust_fighters@CDeathmatch@@AAU12@@?$_Wrap_alloc@V?$allocator@Ust_fighters@CDeathmatch@@@std@@@std@@QAEXPAUst_fighters@CDeathmatch@@AAU23@@Z 004313d0 f i deathmatch.obj
 0001:00030410       ??$construct@Ust_fighters@CDeathmatch@@AAU12@@?$allocator@Ust_fighters@CDeathmatch@@@std@@QAEXPAUst_fighters@CDeathmatch@@AAU23@@Z 00431410 f i deathmatch.obj
 0001:000304e0       ??$construct@Ust_fighters@CDeathmatch@@AAU12@@?$allocator_traits@V?$allocator@Ust_fighters@CDeathmatch@@@std@@@std@@SAXAAV?$allocator@Ust_fighters@CDeathmatch@@@1@PAUst_fighters@CDeathmatch@@AAU34@@Z 004314e0 f i deathmatch.obj
 0001:00030520       ??$construct@Ust_fighters@CDeathmatch@@ABU12@@?$_Wrap_alloc@V?$allocator@Ust_fighters@CDeathmatch@@@std@@@std@@QAEXPAUst_fighters@CDeathmatch@@ABU23@@Z 00431520 f i deathmatch.obj
 0001:00030560       ??$construct@Ust_fighters@CDeathmatch@@ABU12@@?$allocator_traits@V?$allocator@Ust_fighters@CDeathmatch@@@std@@@std@@SAXAAV?$allocator@Ust_fighters@CDeathmatch@@@1@PAUst_fighters@CDeathmatch@@ABU34@@Z 00431560 f i deathmatch.obj
 0001:000305a0       ??$construct@Ust_fighters@CDeathmatch@@U12@@?$_Wrap_alloc@V?$allocator@Ust_fighters@CDeathmatch@@@std@@@std@@QAEXPAUst_fighters@CDeathmatch@@$$QAU23@@Z 004315a0 f i deathmatch.obj
 0001:000305e0       ??$construct@Ust_fighters@CDeathmatch@@U12@@?$allocator@Ust_fighters@CDeathmatch@@@std@@QAEXPAUst_fighters@CDeathmatch@@$$QAU23@@Z 004315e0 f i deathmatch.obj
 0001:000306b0       ??$construct@Ust_fighters@CDeathmatch@@U12@@?$allocator_traits@V?$allocator@Ust_fighters@CDeathmatch@@@std@@@std@@SAXAAV?$allocator@Ust_fighters@CDeathmatch@@@1@PAUst_fighters@CDeathmatch@@$$QAU34@@Z 004316b0 f i deathmatch.obj
 0001:000306f0       ??$destroy@Ust_fighters@CDeathmatch@@@?$_Wrap_alloc@V?$allocator@Ust_fighters@CDeathmatch@@@std@@@std@@QAEXPAUst_fighters@CDeathmatch@@@Z 004316f0 f i deathmatch.obj
 0001:00030720       ??$destroy@Ust_fighters@CDeathmatch@@@?$allocator@Ust_fighters@CDeathmatch@@@std@@QAEXPAUst_fighters@CDeathmatch@@@Z 00431720 f i deathmatch.obj
 0001:00030740       ??$destroy@Ust_fighters@CDeathmatch@@@?$allocator_traits@V?$allocator@Ust_fighters@CDeathmatch@@@std@@@std@@SAXAAV?$allocator@Ust_fighters@CDeathmatch@@@1@PAUst_fighters@CDeathmatch@@@Z 00431740 f i deathmatch.obj
 0001:00030770       ??$forward@AAPAUst_fighters@CDeathmatch@@@std@@YAAAPAUst_fighters@CDeathmatch@@AAPAU12@@Z 00431770 f i deathmatch.obj
 0001:00030790       ??$forward@AAUst_fighters@CDeathmatch@@@std@@YAAAUst_fighters@CDeathmatch@@AAU12@@Z 00431790 f i deathmatch.obj
 0001:000307b0       ??$forward@ABUst_fighters@CDeathmatch@@@std@@YAABUst_fighters@CDeathmatch@@ABU12@@Z 004317b0 f i deathmatch.obj
 0001:000307d0       ??$forward@Ust_fighters@CDeathmatch@@@std@@YA$$QAUst_fighters@CDeathmatch@@AAU12@@Z 004317d0 f i deathmatch.obj
 0001:000307f0       ??$iter_swap@PAUst_fighters@CDeathmatch@@PAU12@@std@@YAXPAUst_fighters@CDeathmatch@@0@Z 004317f0 f i deathmatch.obj
 0001:00030820       ??$make_heap@PAUst_fighters@CDeathmatch@@V<lambda_7c6f724b2de2e509c158489e2bbcda24>@@@std@@YAXPAUst_fighters@CDeathmatch@@0V<lambda_7c6f724b2de2e509c158489e2bbcda24>@@@Z 00431820 f i deathmatch.obj
 0001:000308e0       ??$move@AAUst_fighters@CDeathmatch@@@std@@YA$$QAUst_fighters@CDeathmatch@@AAU12@@Z 004318e0 f i deathmatch.obj
 0001:00030900       ??$sort@V?$_Vector_iterator@V?$_Vector_val@U?$_Simple_types@Ust_fighters@CDeathmatch@@@std@@@std@@@std@@V<lambda_7c6f724b2de2e509c158489e2bbcda24>@@@std@@YAXV?$_Vector_iterator@V?$_Vector_val@U?$_Simple_types@Ust_fighters@CDeathmatch@@@std@@@std@@@0@0V<lambda_7c6f724b2de2e509c158489e2bbcda24>@@@Z 00431900 f i deathmatch.obj
 0001:00030a60       ??$sort_heap@PAUst_fighters@CDeathmatch@@V<lambda_7c6f724b2de2e509c158489e2bbcda24>@@@std@@YAXPAUst_fighters@CDeathmatch@@0V<lambda_7c6f724b2de2e509c158489e2bbcda24>@@@Z 00431a60 f i deathmatch.obj
 0001:00030b20       ??$swap@Ust_fighters@CDeathmatch@@@std@@YAXAAUst_fighters@CDeathmatch@@0@Z 00431b20 f i deathmatch.obj
 0001:00030bf0       ??0?$_Iterator012@Urandom_access_iterator_tag@std@@Ust_fighters@CDeathmatch@@HPBU34@ABU34@U_Iterator_base12@2@@std@@QAE@ABU01@@Z 00431bf0 f i deathmatch.obj
 0001:00030c20       ??0?$_Iterator012@Urandom_access_iterator_tag@std@@Ust_fighters@CDeathmatch@@HPBU34@ABU34@U_Iterator_base12@2@@std@@QAE@XZ 00431c20 f i deathmatch.obj
 0001:00030c50       ??0?$_Vector_alloc@$0A@U?$_Vec_base_types@Ust_fighters@CDeathmatch@@V?$allocator@Ust_fighters@CDeathmatch@@@std@@@std@@@std@@QAE@ABV?$allocator@Ust_fighters@CDeathmatch@@@1@@Z 00431c50 f i deathmatch.obj
 0001:00030cd0       ??0?$_Vector_const_iterator@V?$_Vector_val@U?$_Simple_types@Ust_fighters@CDeathmatch@@@std@@@std@@@std@@QAE@ABV01@@Z 00431cd0 f i deathmatch.obj
 0001:00030d10       ??0?$_Vector_const_iterator@V?$_Vector_val@U?$_Simple_types@Ust_fighters@CDeathmatch@@@std@@@std@@@std@@QAE@PAUst_fighters@CDeathmatch@@PBU_Container_base12@1@@Z 00431d10 f i deathmatch.obj
 0001:00030da0       ??0?$_Vector_iterator@V?$_Vector_val@U?$_Simple_types@Ust_fighters@CDeathmatch@@@std@@@std@@@std@@QAE@ABV01@@Z 00431da0 f i deathmatch.obj
 0001:00030dd0       ??0?$_Vector_iterator@V?$_Vector_val@U?$_Simple_types@Ust_fighters@CDeathmatch@@@std@@@std@@@std@@QAE@PAUst_fighters@CDeathmatch@@PBU_Container_base12@1@@Z 00431dd0 f i deathmatch.obj
 0001:00030e10       ??0?$_Vector_val@U?$_Simple_types@Ust_fighters@CDeathmatch@@@std@@@std@@QAE@XZ 00431e10 f i deathmatch.obj
 0001:00030e60       ??0?$_Wrap_alloc@V?$allocator@Ust_fighters@CDeathmatch@@@std@@@std@@QAE@XZ 00431e60 f i deathmatch.obj
 0001:00030e90       ??0?$allocator@Ust_fighters@CDeathmatch@@@std@@QAE@XZ 00431e90 f i deathmatch.obj
 0001:00030eb0       ??0?$vector@Ust_fighters@CDeathmatch@@V?$allocator@Ust_fighters@CDeathmatch@@@std@@@std@@QAE@XZ 00431eb0 f i deathmatch.obj
 0001:00030ee0       ??0CDeathmatch@@QAE@XZ     00431ee0 f   deathmatch.obj
 0001:00030f10       ??0st_fighters@CDeathmatch@@QAE@XZ 00431f10 f i deathmatch.obj
 0001:00030f30       ??1?$_Iterator012@Urandom_access_iterator_tag@std@@Ust_fighters@CDeathmatch@@HPBU34@ABU34@U_Iterator_base12@2@@std@@QAE@XZ 00431f30 f i deathmatch.obj
 0001:00030f60       ??1?$_Vector_alloc@$0A@U?$_Vec_base_types@Ust_fighters@CDeathmatch@@V?$allocator@Ust_fighters@CDeathmatch@@@std@@@std@@@std@@QAE@XZ 00431f60 f i deathmatch.obj
 0001:00030f90       ??1?$_Vector_const_iterator@V?$_Vector_val@U?$_Simple_types@Ust_fighters@CDeathmatch@@@std@@@std@@@std@@QAE@XZ 00431f90 f i deathmatch.obj
 0001:00030fc0       ??1?$_Vector_iterator@V?$_Vector_val@U?$_Simple_types@Ust_fighters@CDeathmatch@@@std@@@std@@@std@@QAE@XZ 00431fc0 f i deathmatch.obj
 0001:00030ff0       ??1?$_Vector_val@U?$_Simple_types@Ust_fighters@CDeathmatch@@@std@@@std@@QAE@XZ 00431ff0 f i deathmatch.obj
 0001:00031020       ??1?$vector@Ust_fighters@CDeathmatch@@V?$allocator@Ust_fighters@CDeathmatch@@@std@@@std@@QAE@XZ 00432020 f i deathmatch.obj
 0001:00031050       ??1CDeathmatch@@QAE@XZ     00432050 f   deathmatch.obj
 0001:00031080       ??8?$_Vector_const_iterator@V?$_Vector_val@U?$_Simple_types@Ust_fighters@CDeathmatch@@@std@@@std@@@std@@QBE_NABV01@@Z 00432080 f i deathmatch.obj
 0001:000310e0       ??9?$_Vector_const_iterator@V?$_Vector_val@U?$_Simple_types@Ust_fighters@CDeathmatch@@@std@@@std@@@std@@QBE_NABV01@@Z 004320e0 f i deathmatch.obj
 0001:00031130       ??A?$vector@Ust_fighters@CDeathmatch@@V?$allocator@Ust_fighters@CDeathmatch@@@std@@@std@@QAEAAUst_fighters@CDeathmatch@@I@Z 00432130 f i deathmatch.obj
 0001:00031270       ??G?$_Vector_const_iterator@V?$_Vector_val@U?$_Simple_types@Ust_fighters@CDeathmatch@@@std@@@std@@@std@@QBEHABV01@@Z 00432270 f i deathmatch.obj
 0001:000312c0       ??G?$_Vector_iterator@V?$_Vector_val@U?$_Simple_types@Ust_fighters@CDeathmatch@@@std@@@std@@@std@@QBEHABV?$_Vector_const_iterator@V?$_Vector_val@U?$_Simple_types@Ust_fighters@CDeathmatch@@@std@@@std@@@1@@Z 004322c0 f i deathmatch.obj
 0001:000312f0       ??H?$_Vector_iterator@V?$_Vector_val@U?$_Simple_types@Ust_fighters@CDeathmatch@@@std@@@std@@@std@@QBE?AV01@H@Z 004322f0 f i deathmatch.obj
 0001:000313a0       ??M?$_Vector_const_iterator@V?$_Vector_val@U?$_Simple_types@Ust_fighters@CDeathmatch@@@std@@@std@@@std@@QBE_NABV01@@Z 004323a0 f i deathmatch.obj
 0001:00031440       ??Y?$_Vector_const_iterator@V?$_Vector_val@U?$_Simple_types@Ust_fighters@CDeathmatch@@@std@@@std@@@std@@QAEAAV01@H@Z 00432440 f i deathmatch.obj
 0001:00031540       ??Y?$_Vector_iterator@V?$_Vector_val@U?$_Simple_types@Ust_fighters@CDeathmatch@@@std@@@std@@@std@@QAEAAV01@H@Z 00432540 f i deathmatch.obj
 0001:00031570       ?End@CDeathmatch@@QAEXH@Z  00432570 f   deathmatch.obj
 0001:000316c0       ?WinnerReward@CDeathmatch@@QAEXH@Z 004326c0 f   deathmatch.obj
 0001:00031780       ?_Alloc_proxy@?$_Vector_alloc@$0A@U?$_Vec_base_types@Ust_fighters@CDeathmatch@@V?$allocator@Ust_fighters@CDeathmatch@@@std@@@std@@@std@@QAEXXZ 00432780 f i deathmatch.obj
 0001:000317e0       ?_Compat@?$_Vector_const_iterator@V?$_Vector_val@U?$_Simple_types@Ust_fighters@CDeathmatch@@@std@@@std@@@std@@QBEXABV12@@Z 004327e0 f i deathmatch.obj
 0001:000318b0       ?_Destroy@?$vector@Ust_fighters@CDeathmatch@@V?$allocator@Ust_fighters@CDeathmatch@@@std@@@std@@IAEXPAUst_fighters@CDeathmatch@@0@Z 004328b0 f i deathmatch.obj
 0001:00031900       ?_Free_proxy@?$_Vector_alloc@$0A@U?$_Vec_base_types@Ust_fighters@CDeathmatch@@V?$allocator@Ust_fighters@CDeathmatch@@@std@@@std@@@std@@QAEXXZ 00432900 f i deathmatch.obj
 0001:00031960       ?_Getal@?$_Vector_alloc@$0A@U?$_Vec_base_types@Ust_fighters@CDeathmatch@@V?$allocator@Ust_fighters@CDeathmatch@@@std@@@std@@@std@@QBE?AU?$_Wrap_alloc@V?$allocator@Ust_fighters@CDeathmatch@@@std@@@2@XZ 00432960 f i deathmatch.obj
 0001:00031990       ?_Grow_to@?$vector@Ust_fighters@CDeathmatch@@V?$allocator@Ust_fighters@CDeathmatch@@@std@@@std@@IBEII@Z 00432990 f i deathmatch.obj
 0001:00031a10       ?_Inside@?$vector@Ust_fighters@CDeathmatch@@V?$allocator@Ust_fighters@CDeathmatch@@@std@@@std@@IBE_NPBUst_fighters@CDeathmatch@@@Z 00432a10 f i deathmatch.obj
 0001:00031a60       ?_Make_iter@?$vector@Ust_fighters@CDeathmatch@@V?$allocator@Ust_fighters@CDeathmatch@@@std@@@std@@QBE?AV?$_Vector_iterator@V?$_Vector_val@U?$_Simple_types@Ust_fighters@CDeathmatch@@@std@@@std@@@2@V?$_Vector_const_iterator@V?$_Vector_val@U?$_Simple_types@Ust_fighters@CDeathmatch@@@std@@@std@@@2@@Z 00432a60 f i deathmatch.obj
 0001:00031b00       ?_Orphan_range@?$vector@Ust_fighters@CDeathmatch@@V?$allocator@Ust_fighters@CDeathmatch@@@std@@@std@@IBEXPAUst_fighters@CDeathmatch@@0@Z 00432b00 f i deathmatch.obj
 0001:00031bf0       ?_Reallocate@?$vector@Ust_fighters@CDeathmatch@@V?$allocator@Ust_fighters@CDeathmatch@@@std@@@std@@IAEXI@Z 00432bf0 f i deathmatch.obj
 0001:00031d80       ?_Reserve@?$vector@Ust_fighters@CDeathmatch@@V?$allocator@Ust_fighters@CDeathmatch@@@std@@@std@@IAEXI@Z 00432d80 f i deathmatch.obj
 0001:00031e00       ?_Tidy@?$vector@Ust_fighters@CDeathmatch@@V?$allocator@Ust_fighters@CDeathmatch@@@std@@@std@@IAEXXZ 00432e00 f i deathmatch.obj
 0001:00031eb0       ?_Unchecked@?$_Vector_iterator@V?$_Vector_val@U?$_Simple_types@Ust_fighters@CDeathmatch@@@std@@@std@@@std@@QBEPAUst_fighters@CDeathmatch@@XZ 00432eb0 f i deathmatch.obj
 0001:00031ed0       ?_Unused_capacity@?$vector@Ust_fighters@CDeathmatch@@V?$allocator@Ust_fighters@CDeathmatch@@@std@@@std@@QBEIXZ 00432ed0 f i deathmatch.obj
 0001:00031f00       ?_Xlen@?$vector@Ust_fighters@CDeathmatch@@V?$allocator@Ust_fighters@CDeathmatch@@@std@@@std@@IBEXXZ 00432f00 f i deathmatch.obj
 0001:00031f30       ?add_deaths@CDeathmatch@@QAEXPADH@Z 00432f30 f   deathmatch.obj
 0001:00031fd0       ?add_fighter@CDeathmatch@@QAEXPAD@Z 00432fd0 f   deathmatch.obj
 0001:00032080       ?add_kills@CDeathmatch@@QAEXPADH@Z 00433080 f   deathmatch.obj
 0001:00032120       ?allocate@?$_Wrap_alloc@V?$allocator@Ust_fighters@CDeathmatch@@@std@@@std@@QAEPAUst_fighters@CDeathmatch@@I@Z 00433120 f i deathmatch.obj
 0001:00032150       ?allocate@?$allocator@Ust_fighters@CDeathmatch@@@std@@QAEPAUst_fighters@CDeathmatch@@I@Z 00433150 f i deathmatch.obj
 0001:00032180       ?begin@?$vector@Ust_fighters@CDeathmatch@@V?$allocator@Ust_fighters@CDeathmatch@@@std@@@std@@QAE?AV?$_Vector_iterator@V?$_Vector_val@U?$_Simple_types@Ust_fighters@CDeathmatch@@@std@@@std@@@2@XZ 00433180 f i deathmatch.obj
 0001:000321c0       ?capacity@?$vector@Ust_fighters@CDeathmatch@@V?$allocator@Ust_fighters@CDeathmatch@@@std@@@std@@QBEIXZ 004331c0 f i deathmatch.obj
 0001:000321f0       ?clear@?$vector@Ust_fighters@CDeathmatch@@V?$allocator@Ust_fighters@CDeathmatch@@@std@@@std@@QAEXXZ 004331f0 f i deathmatch.obj
 0001:00032240       ?construct@?$allocator@Ust_fighters@CDeathmatch@@@std@@QAEXPAUst_fighters@CDeathmatch@@ABU34@@Z 00433240 f i deathmatch.obj
 0001:000322c0       ?deallocate@?$_Wrap_alloc@V?$allocator@Ust_fighters@CDeathmatch@@@std@@@std@@QAEXPAUst_fighters@CDeathmatch@@I@Z 004332c0 f i deathmatch.obj
 0001:000322f0       ?deallocate@?$allocator@Ust_fighters@CDeathmatch@@@std@@QAEXPAUst_fighters@CDeathmatch@@I@Z 004332f0 f i deathmatch.obj
 0001:00032320       ?disable@CDeathmatch@@QAEXXZ 00433320 f   deathmatch.obj
 0001:00032370       ?enable@CDeathmatch@@QAEXXZ 00433370 f   deathmatch.obj
 0001:000323f0       ?end@?$vector@Ust_fighters@CDeathmatch@@V?$allocator@Ust_fighters@CDeathmatch@@@std@@@std@@QAE?AV?$_Vector_iterator@V?$_Vector_val@U?$_Simple_types@Ust_fighters@CDeathmatch@@@std@@@std@@@2@XZ 004333f0 f i deathmatch.obj
 0001:00032430       ?erase@?$vector@Ust_fighters@CDeathmatch@@V?$allocator@Ust_fighters@CDeathmatch@@@std@@@std@@QAE?AV?$_Vector_iterator@V?$_Vector_val@U?$_Simple_types@Ust_fighters@CDeathmatch@@@std@@@std@@@2@V?$_Vector_const_iterator@V?$_Vector_val@U?$_Simple_types@Ust_fighters@CDeathmatch@@@std@@@std@@@2@@Z 00433430 f i deathmatch.obj
 0001:00032590       ?get_deaths@CDeathmatch@@QAEHPAD@Z 00433590 f   deathmatch.obj
 0001:00032610       ?get_kills@CDeathmatch@@QAEHPAD@Z 00433610 f   deathmatch.obj
 0001:00032690       ?getranking@CDeathmatch@@QAEXH@Z 00433690 f   deathmatch.obj
 0001:000326f0       ?is_fighter@CDeathmatch@@QAE_NPAD@Z 004336f0 f   deathmatch.obj
 0001:00032760       ?join_event@CDeathmatch@@QAEXH@Z 00433760 f   deathmatch.obj
 0001:000328e0       ?kill_enemy@CDeathmatch@@QAEXHH@Z 004338e0 f   deathmatch.obj
 0001:000329f0       ?max_size@?$_Wrap_alloc@V?$allocator@Ust_fighters@CDeathmatch@@@std@@@std@@QBEIXZ 004339f0 f i deathmatch.obj
 0001:00032a20       ?max_size@?$allocator@Ust_fighters@CDeathmatch@@@std@@QBEIXZ 00433a20 f i deathmatch.obj
 0001:00032a40       ?max_size@?$allocator_traits@V?$allocator@Ust_fighters@CDeathmatch@@@std@@@std@@SAIABV?$allocator@Ust_fighters@CDeathmatch@@@2@@Z 00433a40 f i deathmatch.obj
 0001:00032a60       ?max_size@?$vector@Ust_fighters@CDeathmatch@@V?$allocator@Ust_fighters@CDeathmatch@@@std@@@std@@QBEIXZ 00433a60 f i deathmatch.obj
 0001:00032a90       ?not_revive@CDeathmatch@@QAEXH@Z 00433a90 f   deathmatch.obj
 0001:00032cf0       ?notify@CDeathmatch@@QAEXHH@Z 00433cf0 f   deathmatch.obj
 0001:00032e40       ?notify_points@CDeathmatch@@QAEXHHH@Z 00433e40 f   deathmatch.obj
 0001:00032f50       ?push_back@?$vector@Ust_fighters@CDeathmatch@@V?$allocator@Ust_fighters@CDeathmatch@@@std@@@std@@QAEXABUst_fighters@CDeathmatch@@@Z 00433f50 f i deathmatch.obj
 0001:000330b0       ?remove_fighter@CDeathmatch@@QAEXPAD@Z 004340b0 f   deathmatch.obj
 0001:00033220       ?request_revive@CDeathmatch@@QAEXH@Z 00434220 f   deathmatch.obj
 0001:000332a0       ?revive@CDeathmatch@@QAEXH@Z 004342a0 f   deathmatch.obj
 0001:000334d0       ?send_top10@CDeathmatch@@QAEXH@Z 004344d0 f   deathmatch.obj
 0001:000336f0       ?size@?$vector@Ust_fighters@CDeathmatch@@V?$allocator@Ust_fighters@CDeathmatch@@@std@@@std@@QBEIXZ 004346f0 f i deathmatch.obj
 0001:00033720       ?sort_fighters@CDeathmatch@@QAEXXZ 00434720 f   deathmatch.obj
 0001:00033780       ??0CDelayEvent@@QAE@XZ     00434780 f   DelayEvent.obj
 0001:000337b0       ??1CDelayEvent@@UAE@XZ     004347b0 f   DelayEvent.obj
 0001:000337e0       ??_ECDelayEvent@@UAEPAXI@Z 004347e0 f i DelayEvent.obj
 0001:000337e0       ??_GCDelayEvent@@UAEPAXI@Z 004347e0 f i DelayEvent.obj
 0001:00033830       ??0CDynamicObject@@QAE@FDFDFFKKH@Z 00434830 f   DynamicObject.obj
 0001:000338e0       ??1CDynamicObject@@UAE@XZ  004348e0 f   DynamicObject.obj
 0001:00033910       ??_ECDynamicObject@@UAEPAXI@Z 00434910 f i DynamicObject.obj
 0001:00033910       ??_GCDynamicObject@@UAEPAXI@Z 00434910 f i DynamicObject.obj
 0001:00033960       ??0?$basic_ofstream@DU?$char_traits@D@std@@@std@@QAE@XZ 00434960 f i Event.obj
 0001:00033a60       ??0?$basic_ostream@DU?$char_traits@D@std@@@std@@QAE@PAV?$basic_streambuf@DU?$char_traits@D@std@@@1@_N@Z 00434a60 f i Event.obj
 0001:00033b50       ??0Event@@QAE@XZ           00434b50 f   Event.obj
 0001:00033b80       ??1?$basic_ofstream@DU?$char_traits@D@std@@@std@@UAE@XZ 00434b80 f i Event.obj
 0001:00033bf0       ??1?$basic_ostream@DU?$char_traits@D@std@@@std@@UAE@XZ 00434bf0 f i Event.obj
 0001:00033c50       ??1Event@@UAE@XZ           00434c50 f   Event.obj
 0001:00033c80       ??_D?$basic_ofstream@DU?$char_traits@D@std@@@std@@QAEXXZ 00434c80 f i Event.obj
 0001:00033cc0       ??_D?$basic_ostream@DU?$char_traits@D@std@@@std@@QAEXXZ 00434cc0 f i Event.obj
 0001:00033cf3       ??_E?$basic_ofstream@DU?$char_traits@D@std@@@std@@$4PPPPPPPM@A@AEPAXI@Z 00434cf3 f i Event.obj
 0001:00033cfd       ??_E?$basic_ostream@DU?$char_traits@D@std@@@std@@$4PPPPPPPM@A@AEPAXI@Z 00434cfd f i Event.obj
 0001:00033d10       ??_G?$basic_ofstream@DU?$char_traits@D@std@@@std@@UAEPAXI@Z 00434d10 f i Event.obj
 0001:00033d10       ??_E?$basic_ofstream@DU?$char_traits@D@std@@@std@@UAEPAXI@Z 00434d10 f i Event.obj
 0001:00033d60       ??_E?$basic_ostream@DU?$char_traits@D@std@@@std@@UAEPAXI@Z 00434d60 f i Event.obj
 0001:00033d60       ??_G?$basic_ostream@DU?$char_traits@D@std@@@std@@UAEPAXI@Z 00434d60 f i Event.obj
 0001:00033db0       ??_GEvent@@UAEPAXI@Z       00434db0 f i Event.obj
 0001:00033db0       ??_EEvent@@UAEPAXI@Z       00434db0 f i Event.obj
 0001:00033e00       ?Activate@Handler@Event@@QAEXW4EventID@@@Z 00434e00 f   Event.obj
 0001:00034050       ?Deactivate@Handler@Event@@QAEXW4EventID@@@Z 00435050 f   Event.obj
 0001:00034200       ?JoinEvent@Event@@UAEXH@Z  00435200 f i Event.obj
 0001:00034220       ?LoginNotify@Handler@Event@@QAEXH@Z 00435220 f   Event.obj
 0001:000342d0       ?NotifyStatus@Handler@Event@@QAEXW4EventID@@@Z 004352d0 f   Event.obj
 0001:00034390       ?Teleport@Handler@Event@@QAEXW4EventID@@PAVCClient@@@Z 00435390 f   Event.obj
 0001:00034420       ?Toggle@Handler@Event@@QAEXW4EventID@@@Z 00435420 f   Event.obj
 0001:00034480       ??0CFish@@QAE@DFFFPAVCItem@@H@Z 00435480 f   Fish.obj
 0001:00034520       ??1CFish@@UAE@XZ           00435520 f   Fish.obj
 0001:00034590       ??_ECFish@@UAEPAXI@Z       00435590 f i Fish.obj
 0001:00034590       ??_GCFish@@UAEPAXI@Z       00435590 f i Fish.obj
 0001:000345e0       ??$?0AAV?$_Tree_iterator@V?$_Tree_val@U?$_Tree_simple_types@U?$pair@$$CBFH@std@@@std@@@std@@@std@@_NX@?$pair@V?$_Tree_iterator@V?$_Tree_val@U?$_Tree_simple_types@U?$pair@$$CBFH@std@@@std@@@std@@@std@@_N@std@@QAE@AAV?$_Tree_iterator@V?$_Tree_val@U?$_Tree_simple_types@U?$pair@$$CBFH@std@@@std@@@std@@@1@$$QA_N@Z 004355e0 f i MapServer.obj
 0001:00034680       ??$?0ABF$$$V@?$pair@$$CBFH@std@@QAE@Upiecewise_construct_t@1@V?$tuple@ABF@1@V?$tuple@$$$V@1@@Z 00435680 f i MapServer.obj
 0001:000346d0       ??$?0ABF@?$_Tuple_val@ABF@std@@QAE@ABF@Z 004356d0 f i MapServer.obj
 0001:00034710       ??$?0ABFPAPAX@?$tuple@ABF@std@@QAE@$$QAV01@@Z 00435710 f i MapServer.obj
 0001:00034770       ??$?0HX@?$duration@_JU?$ratio@$00$00@std@@@chrono@std@@QAE@ABH@Z 00435770 f i MapServer.obj
 0001:000347a0       ??$?0U?$_Tree_node@U?$pair@$$CBFH@std@@PAX@std@@@?$allocator@U_Container_proxy@std@@@std@@QAE@ABV?$allocator@U?$_Tree_node@U?$pair@$$CBFH@std@@PAX@std@@@1@@Z 004357a0 f i MapServer.obj
 0001:000347c0       ??$?0U?$_Wrap_alloc@V?$allocator@U?$_Tree_node@U?$pair@$$CBFH@std@@PAX@std@@@std@@@std@@@?$_Wrap_alloc@V?$allocator@U_Container_proxy@std@@@std@@@std@@QAE@ABU?$_Wrap_alloc@V?$allocator@U?$_Tree_node@U?$pair@$$CBFH@std@@PAX@std@@@std@@@1@@Z 004357c0 f i MapServer.obj
 0001:000347f0       ??$?0V<lambda_b6405dba1db49920a5b2a7d45a72ec33>@@$$$V@?$_Bind@$0A@XV<lambda_b6405dba1db49920a5b2a7d45a72ec33>@@$$$V@std@@QAE@$$QAV<lambda_b6405dba1db49920a5b2a7d45a72ec33>@@@Z 004357f0 f i MapServer.obj
 0001:00034840       ??$?0V<lambda_b6405dba1db49920a5b2a7d45a72ec33>@@$$$V@thread@std@@QAE@$$QAV<lambda_b6405dba1db49920a5b2a7d45a72ec33>@@@Z 00435840 f i MapServer.obj
 0001:000348a0       ??$?0V?$_Bind@$0A@XV<lambda_b6405dba1db49920a5b2a7d45a72ec33>@@$$$V@std@@@?$_LaunchPad@V?$_Bind@$0A@XV<lambda_b6405dba1db49920a5b2a7d45a72ec33>@@$$$V@std@@@std@@QAE@$$QAV?$_Bind@$0A@XV<lambda_b6405dba1db49920a5b2a7d45a72ec33>@@$$$V@1@@Z 004358a0 f i MapServer.obj
 0001:00034940       ??$?0V?$_Tree_iterator@V?$_Tree_val@U?$_Tree_simple_types@U?$pair@$$CBFH@std@@@std@@@std@@@std@@_NX@?$pair@V?$_Tree_iterator@V?$_Tree_val@U?$_Tree_simple_types@U?$pair@$$CBFH@std@@@std@@@std@@@std@@_N@std@@QAE@$$QAV?$_Tree_iterator@V?$_Tree_val@U?$_Tree_simple_types@U?$pair@$$CBFH@std@@@std@@@std@@@1@$$QA_N@Z 00435940 f i MapServer.obj
 0001:000349e0       ??$?0V?$tuple@ABF@std@@V?$tuple@$$$V@1@$0A@$S@?$pair@$$CBFH@std@@QAE@AAV?$tuple@ABF@1@AAV?$tuple@$$$V@1@U?$_Arg_idx@$0A@@1@U?$_Arg_idx@$S@1@@Z 004359e0 f i MapServer.obj
 0001:00034a30       ??$?0_JU?$ratio@$00$00@std@@X@?$duration@_JU?$ratio@$00$0DLJKMKAA@@std@@@chrono@std@@QAE@ABV?$duration@_JU?$ratio@$00$00@std@@@12@@Z 00435a30 f i MapServer.obj
 0001:00034a80       ??$?0_JU?$ratio@$00$0JIJGIA@@std@@X@?$duration@_JU?$ratio@$00$0DLJKMKAA@@std@@@chrono@std@@QAE@ABV?$duration@_JU?$ratio@$00$0JIJGIA@@std@@@12@@Z 00435a80 f i MapServer.obj
 0001:00034ad0       ??$?0_JX@?$duration@_JU?$ratio@$00$00@std@@@chrono@std@@QAE@AB_J@Z 00435ad0 f i MapServer.obj
 0001:00034b10       ??$?0_JX@?$duration@_JU?$ratio@$00$0DLJKMKAA@@std@@@chrono@std@@QAE@AB_J@Z 00435b10 f i MapServer.obj
 0001:00034b50       ??$?0_JX@?$duration@_JU?$ratio@$00$0JIJGIA@@std@@@chrono@std@@QAE@AB_J@Z 00435b50 f i MapServer.obj
 0001:00034b90       ??$?6DU?$char_traits@D@std@@V?$allocator@D@1@@std@@YAAAV?$basic_ostream@DU?$char_traits@D@std@@@0@AAV10@ABV?$basic_string@DU?$char_traits@D@std@@V?$allocator@D@2@@0@@Z 00435b90 f i MapServer.obj
 0001:00034f60       ??$?8DU?$char_traits@D@std@@V?$allocator@D@1@@std@@YA_NPBDABV?$basic_string@DU?$char_traits@D@std@@V?$allocator@D@2@@0@@Z 00435f60 f i MapServer.obj
 0001:00034fa0       ??$?9DU?$char_traits@D@std@@V?$allocator@D@1@@std@@YA_NABV?$basic_string@DU?$char_traits@D@std@@V?$allocator@D@2@@0@PBD@Z 00435fa0 f i MapServer.obj
 0001:00034ff0       ??$?HDU?$char_traits@D@std@@V?$allocator@D@1@@std@@YA?AV?$basic_string@DU?$char_traits@D@std@@V?$allocator@D@2@@0@$$QAV10@PBD@Z 00435ff0 f i MapServer.obj
 0001:00035050       ??$?M_JU?$ratio@$00$00@std@@_JU01@@chrono@std@@YA_NABV?$duration@_JU?$ratio@$00$00@std@@@01@0@Z 00436050 f i MapServer.obj
 0001:000350e0       ??$?N_JU?$ratio@$00$00@std@@_JU01@@chrono@std@@YA_NABV?$duration@_JU?$ratio@$00$00@std@@@01@0@Z 004360e0 f i MapServer.obj
 0001:00035130       ??$?R$$$V@?$_Bind@$0A@XV<lambda_b6405dba1db49920a5b2a7d45a72ec33>@@$$$V@std@@QAEXXZ 00436130 f i MapServer.obj
 0001:00035430       ??$_Allocate@U?$_Tree_node@U?$pair@$$CBFH@std@@PAX@std@@@std@@YAPAU?$_Tree_node@U?$pair@$$CBFH@std@@PAX@0@IPAU10@@Z 00436430 f i MapServer.obj
 0001:00035490       ??$_Allocate@UMarketItem@?N@??RequestMarketItems@CMapServer@@QAEXHPAD@Z@@std@@YAPAUMarketItem@?N@??RequestMarketItems@CMapServer@@QAEXHPAD@Z@IPAU1?N@??23@QAEXH0@Z@@Z 00436490 f i MapServer.obj
 0001:000354f0       ??$_Allocate@Ust_objects@CMapServer@@@std@@YAPAUst_objects@CMapServer@@IPAU12@@Z 004364f0 f i MapServer.obj
 0001:00035550       ??$_Buynode@ABUpiecewise_construct_t@std@@V?$tuple@ABF@2@V?$tuple@$$$V@2@@?$_Tree_buy@U?$pair@$$CBFH@std@@V?$allocator@U?$pair@$$CBFH@std@@@2@@std@@QAEPAU?$_Tree_node@U?$pair@$$CBFH@std@@PAX@1@ABUpiecewise_construct_t@1@$$QAV?$tuple@ABF@1@$$QAV?$tuple@$$$V@1@@Z 00436550 f i MapServer.obj
 0001:000356b0       ??$_Buynode_if_nil@AAU?$pair@$$CBFH@std@@@?$_Tree@V?$_Tmap_traits@FHU?$less@F@std@@V?$allocator@U?$pair@$$CBFH@std@@@2@$0A@@std@@@std@@IAEPAU?$_Tree_node@U?$pair@$$CBFH@std@@PAX@1@PAU21@AAU?$pair@$$CBFH@1@@Z 004366b0 f i MapServer.obj
 0001:000356d0       ??$_Debug_lt_pred@U?$less@F@std@@ABFABF@std@@YA_NU?$less@F@0@ABF1PB_WI@Z 004366d0 f i MapServer.obj
 0001:00035770       ??$_Debug_pointer@UMarketItem@?N@??RequestMarketItems@CMapServer@@QAEXHPAD@Z@@std@@YAXPAUMarketItem@?N@??RequestMarketItems@CMapServer@@QAEXHPAD@Z@PB_WI@Z 00436770 f i MapServer.obj
 0001:000357b0       ??$_Debug_pointer@Ust_objects@CMapServer@@@std@@YAXPAUst_objects@CMapServer@@PB_WI@Z 004367b0 f i MapServer.obj
 0001:000357f0       ??$_Debug_range2@PAUMarketItem@?N@??RequestMarketItems@CMapServer@@QAEXHPAD@Z@@std@@YAXPAUMarketItem@?N@??RequestMarketItems@CMapServer@@QAEXHPAD@Z@1PB_WIUrandom_access_iterator_tag@0@@Z 004367f0 f i MapServer.obj
 0001:00035870       ??$_Debug_range2@PAUst_objects@CMapServer@@@std@@YAXPAUst_objects@CMapServer@@0PB_WIUrandom_access_iterator_tag@0@@Z 00436870 f i MapServer.obj
 0001:000358f0       ??$_Debug_range@PAUMarketItem@?N@??RequestMarketItems@CMapServer@@QAEXHPAD@Z@@std@@YAXPAUMarketItem@?N@??RequestMarketItems@CMapServer@@QAEXHPAD@Z@1PB_WI@Z 004368f0 f i MapServer.obj
 0001:00035940       ??$_Debug_range@PAUst_objects@CMapServer@@@std@@YAXPAUst_objects@CMapServer@@0PB_WI@Z 00436940 f i MapServer.obj
 0001:00035990       ??$_Decay_copy@V<lambda_b6405dba1db49920a5b2a7d45a72ec33>@@@std@@YA?AV<lambda_b6405dba1db49920a5b2a7d45a72ec33>@@$$QAV1@@Z 00436990 f i MapServer.obj
 0001:000359c0       ??$_Destroy_range@U?$_Wrap_alloc@V?$allocator@UMarketItem@?N@??RequestMarketItems@CMapServer@@QAEXHPAD@Z@@std@@@std@@@std@@YAXPAUMarketItem@?N@??RequestMarketItems@CMapServer@@QAEXHPAD@Z@1AAU?$_Wrap_alloc@V?$allocator@UMarketItem@?N@??RequestMarketItems@CMapServer@@QAEXHPAD@Z@@std@@@0@@Z 004369c0 f i MapServer.obj
 0001:00035a10       ??$_Destroy_range@U?$_Wrap_alloc@V?$allocator@UMarketItem@?N@??RequestMarketItems@CMapServer@@QAEXHPAD@Z@@std@@@std@@@std@@YAXPAUMarketItem@?N@??RequestMarketItems@CMapServer@@QAEXHPAD@Z@1AAU?$_Wrap_alloc@V?$allocator@UMarketItem@?N@??RequestMarketItems@CMapServer@@QAEXHPAD@Z@@std@@@0@U_Nonscalar_ptr_iterator_tag@0@@Z 00436a10 f i MapServer.obj
 0001:00035a50       ??$_Destroy_range@U?$_Wrap_alloc@V?$allocator@URebirthLevelSettings@CMapServer@@@std@@@std@@@std@@YAXPAURebirthLevelSettings@CMapServer@@0AAU?$_Wrap_alloc@V?$allocator@URebirthLevelSettings@CMapServer@@@std@@@0@@Z 00436a50 f i MapServer.obj
 0001:00035aa0       ??$_Destroy_range@U?$_Wrap_alloc@V?$allocator@URebirthLevelSettings@CMapServer@@@std@@@std@@@std@@YAXPAURebirthLevelSettings@CMapServer@@0AAU?$_Wrap_alloc@V?$allocator@URebirthLevelSettings@CMapServer@@@std@@@0@U_Nonscalar_ptr_iterator_tag@0@@Z 00436aa0 f i MapServer.obj
 0001:00035ae0       ??$_Destroy_range@U?$_Wrap_alloc@V?$allocator@Ust_objects@CMapServer@@@std@@@std@@@std@@YAXPAUst_objects@CMapServer@@0AAU?$_Wrap_alloc@V?$allocator@Ust_objects@CMapServer@@@std@@@0@@Z 00436ae0 f i MapServer.obj
 0001:00035b30       ??$_Destroy_range@U?$_Wrap_alloc@V?$allocator@Ust_objects@CMapServer@@@std@@@std@@@std@@YAXPAUst_objects@CMapServer@@0AAU?$_Wrap_alloc@V?$allocator@Ust_objects@CMapServer@@@std@@@0@U_Nonscalar_ptr_iterator_tag@0@@Z 00436b30 f i MapServer.obj
 0001:00035b70       ??$_Do_call@$$$V$S@?$_Bind@$0A@XV<lambda_b6405dba1db49920a5b2a7d45a72ec33>@@$$$V@std@@QAEXV?$tuple@$$$V@1@U?$_Arg_idx@$S@1@@Z 00436b70 f i MapServer.obj
 0001:00035ba0       ??$_Insert_at@AAU?$pair@$$CBFH@std@@PAU?$_Tree_node@U?$pair@$$CBFH@std@@PAX@2@@?$_Tree@V?$_Tmap_traits@FHU?$less@F@std@@V?$allocator@U?$pair@$$CBFH@std@@@2@$0A@@std@@@std@@IAE?AV?$_Tree_iterator@V?$_Tree_val@U?$_Tree_simple_types@U?$pair@$$CBFH@std@@@std@@@std@@@1@_NPAU?$_Tree_node@U?$pair@$$CBFH@std@@PAX@1@AAU?$pair@$$CBFH@1@1@Z 00436ba0 f i MapServer.obj
 0001:000360f0       ??$_Insert_hint@AAU?$pair@$$CBFH@std@@PAU?$_Tree_node@U?$pair@$$CBFH@std@@PAX@2@@?$_Tree@V?$_Tmap_traits@FHU?$less@F@std@@V?$allocator@U?$pair@$$CBFH@std@@@2@$0A@@std@@@std@@IAE?AV?$_Tree_iterator@V?$_Tree_val@U?$_Tree_simple_types@U?$pair@$$CBFH@std@@@std@@@std@@@1@V?$_Tree_const_iterator@V?$_Tree_val@U?$_Tree_simple_types@U?$pair@$$CBFH@std@@@std@@@std@@@1@AAU?$pair@$$CBFH@1@PAU?$_Tree_node@U?$pair@$$CBFH@std@@PAX@1@@Z 004370f0 f i MapServer.obj
 0001:00037740       ??$_Insert_nohint@AAU?$pair@$$CBFH@std@@PAU?$_Tree_node@U?$pair@$$CBFH@std@@PAX@2@@?$_Tree@V?$_Tmap_traits@FHU?$less@F@std@@V?$allocator@U?$pair@$$CBFH@std@@@2@$0A@@std@@@std@@IAE?AU?$pair@V?$_Tree_iterator@V?$_Tree_val@U?$_Tree_simple_types@U?$pair@$$CBFH@std@@@std@@@std@@@std@@_N@1@_NAAU?$pair@$$CBFH@1@PAU?$_Tree_node@U?$pair@$$CBFH@std@@PAX@1@@Z 00438740 f i MapServer.obj
 0001:00037df0       ??$_Iter_cat@PAUMarketItem@?N@??RequestMarketItems@CMapServer@@QAEXHPAD@Z@@std@@YA?AUrandom_access_iterator_tag@0@ABQAUMarketItem@?N@??RequestMarketItems@CMapServer@@QAEXHPAD@Z@@Z 00438df0 f i MapServer.obj
 0001:00037e20       ??$_Iter_cat@PAUst_objects@CMapServer@@@std@@YA?AUrandom_access_iterator_tag@0@ABQAUst_objects@CMapServer@@@Z 00438e20 f i MapServer.obj
 0001:00037e50       ??$_Kfn@$$CBFH@?$_Tmap_traits@FHU?$less@F@std@@V?$allocator@U?$pair@$$CBFH@std@@@2@$0A@@std@@SAABFABU?$pair@$$CBFH@1@@Z 00438e50 f i MapServer.obj
 0001:00037e70       ??$_Launch@V?$_Bind@$0A@XV<lambda_b6405dba1db49920a5b2a7d45a72ec33>@@$$$V@std@@@std@@YAXPAU_Thrd_imp_t@@$$QAV?$_Bind@$0A@XV<lambda_b6405dba1db49920a5b2a7d45a72ec33>@@$$$V@0@@Z 00438e70 f i MapServer.obj
 0001:00037f00       ??$_Move@AAD@std@@YA$$QADAAD@Z 00438f00 f i MapServer.obj
 0001:00037f20       ??$_Pow_int@M@@YAMMH@Z     00438f20 f i MapServer.obj
 0001:00037fe0       ??$_Ptr_cat@UMarketItem@?N@??RequestMarketItems@CMapServer@@QAEXHPAD@Z@U1?N@??23@QAEXH0@Z@@std@@YA?AU_Nonscalar_ptr_iterator_tag@0@PAUMarketItem@?N@??RequestMarketItems@CMapServer@@QAEXHPAD@Z@1@Z 00438fe0 f i MapServer.obj
 0001:00038000       ??$_Ptr_cat@URebirthLevelSettings@CMapServer@@U12@@std@@YA?AU_Nonscalar_ptr_iterator_tag@0@PAURebirthLevelSettings@CMapServer@@0@Z 00439000 f i MapServer.obj
 0001:00038020       ??$_Ptr_cat@Ust_objects@CMapServer@@U12@@std@@YA?AU_Nonscalar_ptr_iterator_tag@0@PAUst_objects@CMapServer@@0@Z 00439020 f i MapServer.obj
 0001:00038040       ??$_Rechecked@PAUMarketItem@?N@??RequestMarketItems@CMapServer@@QAEXHPAD@Z@PAU1?N@??23@QAEXH0@Z@@std@@YAAAPAUMarketItem@?N@??RequestMarketItems@CMapServer@@QAEXHPAD@Z@AAPAU1?N@??23@QAEXH0@Z@PAU1?N@??23@QAEXH0@Z@@Z 00439040 f i MapServer.obj
 0001:00038070       ??$_Rechecked@PAUst_objects@CMapServer@@PAU12@@std@@YAAAPAUst_objects@CMapServer@@AAPAU12@PAU12@@Z 00439070 f i MapServer.obj
 0001:000380a0       ??$_To_xtime@_JU?$ratio@$00$00@std@@@std@@YA?AUxtime@@ABV?$duration@_JU?$ratio@$00$00@std@@@chrono@0@@Z 004390a0 f i MapServer.obj
 0001:000381f0       ??$_Umove@PAUMarketItem@?N@??RequestMarketItems@CMapServer@@QAEXHPAD@Z@@?$vector@UMarketItem@?N@??RequestMarketItems@CMapServer@@QAEXHPAD@Z@V?$allocator@UMarketItem@?N@??RequestMarketItems@CMapServer@@QAEXHPAD@Z@@std@@@std@@IAEPAUMarketItem@?N@??RequestMarketItems@CMapServer@@QAEXHPAD@Z@PAU2?N@??34@QAEXH0@Z@11@Z 004391f0 f i MapServer.obj
 0001:00038240       ??$_Umove@PAUst_objects@CMapServer@@@?$vector@Ust_objects@CMapServer@@V?$allocator@Ust_objects@CMapServer@@@std@@@std@@IAEPAUst_objects@CMapServer@@PAU23@00@Z 00439240 f i MapServer.obj
 0001:00038290       ??$_Unchecked@PAUMarketItem@?N@??RequestMarketItems@CMapServer@@QAEXHPAD@Z@@std@@YAPAUMarketItem@?N@??RequestMarketItems@CMapServer@@QAEXHPAD@Z@PAU1?N@??23@QAEXH0@Z@@Z 00439290 f i MapServer.obj
 0001:000382b0       ??$_Unchecked@PAUst_objects@CMapServer@@@std@@YAPAUst_objects@CMapServer@@PAU12@@Z 004392b0 f i MapServer.obj
 0001:000382d0       ??$_Uninit_move@PAUMarketItem@?N@??RequestMarketItems@CMapServer@@QAEXHPAD@Z@PAU1?N@??23@QAEXH0@Z@U?$_Wrap_alloc@V?$allocator@UMarketItem@?N@??RequestMarketItems@CMapServer@@QAEXHPAD@Z@@std@@@std@@@std@@YAPAUMarketItem@?N@??RequestMarketItems@CMapServer@@QAEXHPAD@Z@PAU1?N@??23@QAEXH0@Z@11AAU?$_Wrap_alloc@V?$allocator@UMarketItem@?N@??RequestMarketItems@CMapServer@@QAEXHPAD@Z@@std@@@0@@Z 004392d0 f i MapServer.obj
 0001:00038330       ??$_Uninit_move@PAUMarketItem@?N@??RequestMarketItems@CMapServer@@QAEXHPAD@Z@PAU1?N@??23@QAEXH0@Z@V?$allocator@UMarketItem@?N@??RequestMarketItems@CMapServer@@QAEXHPAD@Z@@std@@U1?N@??23@QAEXH0@Z@@std@@YAPAUMarketItem@?N@??RequestMarketItems@CMapServer@@QAEXHPAD@Z@PAU1?N@??23@QAEXH0@Z@11AAU?$_Wrap_alloc@V?$allocator@UMarketItem@?N@??RequestMarketItems@CMapServer@@QAEXHPAD@Z@@std@@@0@1U_Nonscalar_ptr_iterator_tag@0@@Z 00439330 f i MapServer.obj
 0001:00038460       ??$_Uninit_move@PAUst_objects@CMapServer@@PAU12@U?$_Wrap_alloc@V?$allocator@Ust_objects@CMapServer@@@std@@@std@@@std@@YAPAUst_objects@CMapServer@@PAU12@00AAU?$_Wrap_alloc@V?$allocator@Ust_objects@CMapServer@@@std@@@0@@Z 00439460 f i MapServer.obj
 0001:000384c0       ??$_Uninit_move@PAUst_objects@CMapServer@@PAU12@V?$allocator@Ust_objects@CMapServer@@@std@@U12@@std@@YAPAUst_objects@CMapServer@@PAU12@00AAU?$_Wrap_alloc@V?$allocator@Ust_objects@CMapServer@@@std@@@0@0U_Nonscalar_ptr_iterator_tag@0@@Z 004394c0 f i MapServer.obj
 0001:000385f0       ??$_Uninitialized_move@PAUMarketItem@?N@??RequestMarketItems@CMapServer@@QAEXHPAD@Z@PAU1?N@??23@QAEXH0@Z@U?$_Wrap_alloc@V?$allocator@UMarketItem@?N@??RequestMarketItems@CMapServer@@QAEXHPAD@Z@@std@@@std@@@std@@YAPAUMarketItem@?N@??RequestMarketItems@CMapServer@@QAEXHPAD@Z@PAU1?N@??23@QAEXH0@Z@11AAU?$_Wrap_alloc@V?$allocator@UMarketItem@?N@??RequestMarketItems@CMapServer@@QAEXHPAD@Z@@std@@@0@@Z 004395f0 f i MapServer.obj
 0001:00038660       ??$_Uninitialized_move@PAUst_objects@CMapServer@@PAU12@U?$_Wrap_alloc@V?$allocator@Ust_objects@CMapServer@@@std@@@std@@@std@@YAPAUst_objects@CMapServer@@PAU12@00AAU?$_Wrap_alloc@V?$allocator@Ust_objects@CMapServer@@@std@@@0@@Z 00439660 f i MapServer.obj
 0001:000386d0       ??$_Val_type@PAUMarketItem@?N@??RequestMarketItems@CMapServer@@QAEXHPAD@Z@@std@@YAPAUMarketItem@?N@??RequestMarketItems@CMapServer@@QAEXHPAD@Z@PAU1?N@??23@QAEXH0@Z@@Z 004396d0 f i MapServer.obj
 0001:000386f0       ??$_Val_type@PAUst_objects@CMapServer@@@std@@YAPAUst_objects@CMapServer@@PAU12@@Z 004396f0 f i MapServer.obj
 0001:00038710       ??$addressof@$$CBUst_objects@CMapServer@@@std@@YAPBUst_objects@CMapServer@@ABU12@@Z 00439710 f i MapServer.obj
 0001:00038730       ??$addressof@PAU?$_Tree_node@U?$pair@$$CBFH@std@@PAX@std@@@std@@YAPAPAU?$_Tree_node@U?$pair@$$CBFH@std@@PAX@0@AAPAU10@@Z 00439730 f i MapServer.obj
 0001:00038750       ??$addressof@U?$pair@$$CBFH@std@@@std@@YAPAU?$pair@$$CBFH@0@AAU10@@Z 00439750 f i MapServer.obj
 0001:00038770       ??$addressof@UMarketItem@?N@??RequestMarketItems@CMapServer@@QAEXHPAD@Z@@std@@YAPAUMarketItem@?N@??RequestMarketItems@CMapServer@@QAEXHPAD@Z@AAU1?N@??23@QAEXH0@Z@@Z 00439770 f i MapServer.obj
 0001:00038790       ??$bind@V<lambda_b6405dba1db49920a5b2a7d45a72ec33>@@$$$V@std@@YA?AV?$_Bind@$0A@XV<lambda_b6405dba1db49920a5b2a7d45a72ec33>@@$$$V@0@$$QAV<lambda_b6405dba1db49920a5b2a7d45a72ec33>@@@Z 00439790 f i MapServer.obj
 0001:000387d0       ??$construct@PAU?$_Tree_node@U?$pair@$$CBFH@std@@PAX@std@@AAPAU12@@?$_Wrap_alloc@V?$allocator@U?$_Tree_node@U?$pair@$$CBFH@std@@PAX@std@@@std@@@std@@QAEXPAPAU?$_Tree_node@U?$pair@$$CBFH@std@@PAX@1@AAPAU21@@Z 004397d0 f i MapServer.obj
 0001:00038810       ??$construct@PAU?$_Tree_node@U?$pair@$$CBFH@std@@PAX@std@@AAPAU12@@?$allocator@U?$_Tree_node@U?$pair@$$CBFH@std@@PAX@std@@@std@@QAEXPAPAU?$_Tree_node@U?$pair@$$CBFH@std@@PAX@1@AAPAU21@@Z 00439810 f i MapServer.obj
 0001:000388c0       ??$construct@PAU?$_Tree_node@U?$pair@$$CBFH@std@@PAX@std@@AAPAU12@@?$allocator_traits@V?$allocator@U?$_Tree_node@U?$pair@$$CBFH@std@@PAX@std@@@std@@@std@@SAXAAV?$allocator@U?$_Tree_node@U?$pair@$$CBFH@std@@PAX@std@@@1@PAPAU?$_Tree_node@U?$pair@$$CBFH@std@@PAX@1@AAPAU31@@Z 004398c0 f i MapServer.obj
 0001:00038900       ??$construct@U?$pair@$$CBFH@std@@ABUpiecewise_construct_t@2@V?$tuple@ABF@2@V?$tuple@$$$V@2@@?$_Wrap_alloc@V?$allocator@U?$_Tree_node@U?$pair@$$CBFH@std@@PAX@std@@@std@@@std@@QAEXPAU?$pair@$$CBFH@1@ABUpiecewise_construct_t@1@$$QAV?$tuple@ABF@1@$$QAV?$tuple@$$$V@1@@Z 00439900 f i MapServer.obj
 0001:00038960       ??$construct@U?$pair@$$CBFH@std@@ABUpiecewise_construct_t@2@V?$tuple@ABF@2@V?$tuple@$$$V@2@@?$allocator@U?$_Tree_node@U?$pair@$$CBFH@std@@PAX@std@@@std@@QAEXPAU?$pair@$$CBFH@1@ABUpiecewise_construct_t@1@$$QAV?$tuple@ABF@1@$$QAV?$tuple@$$$V@1@@Z 00439960 f i MapServer.obj
 0001:00038a50       ??$construct@U?$pair@$$CBFH@std@@ABUpiecewise_construct_t@2@V?$tuple@ABF@2@V?$tuple@$$$V@2@@?$allocator_traits@V?$allocator@U?$_Tree_node@U?$pair@$$CBFH@std@@PAX@std@@@std@@@std@@SAXAAV?$allocator@U?$_Tree_node@U?$pair@$$CBFH@std@@PAX@std@@@1@PAU?$pair@$$CBFH@1@ABUpiecewise_construct_t@1@$$QAV?$tuple@ABF@1@$$QAV?$tuple@$$$V@1@@Z 00439a50 f i MapServer.obj
 0001:00038ab0       ??$construct@UMarketItem@?N@??RequestMarketItems@CMapServer@@QAEXHPAD@Z@U1?N@??23@QAEXH0@Z@@?$_Wrap_alloc@V?$allocator@UMarketItem@?N@??RequestMarketItems@CMapServer@@QAEXHPAD@Z@@std@@@std@@QAEXPAUMarketItem@?N@??RequestMarketItems@CMapServer@@QAEXHPAD@Z@$$QAU2?N@??34@QAEXH0@Z@@Z 00439ab0 f i MapServer.obj
 0001:00038af0       ??$construct@UMarketItem@?N@??RequestMarketItems@CMapServer@@QAEXHPAD@Z@U1?N@??23@QAEXH0@Z@@?$allocator@UMarketItem@?N@??RequestMarketItems@CMapServer@@QAEXHPAD@Z@@std@@QAEXPAUMarketItem@?N@??RequestMarketItems@CMapServer@@QAEXHPAD@Z@$$QAU2?N@??34@QAEXH0@Z@@Z 00439af0 f i MapServer.obj
 0001:00038bb0       ??$construct@UMarketItem@?N@??RequestMarketItems@CMapServer@@QAEXHPAD@Z@U1?N@??23@QAEXH0@Z@@?$allocator_traits@V?$allocator@UMarketItem@?N@??RequestMarketItems@CMapServer@@QAEXHPAD@Z@@std@@@std@@SAXAAV?$allocator@UMarketItem@?N@??RequestMarketItems@CMapServer@@QAEXHPAD@Z@@1@PAUMarketItem@?N@??RequestMarketItems@CMapServer@@QAEXHPAD@Z@$$QAU3?N@??45@QAEXH1@Z@@Z 00439bb0 f i MapServer.obj
 0001:00038bf0       ??$construct@Ust_objects@CMapServer@@AAU12@@?$_Wrap_alloc@V?$allocator@Ust_objects@CMapServer@@@std@@@std@@QAEXPAUst_objects@CMapServer@@AAU23@@Z 00439bf0 f i MapServer.obj
 0001:00038c30       ??$construct@Ust_objects@CMapServer@@AAU12@@?$allocator@Ust_objects@CMapServer@@@std@@QAEXPAUst_objects@CMapServer@@AAU23@@Z 00439c30 f i MapServer.obj
 0001:00038cf0       ??$construct@Ust_objects@CMapServer@@AAU12@@?$allocator_traits@V?$allocator@Ust_objects@CMapServer@@@std@@@std@@SAXAAV?$allocator@Ust_objects@CMapServer@@@1@PAUst_objects@CMapServer@@AAU34@@Z 00439cf0 f i MapServer.obj
 0001:00038d30       ??$construct@Ust_objects@CMapServer@@ABU12@@?$_Wrap_alloc@V?$allocator@Ust_objects@CMapServer@@@std@@@std@@QAEXPAUst_objects@CMapServer@@ABU23@@Z 00439d30 f i MapServer.obj
 0001:00038d70       ??$construct@Ust_objects@CMapServer@@ABU12@@?$allocator_traits@V?$allocator@Ust_objects@CMapServer@@@std@@@std@@SAXAAV?$allocator@Ust_objects@CMapServer@@@1@PAUst_objects@CMapServer@@ABU34@@Z 00439d70 f i MapServer.obj
 0001:00038db0       ??$construct@Ust_objects@CMapServer@@U12@@?$_Wrap_alloc@V?$allocator@Ust_objects@CMapServer@@@std@@@std@@QAEXPAUst_objects@CMapServer@@$$QAU23@@Z 00439db0 f i MapServer.obj
 0001:00038df0       ??$construct@Ust_objects@CMapServer@@U12@@?$allocator@Ust_objects@CMapServer@@@std@@QAEXPAUst_objects@CMapServer@@$$QAU23@@Z 00439df0 f i MapServer.obj
 0001:00038eb0       ??$construct@Ust_objects@CMapServer@@U12@@?$allocator_traits@V?$allocator@Ust_objects@CMapServer@@@std@@@std@@SAXAAV?$allocator@Ust_objects@CMapServer@@@1@PAUst_objects@CMapServer@@$$QAU34@@Z 00439eb0 f i MapServer.obj
 0001:00038ef0       ??$destroy@PAU?$_Tree_node@U?$pair@$$CBFH@std@@PAX@std@@@?$_Wrap_alloc@V?$allocator@U?$_Tree_node@U?$pair@$$CBFH@std@@PAX@std@@@std@@@std@@QAEXPAPAU?$_Tree_node@U?$pair@$$CBFH@std@@PAX@1@@Z 00439ef0 f i MapServer.obj
 0001:00038f20       ??$destroy@PAU?$_Tree_node@U?$pair@$$CBFH@std@@PAX@std@@@?$allocator@U?$_Tree_node@U?$pair@$$CBFH@std@@PAX@std@@@std@@QAEXPAPAU?$_Tree_node@U?$pair@$$CBFH@std@@PAX@1@@Z 00439f20 f i MapServer.obj
 0001:00038f40       ??$destroy@PAU?$_Tree_node@U?$pair@$$CBFH@std@@PAX@std@@@?$allocator_traits@V?$allocator@U?$_Tree_node@U?$pair@$$CBFH@std@@PAX@std@@@std@@@std@@SAXAAV?$allocator@U?$_Tree_node@U?$pair@$$CBFH@std@@PAX@std@@@1@PAPAU?$_Tree_node@U?$pair@$$CBFH@std@@PAX@1@@Z 00439f40 f i MapServer.obj
 0001:00038f70       ??$destroy@U?$pair@$$CBFH@std@@@?$_Wrap_alloc@V?$allocator@U?$_Tree_node@U?$pair@$$CBFH@std@@PAX@std@@@std@@@std@@QAEXPAU?$pair@$$CBFH@1@@Z 00439f70 f i MapServer.obj
 0001:00038fa0       ??$destroy@U?$pair@$$CBFH@std@@@?$allocator@U?$_Tree_node@U?$pair@$$CBFH@std@@PAX@std@@@std@@QAEXPAU?$pair@$$CBFH@1@@Z 00439fa0 f i MapServer.obj
 0001:00038fc0       ??$destroy@U?$pair@$$CBFH@std@@@?$allocator_traits@V?$allocator@U?$_Tree_node@U?$pair@$$CBFH@std@@PAX@std@@@std@@@std@@SAXAAV?$allocator@U?$_Tree_node@U?$pair@$$CBFH@std@@PAX@std@@@1@PAU?$pair@$$CBFH@1@@Z 00439fc0 f i MapServer.obj
 0001:00038ff0       ??$destroy@UMarketItem@?N@??RequestMarketItems@CMapServer@@QAEXHPAD@Z@@?$_Wrap_alloc@V?$allocator@UMarketItem@?N@??RequestMarketItems@CMapServer@@QAEXHPAD@Z@@std@@@std@@QAEXPAUMarketItem@?N@??RequestMarketItems@CMapServer@@QAEXHPAD@Z@@Z 00439ff0 f i MapServer.obj
 0001:00039020       ??$destroy@UMarketItem@?N@??RequestMarketItems@CMapServer@@QAEXHPAD@Z@@?$allocator@UMarketItem@?N@??RequestMarketItems@CMapServer@@QAEXHPAD@Z@@std@@QAEXPAUMarketItem@?N@??RequestMarketItems@CMapServer@@QAEXHPAD@Z@@Z 0043a020 f i MapServer.obj
 0001:00039040       ??$destroy@UMarketItem@?N@??RequestMarketItems@CMapServer@@QAEXHPAD@Z@@?$allocator_traits@V?$allocator@UMarketItem@?N@??RequestMarketItems@CMapServer@@QAEXHPAD@Z@@std@@@std@@SAXAAV?$allocator@UMarketItem@?N@??RequestMarketItems@CMapServer@@QAEXHPAD@Z@@1@PAUMarketItem@?N@??RequestMarketItems@CMapServer@@QAEXHPAD@Z@@Z 0043a040 f i MapServer.obj
 0001:00039070       ??$destroy@URebirthLevelSettings@CMapServer@@@?$_Wrap_alloc@V?$allocator@URebirthLevelSettings@CMapServer@@@std@@@std@@QAEXPAURebirthLevelSettings@CMapServer@@@Z 0043a070 f i MapServer.obj
 0001:000390a0       ??$destroy@URebirthLevelSettings@CMapServer@@@?$allocator@URebirthLevelSettings@CMapServer@@@std@@QAEXPAURebirthLevelSettings@CMapServer@@@Z 0043a0a0 f i MapServer.obj
 0001:000390c0       ??$destroy@URebirthLevelSettings@CMapServer@@@?$allocator_traits@V?$allocator@URebirthLevelSettings@CMapServer@@@std@@@std@@SAXAAV?$allocator@URebirthLevelSettings@CMapServer@@@1@PAURebirthLevelSettings@CMapServer@@@Z 0043a0c0 f i MapServer.obj
 0001:000390f0       ??$destroy@Ust_objects@CMapServer@@@?$_Wrap_alloc@V?$allocator@Ust_objects@CMapServer@@@std@@@std@@QAEXPAUst_objects@CMapServer@@@Z 0043a0f0 f i MapServer.obj
 0001:00039120       ??$destroy@Ust_objects@CMapServer@@@?$allocator@Ust_objects@CMapServer@@@std@@QAEXPAUst_objects@CMapServer@@@Z 0043a120 f i MapServer.obj
 0001:00039140       ??$destroy@Ust_objects@CMapServer@@@?$allocator_traits@V?$allocator@Ust_objects@CMapServer@@@std@@@std@@SAXAAV?$allocator@Ust_objects@CMapServer@@@1@PAUst_objects@CMapServer@@@Z 0043a140 f i MapServer.obj
 0001:00039170       ??$duration_cast@V?$duration@_JU?$ratio@$00$00@std@@@chrono@std@@_JU?$ratio@$00$0DLJKMKAA@@3@@chrono@std@@YA?AV?$duration@_JU?$ratio@$00$00@std@@@01@ABV?$duration@_JU?$ratio@$00$0DLJKMKAA@@std@@@01@@Z 0043a170 f i MapServer.obj
 0001:00039270       ??$duration_cast@V?$duration@_JU?$ratio@$00$0DLJKMKAA@@std@@@chrono@std@@_JU?$ratio@$00$00@3@@chrono@std@@YA?AV?$duration@_JU?$ratio@$00$0DLJKMKAA@@std@@@01@ABV?$duration@_JU?$ratio@$00$00@std@@@01@@Z 0043a270 f i MapServer.obj
 0001:00039370       ??$duration_cast@V?$duration@_JU?$ratio@$00$0DLJKMKAA@@std@@@chrono@std@@_JU?$ratio@$00$0JIJGIA@@3@@chrono@std@@YA?AV?$duration@_JU?$ratio@$00$0DLJKMKAA@@std@@@01@ABV?$duration@_JU?$ratio@$00$0JIJGIA@@std@@@01@@Z 0043a370 f i MapServer.obj
 0001:00039460       ??$emplace_hint@ABUpiecewise_construct_t@std@@V?$tuple@ABF@2@V?$tuple@$$$V@2@@?$_Tree@V?$_Tmap_traits@FHU?$less@F@std@@V?$allocator@U?$pair@$$CBFH@std@@@2@$0A@@std@@@std@@QAE?AV?$_Tree_iterator@V?$_Tree_val@U?$_Tree_simple_types@U?$pair@$$CBFH@std@@@std@@@std@@@1@V?$_Tree_const_iterator@V?$_Tree_val@U?$_Tree_simple_types@U?$pair@$$CBFH@std@@@std@@@std@@@1@ABUpiecewise_construct_t@1@$$QAV?$tuple@ABF@1@$$QAV?$tuple@$$$V@1@@Z 0043a460 f i MapServer.obj
 0001:00039570       ??$forward@AAPAU?$_Tree_node@U?$pair@$$CBFH@std@@PAX@std@@@std@@YAAAPAU?$_Tree_node@U?$pair@$$CBFH@std@@PAX@0@AAPAU10@@Z 0043a570 f i MapServer.obj
 0001:00039590       ??$forward@AAU?$pair@$$CBFH@std@@@std@@YAAAU?$pair@$$CBFH@0@AAU10@@Z 0043a590 f i MapServer.obj
 0001:000395b0       ??$forward@AAUst_objects@CMapServer@@@std@@YAAAUst_objects@CMapServer@@AAU12@@Z 0043a5b0 f i MapServer.obj
 0001:000395d0       ??$forward@AAV?$_Tree_iterator@V?$_Tree_val@U?$_Tree_simple_types@U?$pair@$$CBFH@std@@@std@@@std@@@std@@@std@@YAAAV?$_Tree_iterator@V?$_Tree_val@U?$_Tree_simple_types@U?$pair@$$CBFH@std@@@std@@@std@@@0@AAV10@@Z 0043a5d0 f i MapServer.obj
 0001:000395f0       ??$forward@ABF@std@@YAABFABF@Z 0043a5f0 f i MapServer.obj
 0001:00039610       ??$forward@ABUpiecewise_construct_t@std@@@std@@YAABUpiecewise_construct_t@0@ABU10@@Z 0043a610 f i MapServer.obj
 0001:00039630       ??$forward@ABUst_objects@CMapServer@@@std@@YAABUst_objects@CMapServer@@ABU12@@Z 0043a630 f i MapServer.obj
 0001:00039650       ??$forward@UMarketItem@?N@??RequestMarketItems@CMapServer@@QAEXHPAD@Z@@std@@YA$$QAUMarketItem@?N@??RequestMarketItems@CMapServer@@QAEXHPAD@Z@AAU1?N@??23@QAEXH0@Z@@Z 0043a650 f i MapServer.obj
 0001:00039670       ??$forward@Ust_objects@CMapServer@@@std@@YA$$QAUst_objects@CMapServer@@AAU12@@Z 0043a670 f i MapServer.obj
 0001:00039690       ??$forward@V<lambda_b6405dba1db49920a5b2a7d45a72ec33>@@@std@@YA$$QAV<lambda_b6405dba1db49920a5b2a7d45a72ec33>@@AAV1@@Z 0043a690 f i MapServer.obj
 0001:000396b0       ??$forward@V?$_Bind@$0A@XV<lambda_b6405dba1db49920a5b2a7d45a72ec33>@@$$$V@std@@@std@@YA$$QAV?$_Bind@$0A@XV<lambda_b6405dba1db49920a5b2a7d45a72ec33>@@$$$V@0@AAV10@@Z 0043a6b0 f i MapServer.obj
 0001:000396d0       ??$forward@V?$_Tree_iterator@V?$_Tree_val@U?$_Tree_simple_types@U?$pair@$$CBFH@std@@@std@@@std@@@std@@@std@@YA$$QAV?$_Tree_iterator@V?$_Tree_val@U?$_Tree_simple_types@U?$pair@$$CBFH@std@@@std@@@std@@@0@AAV10@@Z 0043a6d0 f i MapServer.obj
 0001:000396f0       ??$forward@V?$tuple@ABF@std@@@std@@YA$$QAV?$tuple@ABF@0@AAV10@@Z 0043a6f0 f i MapServer.obj
 0001:00039710       ??$forward@_N@std@@YA$$QA_NAA_N@Z 0043a710 f i MapServer.obj
 0001:00039730       ??$forward_as_tuple@ABF@std@@YA?AV?$tuple@ABF@0@ABF@Z 0043a730 f i MapServer.obj
 0001:00039770       ??$get@$0A@ABF@std@@YAABF$$QAV?$tuple@ABF@0@@Z 0043a770 f i MapServer.obj
 0001:000397a0       ??$move@AAV?$basic_string@DU?$char_traits@D@std@@V?$allocator@D@2@@std@@@std@@YA$$QAV?$basic_string@DU?$char_traits@D@std@@V?$allocator@D@2@@0@AAV10@@Z 0043a7a0 f i MapServer.obj
 0001:000397c0       ??$move@AAV?$tuple@ABF@std@@@std@@YA$$QAV?$tuple@ABF@0@AAV10@@Z 0043a7c0 f i MapServer.obj
 0001:000397e0       ??$sleep_for@_JU?$ratio@$00$00@std@@@this_thread@std@@YAXABV?$duration@_JU?$ratio@$00$00@std@@@chrono@1@@Z 0043a7e0 f i MapServer.obj
 0001:00039870       ??$swap@D@std@@YAXAAD0@Z   0043a870 f i MapServer.obj
 0001:00039900       ??0?$_Bind@$0A@XV<lambda_b6405dba1db49920a5b2a7d45a72ec33>@@$$$V@std@@QAE@$$QAV01@@Z 0043a900 f i MapServer.obj
 0001:00039960       ??0?$_Iterator012@Ubidirectional_iterator_tag@std@@U?$pair@$$CBFH@2@HPBU32@ABU32@U_Iterator_base12@2@@std@@QAE@ABU01@@Z 0043a960 f i MapServer.obj
 0001:00039990       ??0?$_Iterator012@Ubidirectional_iterator_tag@std@@U?$pair@$$CBFH@2@HPBU32@ABU32@U_Iterator_base12@2@@std@@QAE@XZ 0043a990 f i MapServer.obj
 0001:000399c0       ??0?$_Iterator012@Urandom_access_iterator_tag@std@@UMarketItem@?N@??RequestMarketItems@CMapServer@@QAEXHPAD@Z@HPBU3?N@??45@QAEXH0@Z@ABU3?N@??45@QAEXH0@Z@U_Iterator_base12@2@@std@@QAE@XZ 0043a9c0 f i MapServer.obj
 0001:000399f0       ??0?$_Tree@V?$_Tmap_traits@FHU?$less@F@std@@V?$allocator@U?$pair@$$CBFH@std@@@2@$0A@@std@@@std@@QAE@ABU?$less@F@1@ABV?$allocator@U?$pair@$$CBFH@std@@@1@@Z 0043a9f0 f i MapServer.obj
 0001:00039a30       ??0?$_Tree_alloc@$0A@U?$_Tree_base_types@U?$pair@$$CBFH@std@@V?$allocator@U?$pair@$$CBFH@std@@@2@@std@@@std@@QAE@ABV?$allocator@U?$pair@$$CBFH@std@@@1@@Z 0043aa30 f i MapServer.obj
 0001:00039b00       ??0?$_Tree_buy@U?$pair@$$CBFH@std@@V?$allocator@U?$pair@$$CBFH@std@@@2@@std@@QAE@ABV?$allocator@U?$pair@$$CBFH@std@@@1@@Z 0043ab00 f i MapServer.obj
 0001:00039b30       ??0?$_Tree_comp@$0A@V?$_Tmap_traits@FHU?$less@F@std@@V?$allocator@U?$pair@$$CBFH@std@@@2@$0A@@std@@@std@@QAE@ABU?$less@F@1@ABV?$allocator@U?$pair@$$CBFH@std@@@1@@Z 0043ab30 f i MapServer.obj
 0001:00039b60       ??0?$_Tree_const_iterator@V?$_Tree_val@U?$_Tree_simple_types@U?$pair@$$CBFH@std@@@std@@@std@@@std@@QAE@ABV01@@Z 0043ab60 f i MapServer.obj
 0001:00039b90       ??0?$_Tree_const_iterator@V?$_Tree_val@U?$_Tree_simple_types@U?$pair@$$CBFH@std@@@std@@@std@@@std@@QAE@PAU?$_Tree_node@U?$pair@$$CBFH@std@@PAX@1@PBV?$_Tree_val@U?$_Tree_simple_types@U?$pair@$$CBFH@std@@@std@@@1@@Z 0043ab90 f i MapServer.obj
 0001:00039bd0       ??0?$_Tree_const_iterator@V?$_Tree_val@U?$_Tree_simple_types@U?$pair@$$CBFH@std@@@std@@@std@@@std@@QAE@XZ 0043abd0 f i MapServer.obj
 0001:00039c00       ??0?$_Tree_iterator@V?$_Tree_val@U?$_Tree_simple_types@U?$pair@$$CBFH@std@@@std@@@std@@@std@@QAE@ABV01@@Z 0043ac00 f i MapServer.obj
 0001:00039c30       ??0?$_Tree_iterator@V?$_Tree_val@U?$_Tree_simple_types@U?$pair@$$CBFH@std@@@std@@@std@@@std@@QAE@PAU?$_Tree_node@U?$pair@$$CBFH@std@@PAX@1@PBV?$_Tree_val@U?$_Tree_simple_types@U?$pair@$$CBFH@std@@@std@@@1@@Z 0043ac30 f i MapServer.obj
 0001:00039c70       ??0?$_Tree_unchecked_const_iterator@V?$_Tree_val@U?$_Tree_simple_types@U?$pair@$$CBFH@std@@@std@@@std@@U_Iterator_base12@2@@std@@QAE@ABV01@@Z 0043ac70 f i MapServer.obj
 0001:00039cb0       ??0?$_Tree_unchecked_const_iterator@V?$_Tree_val@U?$_Tree_simple_types@U?$pair@$$CBFH@std@@@std@@@std@@U_Iterator_base12@2@@std@@QAE@PAU?$_Tree_node@U?$pair@$$CBFH@std@@PAX@1@PBV?$_Tree_val@U?$_Tree_simple_types@U?$pair@$$CBFH@std@@@std@@@1@@Z 0043acb0 f i MapServer.obj
 0001:00039d40       ??0?$_Tree_unchecked_const_iterator@V?$_Tree_val@U?$_Tree_simple_types@U?$pair@$$CBFH@std@@@std@@@std@@U_Iterator_base12@2@@std@@QAE@XZ 0043ad40 f i MapServer.obj
 0001:00039d80       ??0?$_Tree_val@U?$_Tree_simple_types@U?$pair@$$CBFH@std@@@std@@@std@@QAE@XZ 0043ad80 f i MapServer.obj
 0001:00039dc0       ??0?$_Vector_alloc@$0A@U?$_Vec_base_types@UMarketItem@?N@??RequestMarketItems@CMapServer@@QAEXHPAD@Z@V?$allocator@UMarketItem@?N@??RequestMarketItems@CMapServer@@QAEXHPAD@Z@@std@@@std@@@std@@QAE@ABV?$allocator@UMarketItem@?N@??RequestMarketItems@CMapServer@@QAEXHPAD@Z@@1@@Z 0043adc0 f i MapServer.obj
 0001:00039e40       ??0?$_Vector_alloc@$0A@U?$_Vec_base_types@URebirthLevelSettings@CMapServer@@V?$allocator@URebirthLevelSettings@CMapServer@@@std@@@std@@@std@@QAE@ABV?$allocator@URebirthLevelSettings@CMapServer@@@1@@Z 0043ae40 f i MapServer.obj
 0001:00039ec0       ??0?$_Vector_alloc@$0A@U?$_Vec_base_types@Ust_objects@CMapServer@@V?$allocator@Ust_objects@CMapServer@@@std@@@std@@@std@@QAE@ABV?$allocator@Ust_objects@CMapServer@@@1@@Z 0043aec0 f i MapServer.obj
 0001:00039f40       ??0?$_Vector_const_iterator@V?$_Vector_val@U?$_Simple_types@UMarketItem@?N@??RequestMarketItems@CMapServer@@QAEXHPAD@Z@@std@@@std@@@std@@QAE@PAUMarketItem@?N@??RequestMarketItems@CMapServer@@QAEXHPAD@Z@PBU_Container_base12@1@@Z 0043af40 f i MapServer.obj
 0001:00039fd0       ??0?$_Vector_iterator@V?$_Vector_val@U?$_Simple_types@UMarketItem@?N@??RequestMarketItems@CMapServer@@QAEXHPAD@Z@@std@@@std@@@std@@QAE@PAUMarketItem@?N@??RequestMarketItems@CMapServer@@QAEXHPAD@Z@PBU_Container_base12@1@@Z 0043afd0 f i MapServer.obj
 0001:0003a010       ??0?$_Vector_val@U?$_Simple_types@UMarketItem@?N@??RequestMarketItems@CMapServer@@QAEXHPAD@Z@@std@@@std@@QAE@XZ 0043b010 f i MapServer.obj
 0001:0003a060       ??0?$_Vector_val@U?$_Simple_types@URebirthLevelSettings@CMapServer@@@std@@@std@@QAE@XZ 0043b060 f i MapServer.obj
 0001:0003a0b0       ??0?$_Vector_val@U?$_Simple_types@Ust_objects@CMapServer@@@std@@@std@@QAE@XZ 0043b0b0 f i MapServer.obj
 0001:0003a100       ??0?$_Wrap_alloc@V?$allocator@U?$_Tree_node@U?$pair@$$CBFH@std@@PAX@std@@@std@@@std@@QAE@XZ 0043b100 f i MapServer.obj
 0001:0003a130       ??0?$_Wrap_alloc@V?$allocator@UMarketItem@?N@??RequestMarketItems@CMapServer@@QAEXHPAD@Z@@std@@@std@@QAE@XZ 0043b130 f i MapServer.obj
 0001:0003a160       ??0?$_Wrap_alloc@V?$allocator@URebirthLevelSettings@CMapServer@@@std@@@std@@QAE@XZ 0043b160 f i MapServer.obj
 0001:0003a190       ??0?$_Wrap_alloc@V?$allocator@Ust_objects@CMapServer@@@std@@@std@@QAE@XZ 0043b190 f i MapServer.obj
 0001:0003a1c0       ??0?$allocator@U?$_Tree_node@U?$pair@$$CBFH@std@@PAX@std@@@std@@QAE@XZ 0043b1c0 f i MapServer.obj
 0001:0003a1e0       ??0?$allocator@U?$pair@$$CBFH@std@@@std@@QAE@XZ 0043b1e0 f i MapServer.obj
 0001:0003a200       ??0?$allocator@UMarketItem@?N@??RequestMarketItems@CMapServer@@QAEXHPAD@Z@@std@@QAE@XZ 0043b200 f i MapServer.obj
 0001:0003a220       ??0?$allocator@URebirthLevelSettings@CMapServer@@@std@@QAE@XZ 0043b220 f i MapServer.obj
 0001:0003a240       ??0?$allocator@Ust_objects@CMapServer@@@std@@QAE@XZ 0043b240 f i MapServer.obj
 0001:0003a260       ??0?$basic_ofstream@DU?$char_traits@D@std@@@std@@QAE@ABV?$basic_string@DU?$char_traits@D@std@@V?$allocator@D@2@@1@HH@Z 0043b260 f i MapServer.obj
 0001:0003a3b0       ??0?$basic_string@DU?$char_traits@D@std@@V?$allocator@D@2@@std@@QAE@ABV01@IIABV?$allocator@D@1@@Z 0043b3b0 f i MapServer.obj
 0001:0003a450       ??0?$map@FHU?$less@F@std@@V?$allocator@U?$pair@$$CBFH@std@@@2@@std@@QAE@XZ 0043b450 f i MapServer.obj
 0001:0003a490       ??0?$time_point@Usystem_clock@chrono@std@@V?$duration@_JU?$ratio@$00$0JIJGIA@@std@@@23@@chrono@std@@QAE@ABV?$duration@_JU?$ratio@$00$0JIJGIA@@std@@@12@@Z 0043b490 f i MapServer.obj
 0001:0003a4d0       ??0?$tuple@ABF@std@@QAE@ABF@Z 0043b4d0 f i MapServer.obj
 0001:0003a510       ??0?$vector@UMarketItem@?N@??RequestMarketItems@CMapServer@@QAEXHPAD@Z@V?$allocator@UMarketItem@?N@??RequestMarketItems@CMapServer@@QAEXHPAD@Z@@std@@@std@@QAE@XZ 0043b510 f i MapServer.obj
 0001:0003a540       ??0?$vector@URebirthLevelSettings@CMapServer@@V?$allocator@URebirthLevelSettings@CMapServer@@@std@@@std@@QAE@XZ 0043b540 f i MapServer.obj
 0001:0003a570       ??0?$vector@Ust_objects@CMapServer@@V?$allocator@Ust_objects@CMapServer@@@std@@@std@@QAE@XZ 0043b570 f i MapServer.obj
 0001:0003a5a0       ??0CMapServer@@QAE@PAUHWND__@@@Z 0043b5a0 f   MapServer.obj
 0001:0003b610       ??0_Mutex_base@std@@QAE@H@Z 0043c610 f i MapServer.obj
 0001:0003b650       ??0mutex@std@@QAE@XZ       0043c650 f i MapServer.obj
 0001:0003b680       ??0st_objects@CMapServer@@QAE@XZ 0043c680 f i MapServer.obj
 0001:0003b6a0       ??1?$_Iterator012@Ubidirectional_iterator_tag@std@@U?$pair@$$CBFH@2@HPBU32@ABU32@U_Iterator_base12@2@@std@@QAE@XZ 0043c6a0 f i MapServer.obj
 0001:0003b6d0       ??1?$_Iterator012@Urandom_access_iterator_tag@std@@UMarketItem@?N@??RequestMarketItems@CMapServer@@QAEXHPAD@Z@HPBU3?N@??45@QAEXH0@Z@ABU3?N@??45@QAEXH0@Z@U_Iterator_base12@2@@std@@QAE@XZ 0043c6d0 f i MapServer.obj
 0001:0003b700       ??1?$_LaunchPad@V?$_Bind@$0A@XV<lambda_b6405dba1db49920a5b2a7d45a72ec33>@@$$$V@std@@@std@@QAE@XZ 0043c700 f i MapServer.obj
 0001:0003b730       ??1?$_Tree@V?$_Tmap_traits@FHU?$less@F@std@@V?$allocator@U?$pair@$$CBFH@std@@@2@$0A@@std@@@std@@QAE@XZ 0043c730 f i MapServer.obj
 0001:0003b760       ??1?$_Tree_alloc@$0A@U?$_Tree_base_types@U?$pair@$$CBFH@std@@V?$allocator@U?$pair@$$CBFH@std@@@2@@std@@@std@@QAE@XZ 0043c760 f i MapServer.obj
 0001:0003b7a0       ??1?$_Tree_buy@U?$pair@$$CBFH@std@@V?$allocator@U?$pair@$$CBFH@std@@@2@@std@@QAE@XZ 0043c7a0 f i MapServer.obj
 0001:0003b7d0       ??1?$_Tree_comp@$0A@V?$_Tmap_traits@FHU?$less@F@std@@V?$allocator@U?$pair@$$CBFH@std@@@2@$0A@@std@@@std@@QAE@XZ 0043c7d0 f i MapServer.obj
 0001:0003b800       ??1?$_Tree_const_iterator@V?$_Tree_val@U?$_Tree_simple_types@U?$pair@$$CBFH@std@@@std@@@std@@@std@@QAE@XZ 0043c800 f i MapServer.obj
 0001:0003b830       ??1?$_Tree_iterator@V?$_Tree_val@U?$_Tree_simple_types@U?$pair@$$CBFH@std@@@std@@@std@@@std@@QAE@XZ 0043c830 f i MapServer.obj
 0001:0003b860       ??1?$_Tree_unchecked_const_iterator@V?$_Tree_val@U?$_Tree_simple_types@U?$pair@$$CBFH@std@@@std@@@std@@U_Iterator_base12@2@@std@@QAE@XZ 0043c860 f i MapServer.obj
 0001:0003b890       ??1?$_Tree_val@U?$_Tree_simple_types@U?$pair@$$CBFH@std@@@std@@@std@@QAE@XZ 0043c890 f i MapServer.obj
 0001:0003b8c0       ??1?$_Vector_alloc@$0A@U?$_Vec_base_types@UMarketItem@?N@??RequestMarketItems@CMapServer@@QAEXHPAD@Z@V?$allocator@UMarketItem@?N@??RequestMarketItems@CMapServer@@QAEXHPAD@Z@@std@@@std@@@std@@QAE@XZ 0043c8c0 f i MapServer.obj
 0001:0003b8f0       ??1?$_Vector_alloc@$0A@U?$_Vec_base_types@URebirthLevelSettings@CMapServer@@V?$allocator@URebirthLevelSettings@CMapServer@@@std@@@std@@@std@@QAE@XZ 0043c8f0 f i MapServer.obj
 0001:0003b920       ??1?$_Vector_alloc@$0A@U?$_Vec_base_types@Ust_objects@CMapServer@@V?$allocator@Ust_objects@CMapServer@@@std@@@std@@@std@@QAE@XZ 0043c920 f i MapServer.obj
 0001:0003b950       ??1?$_Vector_const_iterator@V?$_Vector_val@U?$_Simple_types@UMarketItem@?N@??RequestMarketItems@CMapServer@@QAEXHPAD@Z@@std@@@std@@@std@@QAE@XZ 0043c950 f i MapServer.obj
 0001:0003b980       ??1?$_Vector_iterator@V?$_Vector_val@U?$_Simple_types@UMarketItem@?N@??RequestMarketItems@CMapServer@@QAEXHPAD@Z@@std@@@std@@@std@@QAE@XZ 0043c980 f i MapServer.obj
 0001:0003b9b0       ??1?$_Vector_val@U?$_Simple_types@UMarketItem@?N@??RequestMarketItems@CMapServer@@QAEXHPAD@Z@@std@@@std@@QAE@XZ 0043c9b0 f i MapServer.obj
 0001:0003b9e0       ??1?$_Vector_val@U?$_Simple_types@URebirthLevelSettings@CMapServer@@@std@@@std@@QAE@XZ 0043c9e0 f i MapServer.obj
 0001:0003ba10       ??1?$_Vector_val@U?$_Simple_types@Ust_objects@CMapServer@@@std@@@std@@QAE@XZ 0043ca10 f i MapServer.obj
 0001:0003ba40       ??1?$map@FHU?$less@F@std@@V?$allocator@U?$pair@$$CBFH@std@@@2@@std@@QAE@XZ 0043ca40 f i MapServer.obj
 0001:0003ba70       ??1?$pair@V?$_Tree_iterator@V?$_Tree_val@U?$_Tree_simple_types@U?$pair@$$CBFH@std@@@std@@@std@@@std@@_N@std@@QAE@XZ 0043ca70 f i MapServer.obj
 0001:0003baa0       ??1?$vector@UMarketItem@?N@??RequestMarketItems@CMapServer@@QAEXHPAD@Z@V?$allocator@UMarketItem@?N@??RequestMarketItems@CMapServer@@QAEXHPAD@Z@@std@@@std@@QAE@XZ 0043caa0 f i MapServer.obj
 0001:0003bad0       ??1?$vector@URebirthLevelSettings@CMapServer@@V?$allocator@URebirthLevelSettings@CMapServer@@@std@@@std@@QAE@XZ 0043cad0 f i MapServer.obj
 0001:0003bb00       ??1?$vector@Ust_objects@CMapServer@@V?$allocator@Ust_objects@CMapServer@@@std@@@std@@QAE@XZ 0043cb00 f i MapServer.obj
 0001:0003bb30       ??1CMapServer@@UAE@XZ      0043cb30 f   MapServer.obj
 0001:0003bc00       ??1_Mutex_base@std@@QAE@XZ 0043cc00 f i MapServer.obj
 0001:0003bc30       ??1mutex@std@@QAE@XZ       0043cc30 f i MapServer.obj
 0001:0003bc60       ??4?$_Iterator012@Ubidirectional_iterator_tag@std@@U?$pair@$$CBFH@2@HPBU32@ABU32@U_Iterator_base12@2@@std@@QAEAAU01@ABU01@@Z 0043cc60 f i MapServer.obj
 0001:0003bc90       ??4?$_Tree_const_iterator@V?$_Tree_val@U?$_Tree_simple_types@U?$pair@$$CBFH@std@@@std@@@std@@@std@@QAEAAV01@ABV01@@Z 0043cc90 f i MapServer.obj
 0001:0003bcc0       ??4?$_Tree_iterator@V?$_Tree_val@U?$_Tree_simple_types@U?$pair@$$CBFH@std@@@std@@@std@@@std@@QAEAAV01@ABV01@@Z 0043ccc0 f i MapServer.obj
 0001:0003bcf0       ??4?$_Tree_unchecked_const_iterator@V?$_Tree_val@U?$_Tree_simple_types@U?$pair@$$CBFH@std@@@std@@@std@@U_Iterator_base12@2@@std@@QAEAAV01@ABV01@@Z 0043ccf0 f i MapServer.obj
 0001:0003bd30       ??6?$basic_ostream@DU?$char_traits@D@std@@@std@@QAEAAV01@F@Z 0043cd30 f i MapServer.obj
 0001:0003bfd0       ??6?$basic_ostream@DU?$char_traits@D@std@@@std@@QAEAAV01@K@Z 0043cfd0 f i MapServer.obj
 0001:0003c1f0       ??7ios_base@std@@QBE_NXZ   0043d1f0 f i MapServer.obj
 0001:0003c220       ??8?$_Tree_const_iterator@V?$_Tree_val@U?$_Tree_simple_types@U?$pair@$$CBFH@std@@@std@@@std@@@std@@QBE_NABV01@@Z 0043d220 f i MapServer.obj
 0001:0003c310       ??8?$_Vector_const_iterator@V?$_Vector_val@U?$_Simple_types@UMarketItem@?N@??RequestMarketItems@CMapServer@@QAEXHPAD@Z@@std@@@std@@@std@@QBE_NABV01@@Z 0043d310 f i MapServer.obj
 0001:0003c370       ??9?$_Tree_const_iterator@V?$_Tree_val@U?$_Tree_simple_types@U?$pair@$$CBFH@std@@@std@@@std@@@std@@QBE_NABV01@@Z 0043d370 f i MapServer.obj
 0001:0003c3c0       ??9?$_Vector_const_iterator@V?$_Vector_val@U?$_Simple_types@UMarketItem@?N@??RequestMarketItems@CMapServer@@QAEXHPAD@Z@@std@@@std@@@std@@QBE_NABV01@@Z 0043d3c0 f i MapServer.obj
 0001:0003c410       ??A?$map@FHU?$less@F@std@@V?$allocator@U?$pair@$$CBFH@std@@@2@@std@@QAEAAHABF@Z 0043d410 f i MapServer.obj
 0001:0003c630       ??A?$vector@Ust_objects@CMapServer@@V?$allocator@Ust_objects@CMapServer@@@std@@@std@@QAEAAUst_objects@CMapServer@@I@Z 0043d630 f i MapServer.obj
 0001:0003c6f0       ??C?$_Tree_iterator@V?$_Tree_val@U?$_Tree_simple_types@U?$pair@$$CBFH@std@@@std@@@std@@@std@@QBEPAU?$pair@$$CBFH@1@XZ 0043d6f0 f i MapServer.obj
 0001:0003c720       ??D?$_Tree_const_iterator@V?$_Tree_val@U?$_Tree_simple_types@U?$pair@$$CBFH@std@@@std@@@std@@@std@@QBEABU?$pair@$$CBFH@1@XZ 0043d720 f i MapServer.obj
 0001:0003c800       ??D?$_Tree_iterator@V?$_Tree_val@U?$_Tree_simple_types@U?$pair@$$CBFH@std@@@std@@@std@@@std@@QBEAAU?$pair@$$CBFH@1@XZ 0043d800 f i MapServer.obj
 0001:0003c830       ??D?$_Vector_const_iterator@V?$_Vector_val@U?$_Simple_types@UMarketItem@?N@??RequestMarketItems@CMapServer@@QAEXHPAD@Z@@std@@@std@@@std@@QBEABUMarketItem@?N@??RequestMarketItems@CMapServer@@QAEXHPAD@Z@XZ 0043d830 f i MapServer.obj
 0001:0003c910       ??D?$_Vector_iterator@V?$_Vector_val@U?$_Simple_types@UMarketItem@?N@??RequestMarketItems@CMapServer@@QAEXHPAD@Z@@std@@@std@@@std@@QBEAAUMarketItem@?N@??RequestMarketItems@CMapServer@@QAEXHPAD@Z@XZ 0043d910 f i MapServer.obj
 0001:0003c940       ??E?$_Tree_const_iterator@V?$_Tree_val@U?$_Tree_simple_types@U?$pair@$$CBFH@std@@@std@@@std@@@std@@QAE?AV01@H@Z 0043d940 f i MapServer.obj
 0001:0003c9f0       ??E?$_Tree_const_iterator@V?$_Tree_val@U?$_Tree_simple_types@U?$pair@$$CBFH@std@@@std@@@std@@@std@@QAEAAV01@XZ 0043d9f0 f i MapServer.obj
 0001:0003cad0       ??E?$_Tree_iterator@V?$_Tree_val@U?$_Tree_simple_types@U?$pair@$$CBFH@std@@@std@@@std@@@std@@QAEAAV01@XZ 0043dad0 f i MapServer.obj
 0001:0003cb00       ??E?$_Tree_unchecked_const_iterator@V?$_Tree_val@U?$_Tree_simple_types@U?$pair@$$CBFH@std@@@std@@@std@@U_Iterator_base12@2@@std@@QAEAAV01@XZ 0043db00 f i MapServer.obj
 0001:0003cc00       ??E?$_Vector_const_iterator@V?$_Vector_val@U?$_Simple_types@UMarketItem@?N@??RequestMarketItems@CMapServer@@QAEXHPAD@Z@@std@@@std@@@std@@QAEAAV01@XZ 0043dc00 f i MapServer.obj
 0001:0003cce0       ??E?$_Vector_iterator@V?$_Vector_val@U?$_Simple_types@UMarketItem@?N@??RequestMarketItems@CMapServer@@QAEXHPAD@Z@@std@@@std@@@std@@QAEAAV01@XZ 0043dce0 f i MapServer.obj
 0001:0003cd10       ??F?$_Tree_const_iterator@V?$_Tree_val@U?$_Tree_simple_types@U?$pair@$$CBFH@std@@@std@@@std@@@std@@QAEAAV01@XZ 0043dd10 f i MapServer.obj
 0001:0003ce70       ??F?$_Tree_iterator@V?$_Tree_val@U?$_Tree_simple_types@U?$pair@$$CBFH@std@@@std@@@std@@@std@@QAEAAV01@XZ 0043de70 f i MapServer.obj
 0001:0003cea0       ??F?$_Tree_unchecked_const_iterator@V?$_Tree_val@U?$_Tree_simple_types@U?$pair@$$CBFH@std@@@std@@@std@@U_Iterator_base12@2@@std@@QAEAAV01@XZ 0043dea0 f i MapServer.obj
 0001:0003d030       ??R?$less@F@std@@QBE_NABF0@Z 0043e030 f i MapServer.obj
 0001:0003d080       ??Y?$duration@_JU?$ratio@$00$0DLJKMKAA@@std@@@chrono@std@@QAEAAV012@ABV012@@Z 0043e080 f i MapServer.obj
 0001:0003d0c0       ??Z?$duration@_JU?$ratio@$00$0DLJKMKAA@@std@@@chrono@std@@QAEAAV012@ABV012@@Z 0043e0c0 f i MapServer.obj
 0001:0003d100       ??_GCMapServer@@UAEPAXI@Z  0043e100 f i MapServer.obj
 0001:0003d100       ??_ECMapServer@@UAEPAXI@Z  0043e100 f i MapServer.obj
 0001:0003d150       ?AbrirPortales@CMapServer@@QAEXF@Z 0043e150 f   MapServer.obj
 0001:0003f950       ?ActivateSpecialAbilityHandler@CMapServer@@QAEXH@Z 00440950 f   MapServer.obj
 0001:0003fc90       ?ActualizarContador@CMapServer@@QAEXXZ 00440c90 f   MapServer.obj
 0001:0003fee0       ?ActualizarCountFlag@CMapServer@@QAEXFH@Z 00440ee0 f   MapServer.obj
 0001:000401c0       ?ActualizarSellingList@CMapServer@@QAEXHH@Z 004411c0 f   MapServer.obj
 0001:000404c0       ?ActualizarStructures@CMapServer@@QAEXXZ 004414c0 f   MapServer.obj
 0001:00040840       ?ActualizarWWContador@CMapServer@@QAEXXZ 00441840 f   MapServer.obj
 0001:00040a10       ?ActualizarWWIIContador@CMapServer@@QAEXXZ 00441a10 f   MapServer.obj
 0001:00040be0       ?AddCandys@CMapServer@@QAEXH@Z 00441be0 f   MapServer.obj
 0001:00040ed0       ?AddFragment@CMapServer@@QAEXHFH@Z 00441ed0 f   MapServer.obj
 0001:000413b0       ?AddShard@CMapServer@@QAEXHFH@Z 004423b0 f   MapServer.obj
 0001:00041520       ?AdminCommand_Event@CMapServer@@QAEXHPADK@Z 00442520 f   MapServer.obj
 0001:00041860       ?AdminOrder_Assasain@CMapServer@@QAEXHPADK@Z 00442860 f   MapServer.obj
 0001:00041c50       ?AdminOrder_BanIP@CMapServer@@QAEXHPADK@Z 00442c50 f   MapServer.obj
 0001:000421e0       ?AdminOrder_CallGuard@CMapServer@@QAEXHPADK@Z 004431e0 f   MapServer.obj
 0001:00042920       ?AdminOrder_ChangeCity@CMapServer@@QAEXHPADK@Z 00443920 f   MapServer.obj
 0001:00042ea0       ?AdminOrder_CheckIP@CMapServer@@QAEXHPADK@Z 00443ea0 f   MapServer.obj
 0001:00043340       ?AdminOrder_CheckRep@CMapServer@@QAEXHPADK@Z 00444340 f   MapServer.obj
 0001:000434c0       ?AdminOrder_CleanMap@CMapServer@@QAEXHPADK@Z 004444c0 f   MapServer.obj
 0001:00043990       ?AdminOrder_ClearNpc@CMapServer@@QAEXH@Z 00444990 f   MapServer.obj
 0001:00043b80       ?AdminOrder_CloseConn@CMapServer@@QAEXHPADK@Z 00444b80 f   MapServer.obj
 0001:00044140       ?AdminOrder_CreateFish@CMapServer@@QAEXHPADK@Z 00445140 f   MapServer.obj
 0001:00044720       ?AdminOrder_CreateItem@CMapServer@@QAEXHPADK@Z 00445720 f   MapServer.obj
 0001:000456c0       ?AdminOrder_DisconnectAll@CMapServer@@QAEXHPADK@Z 004466c0 f   MapServer.obj
 0001:00045710       ?AdminOrder_GetFightzoneTicket@CMapServer@@QAEXH@Z 00446710 f   MapServer.obj
 0001:00045b70       ?AdminOrder_GetNpcStatus@CMapServer@@QAEXHPADK@Z 00446b70 f   MapServer.obj
 0001:00045ee0       ?AdminOrder_GoTo@CMapServer@@QAEXHPADK@Z 00446ee0 f   MapServer.obj
 0001:00046540       ?AdminOrder_Kill@CMapServer@@QAEXHPADK@Z 00447540 f   MapServer.obj
 0001:00046c80       ?AdminOrder_MonsterCount@CMapServer@@QAEXHPADK@Z 00447c80 f   MapServer.obj
 0001:00046d90       ?AdminOrder_Polymorph@CMapServer@@QAEXHPADK@Z 00447d90 f   MapServer.obj
 0001:00047090       ?AdminOrder_Portal@CMapServer@@QAEXHPADK@Z 00448090 f   MapServer.obj
 0001:00047850       ?AdminOrder_Pushplayer@CMapServer@@QAEXHPADK@Z 00448850 f   MapServer.obj
 0001:00047ec0       ?AdminOrder_ReserveFightzone@CMapServer@@QAEXHPADK@Z 00448ec0 f   MapServer.obj
 0001:000483a0       ?AdminOrder_Revive@CMapServer@@QAEXHPADK@Z 004493a0 f   MapServer.obj
 0001:00048b30       ?AdminOrder_SetAttackMode@CMapServer@@QAEXHPADK@Z 00449b30 f   MapServer.obj
 0001:00049080       ?AdminOrder_SetForceRecallTime@CMapServer@@QAEXHPADK@Z 0044a080 f   MapServer.obj
 0001:00049360       ?AdminOrder_SetInvi@CMapServer@@QAEXHPADK@Z 0044a360 f   MapServer.obj
 0001:00049620       ?AdminOrder_SetObserverMode@CMapServer@@QAEXH@Z 0044a620 f   MapServer.obj
 0001:000498c0       ?AdminOrder_SetPoints@CMapServer@@QAEXHPADKF@Z 0044a8c0 f   MapServer.obj
 0001:0004a310       ?AdminOrder_SetStatus@CMapServer@@QAEXHPADK@Z 0044b310 f   MapServer.obj
 0001:0004a8a0       ?AdminOrder_SetZerk@CMapServer@@QAEXHPADK@Z 0044b8a0 f   MapServer.obj
 0001:0004aba0       ?AdminOrder_Summon@CMapServer@@QAEXHPADK@Z 0044bba0 f   MapServer.obj
 0001:0004b3e0       ?AdminOrder_SummonAll@CMapServer@@QAEXHPADK@Z 0044c3e0 f   MapServer.obj
 0001:0004b890       ?AdminOrder_SummonDemon@CMapServer@@QAEXH@Z 0044c890 f   MapServer.obj
 0001:0004bb80       ?AdminOrder_SummonGuild@CMapServer@@QAEXHPADK@Z 0044cb80 f   MapServer.obj
 0001:0004bf20       ?AdminOrder_SummonPlayer@CMapServer@@QAEXHPADK@Z 0044cf20 f   MapServer.obj
 0001:0004c430       ?AdminOrder_Teleport@CMapServer@@QAEXHPADK@Z 0044d430 f   MapServer.obj
 0001:0004c900       ?AdminOrder_Time@CMapServer@@QAEXHPADK@Z 0044d900 f   MapServer.obj
 0001:0004cd30       ?AdminOrder_UnLimbo@CMapServer@@QAEXHPADK@Z 0044dd30 f   MapServer.obj
 0001:0004d0b0       ?AdminOrder_UnsummonAll@CMapServer@@QAEXH@Z 0044e0b0 f   MapServer.obj
 0001:0004d1f0       ?AdminOrder_UnsummonBoss@CMapServer@@QAEXH@Z 0044e1f0 f   MapServer.obj
 0001:0004d440       ?AdminOrder_Weather@CMapServer@@QAEXHPADK@Z 0044e440 f   MapServer.obj
 0001:0004daa0       ?AdminOrder_ban@CMapServer@@QAEXHPADK@Z 0044eaa0 f   MapServer.obj
 0001:0004e110       ?AdminOrder_banjail@CMapServer@@QAEXHPADK@Z 0044f110 f   MapServer.obj
 0001:0004e7a0       ?AdminOrder_deslogpull@CMapServer@@QAEXHPADK@Z 0044f7a0 f   MapServer.obj
 0001:0004eca0       ?AgingMapSectorInfo@CMapServer@@QAEXXZ 0044fca0 f   MapServer.obj
 0001:0004f170       ?AllClosePortals@CMapServer@@QAEXXZ 00450170 f   MapServer.obj
 0001:0004f2e0       ?Anuncios@CMapServer@@QAEXXZ 004502e0 f   MapServer.obj
 0001:0004f520       ?ApplyCombatKilledPenalty@CMapServer@@QAEXHDHH@Z 00450520 f   MapServer.obj
 0001:0004f980       ?ApplyPKpenalty@CMapServer@@QAEXFF@Z 00450980 f   MapServer.obj
 0001:00050150       ?ApplyPkPoint@CMapServer@@QAEXHHH@Z 00451150 f   MapServer.obj
 0001:00050fe0       ?ApplyResolution@CMapServer@@QAEXH@Z 00451fe0 f   MapServer.obj
 0001:000511d0       ?ArmarEventTop@CMapServer@@QAEXXZ 004521d0 f   MapServer.obj
 0001:00051db0       ?ArmorLifeDecrement@CMapServer@@QAEXHHDH@Z 00452db0 f   MapServer.obj
 0001:00055860       ?AutoClearMap@CMapServer@@QAEXXZ 00456860 f   MapServer.obj
 0001:00055a30       ?AutoSkill@CMapServer@@QAEXH@Z 00456a30 f   MapServer.obj
 0001:000562c0       ?BlockedTeleport@CMapServer@@QAE_NH@Z 004572c0 f   MapServer.obj
 0001:00057660       ?BuildItemHandler@CMapServer@@QAEXHPAD@Z 00458660 f   MapServer.obj
 0001:00058830       ?CalcExpStock@CMapServer@@QAEXH@Z 00459830 f   MapServer.obj
 0001:00058d20       ?CalcMeteorStrikeEffectHandler@CMapServer@@QAEXH@Z 00459d20 f   MapServer.obj
 0001:00059110       ?CalcNextWayPointDestination@CMapServer@@QAEXH@Z 0045a110 f   MapServer.obj
 0001:00059790       ?CalcTotalBagExchange@CMapServer@@QAEHHH@Z 0045a790 f   MapServer.obj
 0001:00059a00       ?CalcTotalItemEffect@CMapServer@@QAEXHHH@Z 0045aa00 f   MapServer.obj
 0001:00060460       ?CalcWeightExchange@CMapServer@@QAEHHH@Z 00461460 f   MapServer.obj
 0001:000607b0       ?CalculateSSN_ItemIndex@CMapServer@@QAEXHFH@Z 004617b0 f   MapServer.obj
 0001:00061260       ?CalculateSSN_SkillIndex@CMapServer@@QAEXHFH@Z 00462260 f   MapServer.obj
 0001:00061640       ?CallMercenary@CMapServer@@QAEXF@Z 00462640 f   MapServer.obj
 0001:00061db0       ?CancelExchangeItem@CMapServer@@QAEXH@Z 00462db0 f   MapServer.obj
 0001:00061f30       ?CancelQuestHandler@CMapServer@@QAEXHF@Z 00462f30 f   MapServer.obj
 0001:00062030       ?ChangeHeroSide@CMapServer@@QAEXH@Z 00463030 f   MapServer.obj
 0001:00064960       ?ChangeLocation@CMapServer@@QAEXHK@Z 00465960 f   MapServer.obj
 0001:00064b90       ?ChangePkToEk@CMapServer@@QAEXHH@Z 00465b90 f   MapServer.obj
 0001:00064e50       ?ChangeToAssasain@CMapServer@@QAEXH@Z 00465e50 f   MapServer.obj
 0001:00065070       ?CharacterRankingReset@CMapServer@@QAEXH@Z 00466070 f   MapServer.obj
 0001:000652a0       ?ChatMsgHandler@CMapServer@@QAEXHPADK@Z 004662a0 f   MapServer.obj
 0001:0006b390       ?CheckActiveMaps@CMapServer@@QAEHPAD@Z 0046c390 f   MapServer.obj
 0001:0006b4f0       ?CheckAndNotifyPlayerConnection@CMapServer@@QAEXHPADK@Z 0046c4f0 f   MapServer.obj
 0001:0006ba70       ?CheckClientResponseTime@CMapServer@@QAEXXZ 0046ca70 f   MapServer.obj
 0001:0006f0a0       ?CheckCommanderConstructionPoint@CMapServer@@QAEXH@Z 004700a0 f   MapServer.obj
 0001:0006f450       ?CheckCompleteAchivement@CMapServer@@QAEXHFHH@Z 00470450 f   MapServer.obj
 0001:00071db0       ?CheckConnectionHandler@CMapServer@@QAEXHPAD@Z 00472db0 f   MapServer.obj
 0001:00071f90       ?CheckCrusadeResultCalculation@CMapServer@@QAEXH@Z 00472f90 f   MapServer.obj
 0001:00072670       ?CheckDayOrNightMode@CMapServer@@QAEXXZ 00473670 f   MapServer.obj
 0001:000728c0       ?CheckDynamicObjectList@CMapServer@@QAEXXZ 004738c0 f   MapServer.obj
 0001:00072d30       ?CheckFireBluring@CMapServer@@QAEXDHH@Z 00473d30 f   MapServer.obj
 0001:00072f60       ?CheckHability@CMapServer@@QAEXHPADK@Z 00473f60 f   MapServer.obj
 0001:000733c0       ?CheckHeroData@CMapServer@@QAEXHFH@Z 004743c0 f   MapServer.obj
 0001:000738e0       ?CheckHeroItemEquipHandler@CMapServer@@QAEHH@Z 004748e0 f   MapServer.obj
 0001:000752a0       ?CheckItemStatedEquipment@CMapServer@@QAEXH@Z 004762a0 f   MapServer.obj
 0001:00076c40       ?CheckNewNivel@CMapServer@@QAEXHH@Z 00477c40 f   MapServer.obj
 0001:00076e10       ?CheckProcess@CMapServer@@QAEXH@Z 00477e10 f   MapServer.obj
 0001:00076f10       ?CheckProcessClients@CMapServer@@QAEXXZ 00477f10 f   MapServer.obj
 0001:00077030       ?CheckUniqueItemEquipment@CMapServer@@QAEXH@Z 00478030 f   MapServer.obj
 0001:00077330       ?CheckUsersIP@CMapServer@@QAEXHPADK@Z 00478330 f   MapServer.obj
 0001:000779a0       ?ChequearAllVsAll@CMapServer@@QAEXXZ 004789a0 f   MapServer.obj
 0001:00077c70       ?ChequearPartido@CMapServer@@QAEXXZ 00478c70 f   MapServer.obj
 0001:00077e80       ?ClearSkillUsingStatus@CMapServer@@QAEXH@Z 00478e80 f   MapServer.obj
 0001:000783b0       ?ClientCommonHandler@CMapServer@@QAEXHPAD@Z 004793b0 f   MapServer.obj
 0001:00079100       ?ClientFakeMove@CMapServer@@QAEXH@Z 0047a100 f   MapServer.obj
 0001:00079280       ?ClientFakeMoveTimmer@CMapServer@@QAEXXZ 0047a280 f   MapServer.obj
 0001:00079780       ?ClientKilledHandler@CMapServer@@QAEXHHDF@Z 0047a780 f   MapServer.obj
 0001:0007b3e0       ?ClientMotionHandler@CMapServer@@QAEXHPAD@Z 0047c3e0 f   MapServer.obj
 0001:0007c0b0       ?CloseAbaddonEvent@CMapServer@@QAEXXZ 0047d0b0 f   MapServer.obj
 0001:0007c2f0       ?CloseArenaEvent@CMapServer@@QAEXXZ 0047d2f0 f   MapServer.obj
 0001:0007c6a0       ?CloseEventMap@CMapServer@@QAEXXZ 0047d6a0 f   MapServer.obj
 0001:0007ca20       ?CloseHODMap@CMapServer@@QAEXXZ 0047da20 f   MapServer.obj
 0001:0007cc30       ?ClosePortal@CMapServer@@QAEXH@Z 0047dc30 f   MapServer.obj
 0001:0007cde0       ?CloseWWEventMap@CMapServer@@QAEXXZ 0047dde0 f   MapServer.obj
 0001:0007d120       ?CloseWWEventMapII@CMapServer@@QAEXXZ 0047e120 f   MapServer.obj
 0001:0007d470       ?Close_FinalFight@CMapServer@@QAEXXZ 0047e470 f   MapServer.obj
 0001:0007d560       ?CollectedManaHandler@CMapServer@@QAEXGG@Z 0047e560 f   MapServer.obj
 0001:0007d6d0       ?CompleteAchivementList@CMapServer@@QAEXH@Z 0047e6d0 f   MapServer.obj
 0001:0007d900       ?ConfirmExchangeItem@CMapServer@@QAEXH@Z 0047e900 f   MapServer.obj
 0001:0007eec0       ?CreateCVCStructures@CMapServer@@QAEXXZ 0047fec0 f   MapServer.obj
 0001:0007f290       ?CreateCrusadeStructures@CMapServer@@QAEXXZ 00480290 f   MapServer.obj
 0001:0007fb40       ?CreateEnergy@CMapServer@@QAEXXZ 00480b40 f   MapServer.obj
 0001:0007fe60       ?CreateEventResults@CMapServer@@QAEXHF@Z 00480e60 f   MapServer.obj
 0001:00080360       ?CreateFinalFightID@CMapServer@@QAEXXZ 00481360 f   MapServer.obj
 0001:00080540       ?CreateHellOfDeathStructures@CMapServer@@QAEXXZ 00481540 f   MapServer.obj
 0001:00080ac0       ?CreateItemDrop@CMapServer@@QAEXHV?$basic_string@DU?$char_traits@D@std@@V?$allocator@D@2@@std@@HHH@Z 00481ac0 f   MapServer.obj
 0001:00080c20       ?CreateMSStructures@CMapServer@@QAEXXZ 00481c20 f   MapServer.obj
 0001:00081150       ?CreateRushStructures@CMapServer@@QAEXXZ 00482150 f   MapServer.obj
 0001:00081960       ?CreateTowerAresden@CMapServer@@QAEXXZ 00482960 f   MapServer.obj
 0001:00081de0       ?CreateTowerElvine@CMapServer@@QAEXXZ 00482de0 f   MapServer.obj
 0001:00082260       ?DataProcessReceived@CMapServer@@QAEXHPADK@Z 00483260 f   MapServer.obj
 0001:000825a0       ?DefineWHPage@CMapServer@@QAEXHF@Z 004835a0 f   MapServer.obj
 0001:00082660       ?DelayEventProcessor@CMapServer@@QAEXXZ 00483660 f   MapServer.obj
 0001:00083460       ?DeleteClient@CMapServer@@QAEXHHHHH@Z 00484460 f   MapServer.obj
 0001:00084c60       ?DeleteCliente@CMapServer@@QAEXHPADK@Z 00485c60 f   MapServer.obj
 0001:000850d0       ?DeleteEnergy@CMapServer@@QAEXXZ 004860d0 f   MapServer.obj
 0001:000851d0       ?DeleteWhItem@CMapServer@@QAEXHF@Z 004861d0 f   MapServer.obj
 0001:000857c0       ?Desbug@CMapServer@@QAEXHPADK@Z 004867c0 f   MapServer.obj
 0001:00085c50       ?DisableBot@CMapServer@@QAEXH@Z 00486c50 f   MapServer.obj
 0001:00085cb0       ?DismissGuildApproveHandler@CMapServer@@QAEXHPAD@Z 00486cb0 f   MapServer.obj
 0001:00085f60       ?DismissGuildRejectHandler@CMapServer@@QAEXHPAD@Z 00486f60 f   MapServer.obj
 0001:000860d0       ?DisplayInfo@CMapServer@@QAEXPAUHDC__@@@Z 004870d0 f   MapServer.obj
 0001:00086260       ?DkMapUnEquipItems@CMapServer@@QAEXH@Z 00487260 f   MapServer.obj
 0001:00086420       ?DoMeteorStrikeDamageHandler@CMapServer@@QAEXH@Z 00487420 f   MapServer.obj
 0001:00086950       ?DropItemHandler@CMapServer@@QAEXHFHPADH@Z 00487950 f   MapServer.obj
 0001:000876a0       ?DropItemID@CMapServer@@QAEXHFHHHHHHH@Z 004886a0 f   MapServer.obj
 0001:00087ba0       ?DynamicObjectEffectProcessor@CMapServer@@QAEXXZ 00488ba0 f   MapServer.obj
 0001:0008a760       ?Effect_Damage_Spot@CMapServer@@QAEXFDFDFFFHH@Z 0048b760 f   MapServer.obj
 0001:0008d9b0       ?Effect_Damage_Spot_DamageMove@CMapServer@@QAEXFDFDFFFFFHHH@Z 0048e9b0 f   MapServer.obj
 0001:00090f10       ?Effect_HpUp_Spot@CMapServer@@QAEXFDFDFFF@Z 00491f10 f   MapServer.obj
 0001:00091380       ?Effect_SpDown_Spot@CMapServer@@QAEXFDFDFFF@Z 00492380 f   MapServer.obj
 0001:000917e0       ?Effect_SpUp_Spot@CMapServer@@QAEXFDFDFFF@Z 004927e0 f   MapServer.obj
 0001:00091a60       ?EkAnnoucer@CMapServer@@QAEXQAD0H@Z 00492a60 f   MapServer.obj
 0001:00091ae0       ?EnableBot@CMapServer@@QAEXH@Z 00492ae0 f   MapServer.obj
 0001:00091b60       ?EndAllDkEks@CMapServer@@QAEXXZ 00492b60 f   MapServer.obj
 0001:00091e10       ?EndAllEks@CMapServer@@QAEXXZ 00492e10 f   MapServer.obj
 0001:000920c0       ?EndAllVsAll@CMapServer@@QAEXH@Z 004930c0 f   MapServer.obj
 0001:000922f0       ?EndCaptureTheFlag@CMapServer@@QAEXF@Z 004932f0 f   MapServer.obj
 0001:00092470       ?EndCityVsCity@CMapServer@@QAEXXZ 00493470 f   MapServer.obj
 0001:00092ac0       ?EndDkEvent@CMapServer@@QAEXH@Z 00493ac0 f   MapServer.obj
 0001:00092be0       ?EndEvent_EK100@CMapServer@@QAEXXZ 00493be0 f   MapServer.obj
 0001:00092e70       ?EndEvent_EK40@CMapServer@@QAEXXZ 00493e70 f   MapServer.obj
 0001:000930e0       ?EndEvent_HuntMap@CMapServer@@QAEXXZ 004940e0 f   MapServer.obj
 0001:000932e0       ?EndEvent_Masacre@CMapServer@@QAEXXZ 004942e0 f   MapServer.obj
 0001:00093470       ?EndEvent_Questx2@CMapServer@@QAEXXZ 00494470 f   MapServer.obj
 0001:00093900       ?EndEvent_Questx3@CMapServer@@QAEXXZ 00494900 f   MapServer.obj
 0001:00093c90       ?EndEvent_TowerHell@CMapServer@@QAEXXZ 00494c90 f   MapServer.obj
 0001:00093ed0       ?EndHellOfDeathMode@CMapServer@@QAEXH@Z 00494ed0 f   MapServer.obj
 0001:00094290       ?EndSummonEvent@CMapServer@@QAEXXZ 00495290 f   MapServer.obj
 0001:00094610       ?EndTowerDefenceMode@CMapServer@@QAEXH@Z 00495610 f   MapServer.obj
 0001:000948f0       ?EndTowerDefenseTime@CMapServer@@QAEXXZ 004958f0 f   MapServer.obj
 0001:000949f0       ?EndWorldWar@CMapServer@@QAEXXZ 004959f0 f   MapServer.obj
 0001:00095030       ?EndWorldWarII@CMapServer@@QAEXXZ 00496030 f   MapServer.obj
 0001:00095670       ?EnemyKillRewardHandler@CMapServer@@QAEXHH@Z 00496670 f   MapServer.obj
 0001:00096150       ?EventAllDkEks@CMapServer@@QAEXXZ 00497150 f   MapServer.obj
 0001:00096240       ?EventAllEks@CMapServer@@QAEXXZ 00497240 f   MapServer.obj
 0001:000964a0       ?EventDM@CMapServer@@QAEXXZ 004974a0 f   MapServer.obj
 0001:00096820       ?Event_Abbadon@CMapServer@@QAEXXZ 00497820 f   MapServer.obj
 0001:000968b0       ?Event_AllVsAll@CMapServer@@QAEXXZ 004978b0 f   MapServer.obj
 0001:000969a0       ?Event_CatptureTheFlag@CMapServer@@QAEXXZ 004979a0 f   MapServer.obj
 0001:00096b50       ?Event_CityVsCity@CMapServer@@QAEXXZ 00497b50 f   MapServer.obj
 0001:00096c80       ?Event_CloseAbbadon@CMapServer@@QAEXXZ 00497c80 f   MapServer.obj
 0001:00096d10       ?Event_Crusada@CMapServer@@QAEXXZ 00497d10 f   MapServer.obj
 0001:00096ec0       ?Event_EK100@CMapServer@@QAEXXZ 00497ec0 f   MapServer.obj
 0001:00097150       ?Event_EK40@CMapServer@@QAEXXZ 00498150 f   MapServer.obj
 0001:000973c0       ?Event_FinalFight@CMapServer@@QAEXXZ 004983c0 f   MapServer.obj
 0001:000974b0       ?Event_Hod@CMapServer@@QAEXXZ 004984b0 f   MapServer.obj
 0001:000975a0       ?Event_HuntMap@CMapServer@@QAEXXZ 004985a0 f   MapServer.obj
 0001:000977a0       ?Event_Masacre@CMapServer@@QAEXXZ 004987a0 f   MapServer.obj
 0001:00097930       ?Event_Questx2@CMapServer@@QAEXXZ 00498930 f   MapServer.obj
 0001:00097dc0       ?Event_Questx3@CMapServer@@QAEXXZ 00498dc0 f   MapServer.obj
 0001:00098150       ?Event_Rush@CMapServer@@QAEXXZ 00499150 f   MapServer.obj
 0001:000982c0       ?Event_Summon@CMapServer@@QAEXXZ 004992c0 f   MapServer.obj
 0001:00098520       ?Event_TowerDefense@CMapServer@@QAEXXZ 00499520 f   MapServer.obj
 0001:00098650       ?Event_TowerHell@CMapServer@@QAEXXZ 00499650 f   MapServer.obj
 0001:00098890       ?Event_WorldWar@CMapServer@@QAEXXZ 00499890 f   MapServer.obj
 0001:00098980       ?Event_WorldWarII@CMapServer@@QAEXXZ 00499980 f   MapServer.obj
 0001:00098a70       ?EventosAutomaticos@CMapServer@@QAEXXZ 00499a70 f   MapServer.obj
 0001:00098b20       ?ExchangeItemHandler@CMapServer@@QAEXHFHFFGPAD@Z 00499b20 f   MapServer.obj
 0001:00099a30       ?FightzoneReserveHandler@CMapServer@@QAEXHPADK@Z 0049aa30 f   MapServer.obj
 0001:0009a000       ?FightzoneReserveProcessor@CMapServer@@QAEXXZ 0049b000 f   MapServer.obj
 0001:0009a160       ?FishGenerator@CMapServer@@QAEXXZ 0049b160 f   MapServer.obj
 0001:0009aa70       ?FishProcessor@CMapServer@@QAEXXZ 0049ba70 f   MapServer.obj
 0001:0009ae10       ?ForceDisconnectAccount@CMapServer@@QAEXPADG@Z 0049be10 f   MapServer.obj
 0001:0009b0b0       ?GameProcess@CMapServer@@QAEXXZ 0049c0b0 f   MapServer.obj
 0001:0009b0e0       ?GetAngelHandler@CMapServer@@QAEXHPADK@Z 0049c0e0 f   MapServer.obj
 0001:0009bba0       ?GetAssasainHero@CMapServer@@QAEXHH@Z 0049cba0 f   MapServer.obj
 0001:0009c990       ?GetBallValue@CItem@@QAEKXZ 0049d990 f i MapServer.obj
 0001:0009c9b0       ?GetDkHandler@CMapServer@@QAEXHH@Z 0049d9b0 f   MapServer.obj
 0001:0009d870       ?GetExp@CMapServer@@QAEXHHH@Z 0049e870 f   MapServer.obj
 0001:0009e0b0       ?GetFightzoneTicketHandler@CMapServer@@QAEXH@Z 0049f0b0 f   MapServer.obj
 0001:0009eaa0       ?GetHeroMantleHandler@CMapServer@@QAEXHH@Z 0049faa0 f   MapServer.obj
 0001:0009fd90       ?GetMagicAbilityHandler@CMapServer@@QAEXH@Z 004a0d90 f   MapServer.obj
 0001:0009fef0       ?GetMajesticsItemsHandler@CMapServer@@QAEXHHPAD@Z 004a0ef0 f   MapServer.obj
 0001:000a0cc0       ?GetMapInitialPoint@CMapServer@@QAEXHPAF0PAD@Z 004a1cc0 f   MapServer.obj
 0001:000a0eb0       ?GetPlayerProfile@CMapServer@@QAEXHPADK@Z 004a1eb0 f   MapServer.obj
 0001:000a1350       ?GetProgramDirectory@CMapServer@@QAE?AV?$basic_string@DU?$char_traits@D@std@@V?$allocator@D@2@@std@@XZ 004a2350 f   MapServer.obj
 0001:000a1470       ?GetRewardMoneyHandler@CMapServer@@QAEXH@Z 004a2470 f   MapServer.obj
 0001:000a1b90       ?GiveItemHandler@CMapServer@@QAEXHFHFFGPAD@Z 004a2b90 f   MapServer.obj
 0001:000a4440       ?GoalPoint@CMapServer@@QAEXHF@Z 004a5440 f   MapServer.obj
 0001:000a4bc0       ?GoldPorLevel@CMapServer@@QAEXH@Z 004a5bc0 f   MapServer.obj
 0001:000a51e0       ?GrandMagicResultHandler@CMapServer@@QAEXPADHHHHH0@Z 004a61e0 f   MapServer.obj
 0001:000a52f0       ?HammerStrip@CMapServer@@QAEXHDHH@Z 004a62f0 f   MapServer.obj
 0001:000a6050       ?HandleRequestMemoryTops@CMapServer@@QAEXHFHH@Z 004a7050 f   MapServer.obj
 0001:000a6f70       ?IniciarAllVsAll@CMapServer@@QAEXXZ 004a7f70 f   MapServer.obj
 0001:000a7140       ?InitAbaddonEvent@CMapServer@@QAEXXZ 004a8140 f   MapServer.obj
 0001:000a7340       ?InitAllVsAll@CMapServer@@QAEXXZ 004a8340 f   MapServer.obj
 0001:000a7580       ?InitArenaEvent@CMapServer@@QAEXXZ 004a8580 f   MapServer.obj
 0001:000a77b0       ?InitHellOfDeath@CMapServer@@QAEXXZ 004a87b0 f   MapServer.obj
 0001:000a7a00       ?InitItemsClient@CMapServer@@QAEXH@Z 004a8a00 f   MapServer.obj
 0001:000a8810       ?InitPlayerData@CMapServer@@QAEXHPADK@Z 004a9810 f   MapServer.obj
 0001:000a9e50       ?InitTowerDefence@CMapServer@@QAEXXZ 004aae50 f   MapServer.obj
 0001:000aa030       ?ItemDepleteHandler@CMapServer@@QAEXHFHH@Z 004ab030 f   MapServer.obj
 0001:000aa420       ?JoinGuildApproveHandler@CMapServer@@QAEXHPAD@Z 004ab420 f   MapServer.obj
 0001:000aa800       ?JoinGuildRejectHandler@CMapServer@@QAEXHPAD@Z 004ab800 f   MapServer.obj
 0001:000aa970       ?JoinPartyHandler@CMapServer@@QAEXHHPAD@Z 004ab970 f   MapServer.obj
 0001:000aaf40       ?KillCrusadeObjects@CMapServer@@QAEXXZ 004abf40 f   MapServer.obj
 0001:000ab050       ?LaunchSummonEvent@CMapServer@@QAEXXZ 004ac050 f   MapServer.obj
 0001:000ab3a0       ?LevelUpSettingsHandler@CMapServer@@QAEXHPADK@Z 004ac3a0 f   MapServer.obj
 0001:000ac370       ?LoadBannedList@CMapServer@@QAEXH@Z 004ad370 f   MapServer.obj
 0001:000ac520       ?LoadPlayerItems@CMapServer@@QAEXH@Z 004ad520 f   MapServer.obj
 0001:000ad3f0       ?LocalEndCrusadeMode@CMapServer@@QAEXH@Z 004ae3f0 f   MapServer.obj
 0001:000ad770       ?LocalEndRushNetMode@CMapServer@@QAEXH@Z 004ae770 f   MapServer.obj
 0001:000adb30       ?LocalSavePlayerData@CMapServer@@QAEXH@Z 004aeb30 f   MapServer.obj
 0001:000adf70       ?LocalStarHappyDay@CMapServer@@QAEXH@Z 004aef70 f   MapServer.obj
 0001:000ae0e0       ?LocalStarHappyHour@CMapServer@@QAEXH@Z 004af0e0 f   MapServer.obj
 0001:000ae250       ?LocalStartCrusadeMode@CMapServer@@QAEXK@Z 004af250 f   MapServer.obj
 0001:000ae580       ?LocalStartRushNetMode@CMapServer@@QAEXXZ 004af580 f   MapServer.obj
 0001:000ae780       ?ManaMe@CMapServer@@QAEXH@Z 004af780 f   MapServer.obj
 0001:000ae960       ?ManualEndCrusadeMode@CMapServer@@QAEXH@Z 004af960 f   MapServer.obj
 0001:000aea10       ?ManualStartHappyDay@CMapServer@@QAEXHPADK@Z 004afa10 f   MapServer.obj
 0001:000aed00       ?ManualStartHappyHour@CMapServer@@QAEXHPADK@Z 004afd00 f   MapServer.obj
 0001:000aeff0       ?MapStatusHandler@CMapServer@@QAEXHHPAD@Z 004afff0 f   MapServer.obj
 0001:000af9e0       ?MeteorStrikeHandler@CMapServer@@QAEXH@Z 004b09e0 f   MapServer.obj
 0001:000b0160       ?MeteorStrikeMsgHandler@CMapServer@@QAEXD@Z 004b1160 f   MapServer.obj
 0001:000b05d0       ?MineralGenerator@CMapServer@@QAEXXZ 004b15d0 f   MapServer.obj
 0001:000b07f0       ?MobGenerator@CMapServer@@QAEXXZ 004b17f0 f   MapServer.obj
 0001:000b5ca0       ?MsgProcess@CMapServer@@QAEXXZ 004b6ca0 f   MapServer.obj
 0001:000b6d20       ?MultiplicadorExp@CMapServer@@QAEXGK@Z 004b7d20 f   MapServer.obj
 0001:000b7010       ?NextRound@CMapServer@@QAEXFFF@Z 004b8010 f   MapServer.obj
 0001:000b7310       ?NivelObteined@CMapServer@@QAEXH@Z 004b8310 f   MapServer.obj
 0001:000b9260       ?NotifyCDelete@CMapServer@@QAEXH@Z 004ba260 f   MapServer.obj
 0001:000b9350       ?NotifyCInsert@CMapServer@@QAEXH@Z 004ba350 f   MapServer.obj
 0001:000b9440       ?NotifyFragments@CMapServer@@QAEXH@Z 004ba440 f   MapServer.obj
 0001:000b9680       ?NotifyNewEndurance@CMapServer@@QAEXHFHH@Z 004ba680 f   MapServer.obj
 0001:000b97c0       ?NotifyNewWeight@CMapServer@@QAEXHFG@Z 004ba7c0 f   MapServer.obj
 0001:000b98c0       ?NotifyRankData@CMapServer@@QAEXH@Z 004ba8c0 f   MapServer.obj
 0001:000b9a70       ?NpcBehavior_Attack@CMapServer@@QAEXH@Z 004baa70 f   MapServer.obj
 0001:000bd200       ?NpcBehavior_Dead@CMapServer@@QAEXHH@Z 004be200 f   MapServer.obj
 0001:000bd370       ?NpcBehavior_Flee@CMapServer@@QAEXH@Z 004be370 f   MapServer.obj
 0001:000bdb80       ?NpcBehavior_Move@CMapServer@@QAEXH@Z 004beb80 f   MapServer.obj
 0001:000beb90       ?NpcBehavior_Stop@CMapServer@@QAEXH@Z 004bfb90 f   MapServer.obj
 0001:000befd0       ?NpcKilledHandler@CMapServer@@QAEXFDHFH@Z 004bffd0 f   MapServer.obj
 0001:000c2330       ?NpcMagicHandler@CMapServer@@QAEXHFFF@Z 004c3330 f   MapServer.obj
 0001:000c5c40       ?NpcProcess@CMapServer@@QAEXXZ 004c6c40 f   MapServer.obj
 0001:000c6720       ?NpcRequestAssistance@CMapServer@@QAEXH@Z 004c7720 f   MapServer.obj
 0001:000c6a00       ?NpcTalkHandler@CMapServer@@QAEXHHH@Z 004c7a00 f   MapServer.obj
 0001:000c74f0       ?ObteinStarterKit@CMapServer@@QAEXH@Z 004c84f0 f   MapServer.obj
 0001:000c7c70       ?OnClientRead@CMapServer@@QAEXH@Z 004c8c70 f   MapServer.obj
 0001:000c7d80       ?OnClientSocketEvent@CMapServer@@QAEXIIJ@Z 004c8d80 f   MapServer.obj
 0001:000c8030       ?OnKeyDown@CMapServer@@QAEXIJ@Z 004c9030 f   MapServer.obj
 0001:000c80a0       ?OnKeyUp@CMapServer@@QAEXIJ@Z 004c90a0 f   MapServer.obj
 0001:000c8240       ?OnMainLogRead@CMapServer@@QAEXXZ 004c9240 f   MapServer.obj
 0001:000c8330       ?OnMainLogSocketEvent@CMapServer@@QAEXIIJ@Z 004c9330 f   MapServer.obj
 0001:000c8510       ?OnStartGameSignal@CMapServer@@QAEXXZ 004c9510 f   MapServer.obj
 0001:000c86e0       ?OnSubLogRead@CMapServer@@QAEXH@Z 004c96e0 f   MapServer.obj
 0001:000c87e0       ?OnSubLogSocketEvent@CMapServer@@QAEXIIJ@Z 004c97e0 f   MapServer.obj
 0001:000c8e20       ?OnTimer@CMapServer@@QAEXD@Z 004c9e20 f   MapServer.obj
 0001:000ca230       ?PK_KillRewardHandler@CMapServer@@QAEXFF@Z 004cb230 f   MapServer.obj
 0001:000ca520       ?PandoraBox@CMapServer@@QAEXHF@Z 004cb520 f   MapServer.obj
 0001:000ca8e0       ?ParseCommand@CMapServer@@QAEXPAD@Z 004cb8e0 f   MapServer.obj
 0001:000cb1a0       ?PermitedType1@CMapServer@@QAE_NF@Z 004cc1a0 f   MapServer.obj
 0001:000cb1f0       ?PermitedType2@CMapServer@@QAE_NF@Z 004cc1f0 f   MapServer.obj
 0001:000cb240       ?PlayerCommandCheckAdmins@CMapServer@@QAEXH@Z 004cc240 f   MapServer.obj
 0001:000cb440       ?PlayerMagicHandler@CMapServer@@QAEXHHHFHH@Z 004cc440 f   MapServer.obj
 0001:000e0000       ?PlayerOrder_ChangeCity@CMapServer@@QAEXH@Z 004e1000 f   MapServer.obj
 0001:000e0ba0       ?PlayerReceivedCoords@CMapServer@@QAEXHHH@Z 004e1ba0 f   MapServer.obj
 0001:000e0ce0       ?PoisonEffect@CMapServer@@QAEXHH@Z 004e1ce0 f   MapServer.obj
 0001:000e1040       ?QuestAcceptedHandler@CMapServer@@QAEXH@Z 004e2040 f   MapServer.obj
 0001:000e14d0       ?Quit@CMapServer@@QAEXXZ   004e24d0 f   MapServer.obj
 0001:000e1fa0       ?Random@CMapServer@@QAEHHH@Z 004e2fa0 f   MapServer.obj
 0001:000e2000       ?ReadMapCFGs@CMapServer@@QAEHPAD@Z 004e3000 f   MapServer.obj
 0001:000e23f0       ?ReadMarket@CMapServer@@QAEXH@Z 004e33f0 f   MapServer.obj
 0001:000e25e0       ?ReadProcessAndDllBlockedFile@CMapServer@@QAEHPADH@Z 004e35e0 f   MapServer.obj
 0001:000e2840       ?ReadQuestItemsCFG@CMapServer@@QAEHPAD@Z 004e3840 f   MapServer.obj
 0001:000e4310       ?ReadTradeItems@CMapServer@@QAEHPAD@Z 004e5310 f   MapServer.obj
 0001:000e4a50       ?RecallHunterPlayer@CMapServer@@QAEXXZ 004e5a50 f   MapServer.obj
 0001:000e4b80       ?RefreshParty@CMapServer@@QAEXHF@Z 004e5b80 f   MapServer.obj
 0001:000e53c0       ?ReleaseFollowMode@CMapServer@@QAEXFD@Z 004e63c0 f   MapServer.obj
 0001:000e5520       ?ReleaseItemHandler@CMapServer@@QAEXHFH@Z 004e6520 f   MapServer.obj
 0001:000e6430       ?ReloadSummonEventConfig@CMapServer@@QAEXXZ 004e7430 f   MapServer.obj
 0001:000e6570       ?RemoveClientShortCut@CMapServer@@QAEXH@Z 004e7570 f   MapServer.obj
 0001:000e66d0       ?RemoveCrusadeStructures@CMapServer@@QAEXXZ 004e76d0 f   MapServer.obj
 0001:000e67e0       ?RemoveFromGuild@CMapServer@@QAEXH@Z 004e77e0 f   MapServer.obj
 0001:000e69e0       ?RemoveFromTarget@CMapServer@@QAEXFDH@Z 004e79e0 f   MapServer.obj
 0001:000e6c90       ?RemoveHODStructures@CMapServer@@QAEXXZ 004e7c90 f   MapServer.obj
 0001:000e6da0       ?RemoveItemMasterID@CMapServer@@QAEXHFF@Z 004e7da0 f   MapServer.obj
 0001:000e7030       ?RemoveItemUniqueID@CMapServer@@QAEXHFF@Z 004e8030 f   MapServer.obj
 0001:000e7440       ?RemoveOccupyFlags@CMapServer@@QAEXH@Z 004e8440 f   MapServer.obj
 0001:000e78e0       ?RemoveRushNetStructures@CMapServer@@QAEXXZ 004e88e0 f   MapServer.obj
 0001:000e7a50       ?RemoveTotalID@CMapServer@@QAEXHFF@Z 004e8a50 f   MapServer.obj
 0001:000e7e50       ?RemoveTowerStructures@CMapServer@@QAEXXZ 004e8e50 f   MapServer.obj
 0001:000e7f50       ?ReqCreateCraftingHandler@CMapServer@@QAEXHPAD@Z 004e8f50 f   MapServer.obj
 0001:000e9b30       ?ReqCreatePortionHandler@CMapServer@@QAEXHPAD@Z 004eab30 f   MapServer.obj
 0001:000eaf70       ?ReqCreateSlateHandler@CMapServer@@QAEXHPAD@Z 004ebf70 f   MapServer.obj
 0001:000ebe70       ?ReqGetFishThisTimeHandler@CMapServer@@QAEXH@Z 004ece70 f   MapServer.obj
 0001:000ec2c0       ?ReqMobHP@CMapServer@@QAEXHH@Z 004ed2c0 f   MapServer.obj
 0001:000ec380       ?ReqRepairItemCofirmHandler2@CMapServer@@QAEXHDPAD@Z 004ed380 f   MapServer.obj
 0001:000ec4f0       ?ReqRepairItemCofirmHandler@CMapServer@@QAEXHDPAD@Z 004ed4f0 f   MapServer.obj
 0001:000ecb30       ?ReqRepairItemHandler@CMapServer@@QAEXHDDPAD@Z 004edb30 f   MapServer.obj
 0001:000ed1b0       ?ReqSellItemConfirmHandler@CMapServer@@QAEXHDHPAD@Z 004ee1b0 f   MapServer.obj
 0001:000ee610       ?ReqSellItemHandler@CMapServer@@QAEXHDDHPAD@Z 004ef610 f   MapServer.obj
 0001:000ef3f0       ?RequestAcceptJoinPartyHandler@CMapServer@@QAEXHH@Z 004f03f0 f   MapServer.obj
 0001:000efc60       ?RequestBuyAssasainPoints@CMapServer@@QAEXHPADK@Z 004f0c60 f   MapServer.obj
 0001:000f0030       ?RequestBuyItem@CMapServer@@QAEXHPADK@Z 004f1030 f   MapServer.obj
 0001:000f09e0       ?RequestCancelLogOutHandler@CMapServer@@QAEXH@Z 004f19e0 f   MapServer.obj
 0001:000f0a50       ?RequestChargedTeleportHandler@CMapServer@@QAEXHPADK@Z 004f1a50 f   MapServer.obj
 0001:000f12e0       ?RequestCheckFlag@CMapServer@@QAEXH@Z 004f22e0 f   MapServer.obj
 0001:000f1810       ?RequestCivilRightHandler@CMapServer@@QAEXHPAD@Z 004f2810 f   MapServer.obj
 0001:000f1a70       ?RequestCreateNewGuildHandler@CMapServer@@QAEXHPADK@Z 004f2a70 f   MapServer.obj
 0001:000f22a0       ?RequestCreatePartyHandler@CMapServer@@QAEXH@Z 004f32a0 f   MapServer.obj
 0001:000f2750       ?RequestDefineSellList@CMapServer@@QAEXHPADK@Z 004f3750 f   MapServer.obj
 0001:000f2a10       ?RequestDisbandGuildHandler@CMapServer@@QAEXHPADK@Z 004f3a10 f   MapServer.obj
 0001:000f2be0       ?RequestDismissPartyHandler@CMapServer@@QAEXH@Z 004f3be0 f   MapServer.obj
 0001:000f32f0       ?RequestFullObjectData@CMapServer@@QAEXHPAD@Z 004f42f0 f   MapServer.obj
 0001:000f3c90       ?RequestGetMarketItem@CMapServer@@QAEXHPAD@Z 004f4c90 f   MapServer.obj
 0001:000f4650       ?RequestGuildMembers@CMapServer@@QAEXH@Z 004f5650 f   MapServer.obj
 0001:000f4830       ?RequestGuildNameHandler@CMapServer@@QAEXHHH@Z 004f5830 f   MapServer.obj
 0001:000f4970       ?RequestGuildTeleportHandler@CMapServer@@QAEXH@Z 004f5970 f   MapServer.obj
 0001:000f4c20       ?RequestHuntmode@CMapServer@@QAEXH@Z 004f5c20 f   MapServer.obj
 0001:000f4ff0       ?RequestInitDataHandler@CMapServer@@QAEXHPADDH@Z 004f5ff0 f   MapServer.obj
 0001:000f63b0       ?RequestInitPlayerHandler@CMapServer@@QAEXHPADD@Z 004f73b0 f   MapServer.obj
 0001:000f6f70       ?RequestItemUpgradeHandler@CMapServer@@QAEXHH@Z 004f7f70 f   MapServer.obj
 0001:000fa3b0       ?RequestItemsList@CMapServer@@QAEXHPADK@Z 004fb3b0 f   MapServer.obj
 0001:000fa760       ?RequestJoinPartyHandler@CMapServer@@QAEXHPADK@Z 004fb760 f   MapServer.obj
 0001:000face0       ?RequestLogOutHandler@CMapServer@@QAEXH@Z 004fbce0 f   MapServer.obj
 0001:000fad50       ?RequestMarketItems@CMapServer@@QAEXHPAD@Z 004fbd50 f   MapServer.obj
 0001:000fb3d0       ?RequestMarketNames@CMapServer@@QAEXH@Z 004fc3d0 f   MapServer.obj
 0001:000fb7a0       ?RequestNoticementHandler@CMapServer@@QAEXHPAD@Z 004fc7a0 f   MapServer.obj
 0001:000fbaf0       ?RequestPurchaseItemHandler@CMapServer@@QAEXHPADH@Z 004fcaf0 f   MapServer.obj
 0001:000fc9a0       ?RequestRemoveItemExchange@CMapServer@@QAEXHH@Z 004fd9a0 f   MapServer.obj
 0001:000fced0       ?RequestRestartHandler@CMapServer@@QAEXH@Z 004fded0 f   MapServer.obj
 0001:000fda30       ?RequestResurrectPlayer@CMapServer@@QAEXHH@Z 004fea30 f   MapServer.obj
 0001:000fdf10       ?RequestRetrieveItemHandler@CMapServer@@QAEXHPAD@Z 004fef10 f   MapServer.obj
 0001:000fee90       ?RequestSellItemListHandler@CMapServer@@QAEXHPAD@Z 004ffe90 f   MapServer.obj
 0001:000ff080       ?RequestSetGuildConstructLocHandler@CMapServer@@QAEXHHHHPAD@Z 00500080 f   MapServer.obj
 0001:000ff530       ?RequestSetGuildTeleportLocHandler@CMapServer@@QAEXHHHHPAD@Z 00500530 f   MapServer.obj
 0001:000ffa00       ?RequestSetMarketItem@CMapServer@@QAEXHPAD@Z 00500a00 f   MapServer.obj
 0001:000ffda0       ?RequestStudyMagicHandler@CMapServer@@QAEXHPADH@Z 00500da0 f   MapServer.obj
 0001:00100430       ?RequestSummonWarUnitHandler@CMapServer@@QAEXHHHDDD@Z 00501430 f   MapServer.obj
 0001:00101650       ?RequestTeleportHandler@CMapServer@@QAEXHPAD0HH@Z 00502650 f   MapServer.obj
 0001:00104930       ?RequestTeleportListHandler@CMapServer@@QAEXHPADK@Z 00505930 f   MapServer.obj
 0001:00105a60       ?RequestTradeItemHandler@CMapServer@@QAEXHPADHF@Z 00506a60 f   MapServer.obj
 0001:00106d00       ?ResetAssasain@CMapServer@@QAEXHH@Z 00507d00 f   MapServer.obj
 0001:001070c0       ?ResponseCreateNewGuildHandler@CMapServer@@QAEXPADK@Z 005080c0 f   MapServer.obj
 0001:001075e0       ?ResponseDisbandGuildHandler@CMapServer@@QAEXPADK@Z 005085e0 f   MapServer.obj
 0001:00107aa0       ?ResponsePlayerDataHandler@CMapServer@@QAEXPADK@Z 00508aa0 f   MapServer.obj
 0001:00107d90       ?ResponseSavePlayerDataReplyHandler@CMapServer@@QAEXPADK@Z 00508d90 f   MapServer.obj
 0001:00107f00       ?RestoreItems@CMapServer@@QAEXH@Z 00508f00 f   MapServer.obj
 0001:00108750       ?ResurrectPlayer@CMapServer@@QAEXH@Z 00509750 f   MapServer.obj
 0001:00108a80       ?RollDice@CMapServer@@QAEHHH@Z 00509a80 f   MapServer.obj
 0001:00108ac0       ?SaveAllCharacters@CMapServer@@QAEXXZ 00509ac0 f   MapServer.obj
 0001:00108bb0       ?SaveCharacterMarket@CMapServer@@QAEXH@Z 00509bb0 f   MapServer.obj
 0001:00109390       ?SearchAssasainPosition@CMapServer@@QAEXH@Z 0050a390 f   MapServer.obj
 0001:00109650       ?SearchStatusFriend@CMapServer@@QAEXHFQAD@Z 0050a650 f   MapServer.obj
 0001:001097c0       ?SelectCrusadeDutyHandler@CMapServer@@QAEXHH@Z 0050a7c0 f   MapServer.obj
 0001:00109970       ?SendAlertMsg@CMapServer@@QAEXHPAD@Z 0050a970 f   MapServer.obj
 0001:00109a40       ?SendBankItemData@CMapServer@@QAEHHPAVCItem@@FH@Z 0050aa40 f   MapServer.obj
 0001:00109e50       ?SendCollectedMana@CMapServer@@QAEXXZ 0050ae50 f   MapServer.obj
 0001:0010a000       ?SendCommand@CMapServer@@QAEXHPBDHH@Z 0050b000 f   MapServer.obj
 0001:0010a130       ?SendContribution@CMapServer@@QAEXH@Z 0050b130 f   MapServer.obj
 0001:0010a3b0       ?SendCriticals@CMapServer@@QAEXH@Z 0050b3b0 f   MapServer.obj
 0001:0010a630       ?SendDataListItems@CMapServer@@QAEXHHFF@Z 0050b630 f   MapServer.obj
 0001:0010add0       ?SendDllsBlocked@CMapServer@@QAEXH@Z 0050bdd0 f   MapServer.obj
 0001:0010af20       ?SendEkAnnoucer@CMapServer@@QAEXQADH@Z 0050bf20 f   MapServer.obj
 0001:0010b030       ?SendEnemyKills@CMapServer@@QAEXH@Z 0050c030 f   MapServer.obj
 0001:0010b2b0       ?SendEventData@CMapServer@@QAEXH@Z 0050c2b0 f   MapServer.obj
 0001:0010b410       ?SendEventOpenData@CMapServer@@QAEXH@Z 0050c410 f   MapServer.obj
 0001:0010bd50       ?SendEventToNearClient_TypeA@CMapServer@@QAEXFDKGFFF@Z 0050cd50 f   MapServer.obj
 0001:0010d5d0       ?SendEventToNearClient_TypeB@CMapServer@@QAEXKGDFFFFFF@Z 0050e5d0 f   MapServer.obj
 0001:0010dad0       ?SendF5DataCharacter@CMapServer@@QAEXH@Z 0050ead0 f   MapServer.obj
 0001:0010dc30       ?SendGuildMsg@CMapServer@@QAEXHGFFPAD@Z 0050ec30 f   MapServer.obj
 0001:0010e180       ?SendHPStructures@CMapServer@@QAEXF@Z 0050f180 f   MapServer.obj
 0001:0010e330       ?SendHpReliquia@CMapServer@@QAEXXZ 0050f330 f   MapServer.obj
 0001:0010e510       ?SendItemNotifyMsg@CMapServer@@QAEXHGPAVCItem@@H@Z 0050f510 f   MapServer.obj
 0001:0010eb90       ?SendLasData@CMapServer@@QAEXH@Z 0050fb90 f   MapServer.obj
 0001:0010ee20       ?SendMessageToClientUDP@CMapServer@@QAEXH@Z 0050fe20 f   MapServer.obj
 0001:0010eed0       ?SendNotifyMsg@CMapServer@@QAEXHHGKKKPADKKKKKK0D@Z 0050fed0 f   MapServer.obj
 0001:00115820       ?SendObjectMotionRejectMsg@CMapServer@@QAEXH@Z 00516820 f   MapServer.obj
 0001:00115a30       ?SendObjectsData@CMapServer@@QAEXH@Z 00516a30 f   MapServer.obj
 0001:00115c30       ?SendPlayerData@CMapServer@@QAEXH@Z 00516c30 f   MapServer.obj
 0001:00116330       ?SendProcessBlocked@CMapServer@@QAEXH@Z 00517330 f   MapServer.obj
 0001:00116480       ?SendRestPlayerData@CMapServer@@QAEXH@Z 00517480 f   MapServer.obj
 0001:00116d90       ?SendUDPCommand@CMapServer@@QAEXHPBDHH@Z 00517d90 f   MapServer.obj
 0001:00116ef0       ?SetAccountMsg@CMapServer@@QAEXHPADK@Z 00517ef0 f   MapServer.obj
 0001:001172e0       ?SetAfkFlag@CMapServer@@QAEXHPADK@Z 005182e0 f   MapServer.obj
 0001:00117640       ?SetAngelFlag@CMapServer@@QAEXFDHH@Z 00518640 f   MapServer.obj
 0001:00117ac0       ?SetBerserkFlag@CMapServer@@QAEXFDH@Z 00518ac0 f   MapServer.obj
 0001:00117cd0       ?SetDefenseShieldFlag@CMapServer@@QAEXFDH@Z 00518cd0 f   MapServer.obj
 0001:00117ef0       ?SetDownSkillIndexHandler@CMapServer@@QAEXHH@Z 00518ef0 f   MapServer.obj
 0001:00118040       ?SetExchangeItem@CMapServer@@QAEXHHH@Z 00519040 f   MapServer.obj
 0001:00118b30       ?SetFlagCarrierFlag@CMapServer@@QAEXHH@Z 00519b30 f   MapServer.obj
 0001:00118ec0       ?SetForceRecallTime@CMapServer@@QAEXH@Z 00519ec0 f   MapServer.obj
 0001:00119210       ?SetFuryWarFlag@CMapServer@@QAEXFDH@Z 0051a210 f   MapServer.obj
 0001:00119370       ?SetHeroFlag@CMapServer@@QAEXFDH@Z 0051a370 f   MapServer.obj
 0001:00119590       ?SetIceFlag@CMapServer@@QAEXFDH@Z 0051a590 f   MapServer.obj
 0001:001197a0       ?SetIllusionFlag@CMapServer@@QAEXFDH@Z 0051a7a0 f   MapServer.obj
 0001:001199c0       ?SetIllusionMovementFlag@CMapServer@@QAEXFDH@Z 0051a9c0 f   MapServer.obj
 0001:00119b20       ?SetInhibitionFlag@CMapServer@@QAEXFDH@Z 0051ab20 f   MapServer.obj
 0001:00119c40       ?SetInvisibilityFlag@CMapServer@@QAEXFDH@Z 0051ac40 f   MapServer.obj
 0001:00119e50       ?SetItemCount@CMapServer@@QAEHHHK@Z 0051ae50 f   MapServer.obj
 0001:00119ff0       ?SetItemCount@CMapServer@@QAEHHPADK@Z 0051aff0 f   MapServer.obj
 0001:0011a230       ?SetLimboAfkFlag@CMapServer@@QAEXHH@Z 0051b230 f   MapServer.obj
 0001:0011a560       ?SetMagicProtectionFlag@CMapServer@@QAEXFDH@Z 0051b560 f   MapServer.obj
 0001:0011a780       ?SetNoHunterMode@CMapServer@@QAEXHH@Z 0051b780 f   MapServer.obj
 0001:0011a9c0       ?SetPlayerProfile@CMapServer@@QAEXHPADK@Z 0051b9c0 f   MapServer.obj
 0001:0011abc0       ?SetPlayerReputation@CMapServer@@QAEXHPADDK@Z 0051bbc0 f   MapServer.obj
 0001:0011b320       ?SetPoisonFlag@CMapServer@@QAEXFDH@Z 0051c320 f   MapServer.obj
 0001:0011b540       ?SetProtectionFromArrowFlag@CMapServer@@QAEXFDH@Z 0051c540 f   MapServer.obj
 0001:0011b760       ?SetSlateFlag@CMapServer@@QAEXHF_N@Z 0051c760 f   MapServer.obj
 0001:0011bad0       ?SetSummonMobAction@CMapServer@@QAEXHHKPAD@Z 0051cad0 f   MapServer.obj
 0001:0011c1e0       ?ShowClientMsg@CMapServer@@QAEXHPAD@Z 0051d1e0 f   MapServer.obj
 0001:0011c480       ?ShowVersion@CMapServer@@QAEXH@Z 0051d480 f   MapServer.obj
 0001:0011c520       ?ShutUpPlayer@CMapServer@@QAEXHPADK@Z 0051d520 f   MapServer.obj
 0001:0011cae0       ?SpecialEventHandler@CMapServer@@QAEXXZ 0051dae0 f   MapServer.obj
 0001:0011cbf0       ?StartAllDkEks@CMapServer@@QAEXXZ 0051dbf0 f   MapServer.obj
 0001:0011cda0       ?StartAllEks@CMapServer@@QAEXXZ 0051dda0 f   MapServer.obj
 0001:0011cf50       ?StartCaptureTheFlag@CMapServer@@QAEXXZ 0051df50 f   MapServer.obj
 0001:0011d090       ?StartCityVsCity@CMapServer@@QAEXXZ 0051e090 f   MapServer.obj
 0001:0011d250       ?StartDkEvent@CMapServer@@QAEXH@Z 0051e250 f   MapServer.obj
 0001:0011d3f0       ?StartWorldWar@CMapServer@@QAEXXZ 0051e3f0 f   MapServer.obj
 0001:0011d580       ?StartWorldWarII@CMapServer@@QAEXXZ 0051e580 f   MapServer.obj
 0001:0011d710       ?StateChangeHandler@CMapServer@@QAEXHPADK@Z 0051e710 f   MapServer.obj
 0001:0011e2c0       ?SummonAresden@CMapServer@@QAEXXZ 0051f2c0 f   MapServer.obj
 0001:0011e900       ?SummonAssasain@CMapServer@@QAEXXZ 0051f900 f   MapServer.obj
 0001:0011ef40       ?SummonCelebrate@CMapServer@@QAEXH@Z 0051ff40 f   MapServer.obj
 0001:0011f5f0       ?SummonElvine@CMapServer@@QAEXXZ 005205f0 f   MapServer.obj
 0001:0011fc30       ?SyncMiddlelandMapInfo@CMapServer@@QAEXXZ 00520c30 f   MapServer.obj
 0001:0011fd70       ?TargetSearch@CMapServer@@QAEXHPAFPAD@Z 00520d70 f   MapServer.obj
 0001:001206d0       ?TimeHitPointsUp@CMapServer@@QAEXH@Z 005216d0 f   MapServer.obj
 0001:00120ab0       ?TimeManaPointsUp@CMapServer@@QAEXH@Z 00521ab0 f   MapServer.obj
 0001:00120e50       ?TimeStaminarPointsUp@CMapServer@@QAEXH@Z 00521e50 f   MapServer.obj
 0001:001211f0       ?ToggleCombatModeHandler@CMapServer@@QAEXH@Z 005221f0 f   MapServer.obj
 0001:00121410       ?ToggleSafeAttackModeHandler@CMapServer@@QAEXH@Z 00522410 f   MapServer.obj
 0001:00121680       ?ToggleWhisperPlayer@CMapServer@@QAEXHPADK@Z 00522680 f   MapServer.obj
 0001:00121c70       ?TrainSkillResponse@CMapServer@@QAEXHHHH@Z 00522c70 f   MapServer.obj
 0001:00121f40       ?UnEquipItems@CMapServer@@QAEXH@Z 00522f40 f   MapServer.obj
 0001:00122030       ?UpdateMapSectorInfo@CMapServer@@QAEXXZ 00523030 f   MapServer.obj
 0001:001229a0       ?UpdateProcessClient@CMapServer@@QAEXXZ 005239a0 f   MapServer.obj
 0001:00122ac0       ?UpdateRushNet@CMapServer@@QAEXH_N@Z 00523ac0 f   MapServer.obj
 0001:00122c60       ?UpdateTowerDefence@CMapServer@@QAEXH@Z 00523c60 f   MapServer.obj
 0001:00122e20       ?UseItemHandler@CMapServer@@QAEXHFFFF@Z 00523e20 f   MapServer.obj
 0001:00126940       ?UseSkillHandler@CMapServer@@QAEXHHHH@Z 00527940 f   MapServer.obj
 0001:00126b50       ?UserCommand_BanGuildsman@CMapServer@@QAEXHPADK@Z 00527b50 f   MapServer.obj
 0001:001271c0       ?VerificarItem@CMapServer@@QAEHH@Z 005281c0 f   MapServer.obj
 0001:00127610       ?WhetherProcessor@CMapServer@@QAEXXZ 00528610 f   MapServer.obj
 0001:00127a20       ?WriteTradeLog@CMapServer@@QAEXXZ 00528a20 f   MapServer.obj
 0001:00127d70       ?ZerkMe@CMapServer@@QAEXH@Z 00528d70 f   MapServer.obj
 0001:00127fb0       ?_AdjustRareItemValue@CMapServer@@QAEXPAVCItem@@@Z 00528fb0 f   MapServer.obj
 0001:00128200       ?_Alloc_proxy@?$_Tree_alloc@$0A@U?$_Tree_base_types@U?$pair@$$CBFH@std@@V?$allocator@U?$pair@$$CBFH@std@@@2@@std@@@std@@QAEXXZ 00529200 f i MapServer.obj
 0001:00128270       ?_Alloc_proxy@?$_Vector_alloc@$0A@U?$_Vec_base_types@UMarketItem@?N@??RequestMarketItems@CMapServer@@QAEXHPAD@Z@V?$allocator@UMarketItem@?N@??RequestMarketItems@CMapServer@@QAEXHPAD@Z@@std@@@std@@@std@@QAEXXZ 00529270 f i MapServer.obj
 0001:001282d0       ?_Alloc_proxy@?$_Vector_alloc@$0A@U?$_Vec_base_types@URebirthLevelSettings@CMapServer@@V?$allocator@URebirthLevelSettings@CMapServer@@@std@@@std@@@std@@QAEXXZ 005292d0 f i MapServer.obj
 0001:00128330       ?_Alloc_proxy@?$_Vector_alloc@$0A@U?$_Vec_base_types@Ust_objects@CMapServer@@V?$allocator@Ust_objects@CMapServer@@@std@@@std@@@std@@QAEXXZ 00529330 f i MapServer.obj
 0001:00128390       ?_ArmarQuestContens@CMapServer@@QAEXHH@Z 00529390 f   MapServer.obj
 0001:001285e0       ?_BWM_Command_Shutup@CMapServer@@QAEXPAD@Z 005295e0 f   MapServer.obj
 0001:001287c0       ?_Buyheadnode@?$_Tree_alloc@$0A@U?$_Tree_base_types@U?$pair@$$CBFH@std@@V?$allocator@U?$pair@$$CBFH@std@@@2@@std@@@std@@QAEPAU?$_Tree_node@U?$pair@$$CBFH@std@@PAX@2@XZ 005297c0 f i MapServer.obj
 0001:00128980       ?_Buynode0@?$_Tree_buy@U?$pair@$$CBFH@std@@V?$allocator@U?$pair@$$CBFH@std@@@2@@std@@QAEPAU?$_Tree_node@U?$pair@$$CBFH@std@@PAX@2@XZ 00529980 f i MapServer.obj
 0001:00128b20       ?_CheckAttackType@CMapServer@@QAEXHPAF@Z 00529b20 f   MapServer.obj
 0001:00129040       ?_CheckMiningAction@CMapServer@@QAEXHHH@Z 0052a040 f   MapServer.obj
 0001:0012a210       ?_CheckQuestEnvironment@CMapServer@@QAEXH@Z 0052b210 f   MapServer.obj
 0001:0012a4a0       ?_ClearExchangeStatus@CMapServer@@QAEXH@Z 0052b4a0 f   MapServer.obj
 0001:0012a720       ?_ClearQuestStatus@CMapServer@@QAEXHF@Z 0052b720 f   MapServer.obj
 0001:0012a9c0       ?_Color@?$_Tree_val@U?$_Tree_simple_types@U?$pair@$$CBFH@std@@@std@@@std@@SAAADPAU?$_Tree_node@U?$pair@$$CBFH@std@@PAX@2@@Z 0052b9c0 f i MapServer.obj
 0001:0012a9e0       ?_Compat@?$_Vector_const_iterator@V?$_Vector_val@U?$_Simple_types@UMarketItem@?N@??RequestMarketItems@CMapServer@@QAEXHPAD@Z@@std@@@std@@@std@@QBEXABV12@@Z 0052b9e0 f i MapServer.obj
 0001:0012aab0       ?_Destroy@?$vector@UMarketItem@?N@??RequestMarketItems@CMapServer@@QAEXHPAD@Z@V?$allocator@UMarketItem@?N@??RequestMarketItems@CMapServer@@QAEXHPAD@Z@@std@@@std@@IAEXPAUMarketItem@?N@??RequestMarketItems@CMapServer@@QAEXHPAD@Z@1@Z 0052bab0 f i MapServer.obj
 0001:0012ab00       ?_Destroy@?$vector@URebirthLevelSettings@CMapServer@@V?$allocator@URebirthLevelSettings@CMapServer@@@std@@@std@@IAEXPAURebirthLevelSettings@CMapServer@@0@Z 0052bb00 f i MapServer.obj
 0001:0012ab50       ?_Destroy@?$vector@Ust_objects@CMapServer@@V?$allocator@Ust_objects@CMapServer@@@std@@@std@@IAEXPAUst_objects@CMapServer@@0@Z 0052bb50 f i MapServer.obj
 0001:0012aba0       ?_Destroy_if_not_nil@?$_Tree@V?$_Tmap_traits@FHU?$less@F@std@@V?$allocator@U?$pair@$$CBFH@std@@@2@$0A@@std@@@std@@IAEXPAU?$_Tree_node@U?$pair@$$CBFH@std@@PAX@2@@Z 0052bba0 f i MapServer.obj
 0001:0012ac10       ?_Erase@?$_Tree@V?$_Tmap_traits@FHU?$less@F@std@@V?$allocator@U?$pair@$$CBFH@std@@@2@$0A@@std@@@std@@IAEXPAU?$_Tree_node@U?$pair@$$CBFH@std@@PAX@2@@Z 0052bc10 f i MapServer.obj
 0001:0012ace0       ?_Free_proxy@?$_Tree_alloc@$0A@U?$_Tree_base_types@U?$pair@$$CBFH@std@@V?$allocator@U?$pair@$$CBFH@std@@@2@@std@@@std@@QAEXXZ 0052bce0 f i MapServer.obj
 0001:0012ad50       ?_Free_proxy@?$_Vector_alloc@$0A@U?$_Vec_base_types@UMarketItem@?N@??RequestMarketItems@CMapServer@@QAEXHPAD@Z@V?$allocator@UMarketItem@?N@??RequestMarketItems@CMapServer@@QAEXHPAD@Z@@std@@@std@@@std@@QAEXXZ 0052bd50 f i MapServer.obj
 0001:0012adb0       ?_Free_proxy@?$_Vector_alloc@$0A@U?$_Vec_base_types@URebirthLevelSettings@CMapServer@@V?$allocator@URebirthLevelSettings@CMapServer@@@std@@@std@@@std@@QAEXXZ 0052bdb0 f i MapServer.obj
 0001:0012ae10       ?_Free_proxy@?$_Vector_alloc@$0A@U?$_Vec_base_types@Ust_objects@CMapServer@@V?$allocator@Ust_objects@CMapServer@@@std@@@std@@@std@@QAEXXZ 0052be10 f i MapServer.obj
 0001:0012ae70       ?_Freeheadnode@?$_Tree_alloc@$0A@U?$_Tree_base_types@U?$pair@$$CBFH@std@@V?$allocator@U?$pair@$$CBFH@std@@@2@@std@@@std@@QAEXPAU?$_Tree_node@U?$pair@$$CBFH@std@@PAX@2@@Z 0052be70 f i MapServer.obj
 0001:0012af50       ?_Freenode0@?$_Tree_buy@U?$pair@$$CBFH@std@@V?$allocator@U?$pair@$$CBFH@std@@@2@@std@@QAEXPAU?$_Tree_node@U?$pair@$$CBFH@std@@PAX@2@@Z 0052bf50 f i MapServer.obj
 0001:0012b030       ?_Get_rest@?$tuple@ABF@std@@QAEAAV?$tuple@$$$V@2@XZ 0052c030 f i MapServer.obj
 0001:0012b050       ?_Getal@?$_Tree_alloc@$0A@U?$_Tree_base_types@U?$pair@$$CBFH@std@@V?$allocator@U?$pair@$$CBFH@std@@@2@@std@@@std@@QBE?AU?$_Wrap_alloc@V?$allocator@U?$_Tree_node@U?$pair@$$CBFH@std@@PAX@std@@@std@@@2@XZ 0052c050 f i MapServer.obj
 0001:0012b080       ?_Getal@?$_Vector_alloc@$0A@U?$_Vec_base_types@UMarketItem@?N@??RequestMarketItems@CMapServer@@QAEXHPAD@Z@V?$allocator@UMarketItem@?N@??RequestMarketItems@CMapServer@@QAEXHPAD@Z@@std@@@std@@@std@@QBE?AU?$_Wrap_alloc@V?$allocator@UMarketItem@?N@??RequestMarketItems@CMapServer@@QAEXHPAD@Z@@std@@@2@XZ 0052c080 f i MapServer.obj
 0001:0012b0b0       ?_Getal@?$_Vector_alloc@$0A@U?$_Vec_base_types@URebirthLevelSettings@CMapServer@@V?$allocator@URebirthLevelSettings@CMapServer@@@std@@@std@@@std@@QBE?AU?$_Wrap_alloc@V?$allocator@URebirthLevelSettings@CMapServer@@@std@@@2@XZ 0052c0b0 f i MapServer.obj
 0001:0012b0e0       ?_Getal@?$_Vector_alloc@$0A@U?$_Vec_base_types@Ust_objects@CMapServer@@V?$allocator@Ust_objects@CMapServer@@@std@@@std@@@std@@QBE?AU?$_Wrap_alloc@V?$allocator@Ust_objects@CMapServer@@@std@@@2@XZ 0052c0e0 f i MapServer.obj
 0001:0012b110       ?_Getcomp@?$_Tree_comp@$0A@V?$_Tmap_traits@FHU?$less@F@std@@V?$allocator@U?$pair@$$CBFH@std@@@2@$0A@@std@@@std@@QBE?AU?$less@F@2@XZ 0052c110 f i MapServer.obj
 0001:0012b130       ?_Go@?$_LaunchPad@V?$_Bind@$0A@XV<lambda_b6405dba1db49920a5b2a7d45a72ec33>@@$$$V@std@@@std@@UAEIXZ 0052c130 f i MapServer.obj
 0001:0012b160       ?_Grow_to@?$vector@UMarketItem@?N@??RequestMarketItems@CMapServer@@QAEXHPAD@Z@V?$allocator@UMarketItem@?N@??RequestMarketItems@CMapServer@@QAEXHPAD@Z@@std@@@std@@IBEII@Z 0052c160 f i MapServer.obj
 0001:0012b1e0       ?_Grow_to@?$vector@Ust_objects@CMapServer@@V?$allocator@Ust_objects@CMapServer@@@std@@@std@@IBEII@Z 0052c1e0 f i MapServer.obj
 0001:0012b260       ?_Inside@?$vector@UMarketItem@?N@??RequestMarketItems@CMapServer@@QAEXHPAD@Z@V?$allocator@UMarketItem@?N@??RequestMarketItems@CMapServer@@QAEXHPAD@Z@@std@@@std@@IBE_NPBUMarketItem@?N@??RequestMarketItems@CMapServer@@QAEXHPAD@Z@@Z 0052c260 f i MapServer.obj
 0001:0012b2b0       ?_Inside@?$vector@Ust_objects@CMapServer@@V?$allocator@Ust_objects@CMapServer@@@std@@@std@@IBE_NPBUst_objects@CMapServer@@@Z 0052c2b0 f i MapServer.obj
 0001:0012b300       ?_Isnil@?$_Tree_val@U?$_Tree_simple_types@U?$pair@$$CBFH@std@@@std@@@std@@SAAADPAU?$_Tree_node@U?$pair@$$CBFH@std@@PAX@2@@Z 0052c300 f i MapServer.obj
 0001:0012b320       ?_Key@?$_Tree@V?$_Tmap_traits@FHU?$less@F@std@@V?$allocator@U?$pair@$$CBFH@std@@@2@$0A@@std@@@std@@IBEABFPAU?$_Tree_node@U?$pair@$$CBFH@std@@PAX@2@@Z 0052c320 f i MapServer.obj
 0001:0012b360       ?_Kfn@?$_Tree@V?$_Tmap_traits@FHU?$less@F@std@@V?$allocator@U?$pair@$$CBFH@std@@@2@$0A@@std@@@std@@IBEABFABU?$pair@$$CBFH@2@@Z 0052c360 f i MapServer.obj
 0001:0012b390       ?_Lbound@?$_Tree@V?$_Tmap_traits@FHU?$less@F@std@@V?$allocator@U?$pair@$$CBFH@std@@@2@$0A@@std@@@std@@IAEPAU?$_Tree_node@U?$pair@$$CBFH@std@@PAX@2@ABF@Z 0052c390 f i MapServer.obj
 0001:0012b470       ?_Left@?$_Tree_val@U?$_Tree_simple_types@U?$pair@$$CBFH@std@@@std@@@std@@SAAAPAU?$_Tree_node@U?$pair@$$CBFH@std@@PAX@2@PAU32@@Z 0052c470 f i MapServer.obj
 0001:0012b490       ?_LinkStrikePointMapIndex@CMapServer@@QAEXXZ 0052c490 f   MapServer.obj
 0001:0012b680       ?_Lmost@?$_Tree@V?$_Tmap_traits@FHU?$less@F@std@@V?$allocator@U?$pair@$$CBFH@std@@@2@$0A@@std@@@std@@IBEAAPAU?$_Tree_node@U?$pair@$$CBFH@std@@PAX@2@XZ 0052c680 f i MapServer.obj
 0001:0012b6b0       ?_Lrotate@?$_Tree@V?$_Tmap_traits@FHU?$less@F@std@@V?$allocator@U?$pair@$$CBFH@std@@@2@$0A@@std@@@std@@IAEXPAU?$_Tree_node@U?$pair@$$CBFH@std@@PAX@2@@Z 0052c6b0 f i MapServer.obj
 0001:0012b840       ?_Max@?$_Tree_val@U?$_Tree_simple_types@U?$pair@$$CBFH@std@@@std@@@std@@SAPAU?$_Tree_node@U?$pair@$$CBFH@std@@PAX@2@PAU32@@Z 0052c840 f i MapServer.obj
 0001:0012b8a0       ?_Min@?$_Tree_val@U?$_Tree_simple_types@U?$pair@$$CBFH@std@@@std@@@std@@SAPAU?$_Tree_node@U?$pair@$$CBFH@std@@PAX@2@PAU32@@Z 0052c8a0 f i MapServer.obj
 0001:0012b900       ?_Mtx_initX@std@@YAHPAPAU_Mtx_internal_imp_t@@H@Z 0052c900 f i MapServer.obj
 0001:0012b940       ?_Mtx_lockX@std@@YAHPAPAU_Mtx_internal_imp_t@@@Z 0052c940 f i MapServer.obj
 0001:0012b970       ?_Mtx_unlockX@std@@YAHPAPAU_Mtx_internal_imp_t@@@Z 0052c970 f i MapServer.obj
 0001:0012b9a0       ?_Mynode@?$_Tree_unchecked_const_iterator@V?$_Tree_val@U?$_Tree_simple_types@U?$pair@$$CBFH@std@@@std@@@std@@U_Iterator_base12@2@@std@@QBEPAU?$_Tree_node@U?$pair@$$CBFH@std@@PAX@2@XZ 0052c9a0 f i MapServer.obj
 0001:0012b9c0       ?_Myval@?$_Tree_val@U?$_Tree_simple_types@U?$pair@$$CBFH@std@@@std@@@std@@SAAAU?$pair@$$CBFH@2@PAU?$_Tree_node@U?$pair@$$CBFH@std@@PAX@2@@Z 0052c9c0 f i MapServer.obj
 0001:0012b9e0       ?_NpcBehavior_GrandMagicGenerator@CMapServer@@QAEXH@Z 0052c9e0 f   MapServer.obj
 0001:0012bce0       ?_Orphan_ptr@?$_Tree@V?$_Tmap_traits@FHU?$less@F@std@@V?$allocator@U?$pair@$$CBFH@std@@@2@$0A@@std@@@std@@IBEXAAV12@PAU?$_Tree_node@U?$pair@$$CBFH@std@@PAX@2@@Z 0052cce0 f i MapServer.obj
 0001:0012bde0       ?_Orphan_range@?$vector@UMarketItem@?N@??RequestMarketItems@CMapServer@@QAEXHPAD@Z@V?$allocator@UMarketItem@?N@??RequestMarketItems@CMapServer@@QAEXHPAD@Z@@std@@@std@@IBEXPAUMarketItem@?N@??RequestMarketItems@CMapServer@@QAEXHPAD@Z@1@Z 0052cde0 f i MapServer.obj
 0001:0012bed0       ?_Orphan_range@?$vector@Ust_objects@CMapServer@@V?$allocator@Ust_objects@CMapServer@@@std@@@std@@IBEXPAUst_objects@CMapServer@@0@Z 0052ced0 f i MapServer.obj
 0001:0012bfc0       ?_Parent@?$_Tree_val@U?$_Tree_simple_types@U?$pair@$$CBFH@std@@@std@@@std@@SAAAPAU?$_Tree_node@U?$pair@$$CBFH@std@@PAX@2@PAU32@@Z 0052cfc0 f i MapServer.obj
 0001:0012bfe0       ?_PenaltyItemDrop@CMapServer@@QAEXHHHH@Z 0052cfe0 f   MapServer.obj
 0001:0012c950       ?_Reallocate@?$vector@UMarketItem@?N@??RequestMarketItems@CMapServer@@QAEXHPAD@Z@V?$allocator@UMarketItem@?N@??RequestMarketItems@CMapServer@@QAEXHPAD@Z@@std@@@std@@IAEXI@Z 0052d950 f i MapServer.obj
 0001:0012cae0       ?_Reallocate@?$vector@Ust_objects@CMapServer@@V?$allocator@Ust_objects@CMapServer@@@std@@@std@@IAEXI@Z 0052dae0 f i MapServer.obj
 0001:0012cc70       ?_Reserve@?$vector@UMarketItem@?N@??RequestMarketItems@CMapServer@@QAEXHPAD@Z@V?$allocator@UMarketItem@?N@??RequestMarketItems@CMapServer@@QAEXHPAD@Z@@std@@@std@@IAEXI@Z 0052dc70 f i MapServer.obj
 0001:0012ccf0       ?_Reserve@?$vector@Ust_objects@CMapServer@@V?$allocator@Ust_objects@CMapServer@@@std@@@std@@IAEXI@Z 0052dcf0 f i MapServer.obj
 0001:0012cd70       ?_RevertRareItemValue@CMapServer@@QAEXPAVCItem@@@Z 0052dd70 f   MapServer.obj
 0001:0012cf20       ?_Right@?$_Tree_val@U?$_Tree_simple_types@U?$pair@$$CBFH@std@@@std@@@std@@SAAAPAU?$_Tree_node@U?$pair@$$CBFH@std@@PAX@2@PAU32@@Z 0052df20 f i MapServer.obj
 0001:0012cf40       ?_Rmost@?$_Tree@V?$_Tmap_traits@FHU?$less@F@std@@V?$allocator@U?$pair@$$CBFH@std@@@2@$0A@@std@@@std@@IBEAAPAU?$_Tree_node@U?$pair@$$CBFH@std@@PAX@2@XZ 0052df40 f i MapServer.obj
 0001:0012cf70       ?_Root@?$_Tree@V?$_Tmap_traits@FHU?$less@F@std@@V?$allocator@U?$pair@$$CBFH@std@@@2@$0A@@std@@@std@@IBEAAPAU?$_Tree_node@U?$pair@$$CBFH@std@@PAX@2@XZ 0052df70 f i MapServer.obj
 0001:0012cfa0       ?_Rrotate@?$_Tree@V?$_Tmap_traits@FHU?$less@F@std@@V?$allocator@U?$pair@$$CBFH@std@@@2@$0A@@std@@@std@@IAEXPAU?$_Tree_node@U?$pair@$$CBFH@std@@PAX@2@@Z 0052dfa0 f i MapServer.obj
 0001:0012d130       ?_Run@?$_LaunchPad@V?$_Bind@$0A@XV<lambda_b6405dba1db49920a5b2a7d45a72ec33>@@$$$V@std@@@std@@CAIPAV12@@Z 0052e130 f i MapServer.obj
 0001:0012d180       ?_SendMapStatus@CMapServer@@QAEXH@Z 0052e180 f   MapServer.obj
 0001:0012d630       ?_SendQuestContents@CMapServer@@QAEXH@Z 0052e630 f   MapServer.obj
 0001:0012de50       ?_SetItemPos@CMapServer@@QAEXHPAD@Z 0052ee50 f   MapServer.obj
 0001:0012dfe0       ?_TamingHandler@CMapServer@@QAEXHHDHH@Z 0052efe0 f   MapServer.obj
 0001:0012e370       ?_Tidy@?$_Tree@V?$_Tmap_traits@FHU?$less@F@std@@V?$allocator@U?$pair@$$CBFH@std@@@2@$0A@@std@@@std@@IAEXXZ 0052f370 f i MapServer.obj
 0001:0012e4b0       ?_Tidy@?$vector@UMarketItem@?N@??RequestMarketItems@CMapServer@@QAEXHPAD@Z@V?$allocator@UMarketItem@?N@??RequestMarketItems@CMapServer@@QAEXHPAD@Z@@std@@@std@@IAEXXZ 0052f4b0 f i MapServer.obj
 0001:0012e560       ?_Tidy@?$vector@URebirthLevelSettings@CMapServer@@V?$allocator@URebirthLevelSettings@CMapServer@@@std@@@std@@IAEXXZ 0052f560 f i MapServer.obj
 0001:0012e610       ?_Tidy@?$vector@Ust_objects@CMapServer@@V?$allocator@Ust_objects@CMapServer@@@std@@@std@@IAEXXZ 0052f610 f i MapServer.obj
 0001:0012e6c0       ?_Unused_capacity@?$vector@UMarketItem@?N@??RequestMarketItems@CMapServer@@QAEXHPAD@Z@V?$allocator@UMarketItem@?N@??RequestMarketItems@CMapServer@@QAEXHPAD@Z@@std@@@std@@QBEIXZ 0052f6c0 f i MapServer.obj
 0001:0012e6f0       ?_Unused_capacity@?$vector@Ust_objects@CMapServer@@V?$allocator@Ust_objects@CMapServer@@@std@@@std@@QBEIXZ 0052f6f0 f i MapServer.obj
 0001:0012e720       ?_Xlen@?$vector@UMarketItem@?N@??RequestMarketItems@CMapServer@@QAEXHPAD@Z@V?$allocator@UMarketItem@?N@??RequestMarketItems@CMapServer@@QAEXHPAD@Z@@std@@@std@@IBEXXZ 0052f720 f i MapServer.obj
 0001:0012e750       ?_Xlen@?$vector@Ust_objects@CMapServer@@V?$allocator@Ust_objects@CMapServer@@@std@@@std@@IBEXXZ 0052f750 f i MapServer.obj
 0001:0012e780       ?___RestorePlayerCharacteristics@CMapServer@@QAEXH@Z 0052f780 f   MapServer.obj
 0001:001300b0       ?___RestorePlayerRating@CMapServer@@QAEXH@Z 005310b0 f   MapServer.obj
 0001:00130220       ?__bReadMapInfo@CMapServer@@QAEHH@Z 00531220 f   MapServer.obj
 0001:00138e30       ?__bSetAgricultureItem@CMapServer@@QAEHHHHHHH@Z 00539e30 f   MapServer.obj
 0001:00139610       ?__bSetConstructionKit@CMapServer@@QAEHHHHHHH@Z 0053a610 f   MapServer.obj
 0001:00139bd0       ?__bSetOccupyFlag@CMapServer@@QAEHDHHHHHH@Z 0053abd0 f   MapServer.obj
 0001:0013a090       ?__iSearchForQuest@CMapServer@@QAEHHHPAH0000PAD00000@Z 0053b090 f   MapServer.obj
 0001:0013a5d0       ?_bAddClientItemList@CMapServer@@QAEHHPAVCItem@@PAH@Z 0053b5d0 f   MapServer.obj
 0001:0013a9b0       ?_bCheckGoodItem@CMapServer@@QAEHPAVCItem@@@Z 0053b9b0 f   MapServer.obj
 0001:0013ad60       ?_bCheckIsQuestCompleted@CMapServer@@QAEHHF@Z 0053bd60 f   MapServer.obj
 0001:0013b3c0       ?_bCheckSubLogSocketIndex@CMapServer@@QAEHXZ 0053c3c0 f   MapServer.obj
 0001:0013b520       ?_bDecodeBuildItemConfigFileContents@CMapServer@@QAEHPAD@Z 0053c520 f   MapServer.obj
 0001:0013d130       ?_bDecodeItemConfigFileContents@CMapServer@@QAEHPAD@Z 0053e130 f   MapServer.obj
 0001:0013edf0       ?_bDecodeMagicConfigFileContents@CMapServer@@QAEHPAD@Z 0053fdf0 f   MapServer.obj
 0001:00140460       ?_bDecodeNoticementFileContents@CMapServer@@QAEXPAD@Z 00541460 f   MapServer.obj
 0001:00140640       ?_bDecodeNpcConfigFileContents@CMapServer@@QAEHPAD@Z 00541640 f   MapServer.obj
 0001:001423a0       ?_bDecodePlayerDatafileContents2@CMapServer@@QAEHHPADK@Z 005433a0 f   MapServer.obj
 0001:00144a40       ?_bDecodePlayerDatafileContents@CMapServer@@QAEHHPADK@Z 00545a40 f   MapServer.obj
 0001:00152500       ?_bDecodePortionConfigFileContents@CMapServer@@QAEHPAD@Z 00553500 f   MapServer.obj
 0001:00153640       ?_bDecodeQuestConfigFileContents@CMapServer@@QAEHPAD@Z 00554640 f   MapServer.obj
 0001:001552c0       ?_bDecodeSkillConfigFileContents@CMapServer@@QAEHPAD@Z 005562c0 f   MapServer.obj
 0001:00155f60       ?_bDepleteDestTypeItemUseEffect@CMapServer@@QAEHHHHFF@Z 00556f60 f   MapServer.obj
 0001:00157440       ?_bGetIsPlayerHostile@CMapServer@@QAEHHH@Z 00558440 f   MapServer.obj
 0001:00157680       ?_bGetIsStringIsNumber@CMapServer@@QAEHPAD@Z 00558680 f   MapServer.obj
 0001:00157780       ?_bInitItemAttr@CMapServer@@QAEHPAVCItem@@H@Z 00558780 f   MapServer.obj
 0001:00157bf0       ?_bInitItemAttr@CMapServer@@QAEHPAVCItem@@PAD@Z 00558bf0 f   MapServer.obj
 0001:00158080       ?_bInitNpcAttr@CMapServer@@QAEHPAVCNpc@@PADFD@Z 00559080 f   MapServer.obj
 0001:00158ce0       ?_bItemLog@CMapServer@@QAEHHHHPAVCItem@@H@Z 00559ce0 f   MapServer.obj
 0001:001599c0       ?_bItemLog@CMapServer@@QAEHHHPADPAVCItem@@H@Z 0055a9c0 f   MapServer.obj
 0001:00159f20       ?_bNpcBehavior_Detector@CMapServer@@QAEHH@Z 0055af20 f   MapServer.obj
 0001:0015a2b0       ?_bNpcBehavior_ManaCollector@CMapServer@@QAEHH@Z 0055b2b0 f   MapServer.obj
 0001:0015a9d0       ?_bPKLog@CMapServer@@QAEHHHHPADH@Z 0055b9d0 f   MapServer.obj
 0001:0015b300       ?_bReadItemsEventCFG@CMapServer@@QAEHPAD@Z 0055c300 f   MapServer.obj
 0001:0015b810       ?_bReadMapInfoFiles@CMapServer@@QAEHH@Z 0055c810 f   MapServer.obj
 0001:0015b8d0       ?_bRegisterMap@CMapServer@@QAEHPAD@Z 0055c8d0 f   MapServer.obj
 0001:0015bcc0       ?_cGetSpecialAbility@CMapServer@@QAEDH@Z 0055ccc0 f   MapServer.obj
 0001:0015c0a0       ?_iCalcMaxLoad@CMapServer@@QAEHH@Z 0055d0a0 f   MapServer.obj
 0001:0015c1c0       ?_iCalcPlayerNum@CMapServer@@QAEHDFFD@Z 0055d1c0 f   MapServer.obj
 0001:0015c3e0       ?_iCalcSkillSSNpoint@CMapServer@@QAEHH@Z 0055d3e0 f   MapServer.obj
 0001:0015c4b0       ?_iComposeFlagStatusContents@CMapServer@@QAEHPAD@Z 0055d4b0 f   MapServer.obj
 0001:0015c780       ?_iComposePlayerDataFileContents@CMapServer@@QAEHHPAD@Z 0055d780 f   MapServer.obj
 0001:00160930       ?_iForcePlayerDisconect@CMapServer@@QAEHXZ 00561930 f   MapServer.obj
 0001:00160ae0       ?_iGetArrowItemIndex@CMapServer@@QAEHH@Z 00561ae0 f   MapServer.obj
 0001:00160c20       ?_iGetItemSpaceLeft@CMapServer@@QAEHH@Z 00561c20 f   MapServer.obj
 0001:00160d10       ?_iGetMagicNumber@CMapServer@@QAEHPADPAH1@Z 00561d10 f   MapServer.obj
 0001:00160e80       ?_iGetPlayerNumberOnSpot@CMapServer@@QAEHFFDD@Z 00561e80 f   MapServer.obj
 0001:00160fd0       ?_iGetWeaponSkillType@CMapServer@@QAEHH@Z 00561fd0 f   MapServer.obj
 0001:001611b0       ?_iTalkToNpcResult_Cityhall@CMapServer@@QAEHHPAH0000PAD00000@Z 005621b0 f   MapServer.obj
 0001:00161b20       ?_iTalkToNpcResult_Guard@CMapServer@@QAEHHPAH0000PAD00000@Z 00562b20 f   MapServer.obj
 0001:00161f90       ?abs@@YANN@Z               00562f90 f i MapServer.obj
 0001:00161fc0       ?allocate@?$_Wrap_alloc@V?$allocator@U?$_Tree_node@U?$pair@$$CBFH@std@@PAX@std@@@std@@@std@@QAEPAU?$_Tree_node@U?$pair@$$CBFH@std@@PAX@2@I@Z 00562fc0 f i MapServer.obj
 0001:00161ff0       ?allocate@?$_Wrap_alloc@V?$allocator@UMarketItem@?N@??RequestMarketItems@CMapServer@@QAEXHPAD@Z@@std@@@std@@QAEPAUMarketItem@?N@??RequestMarketItems@CMapServer@@QAEXHPAD@Z@I@Z 00562ff0 f i MapServer.obj
 0001:00162020       ?allocate@?$_Wrap_alloc@V?$allocator@Ust_objects@CMapServer@@@std@@@std@@QAEPAUst_objects@CMapServer@@I@Z 00563020 f i MapServer.obj
 0001:00162050       ?allocate@?$allocator@U?$_Tree_node@U?$pair@$$CBFH@std@@PAX@std@@@std@@QAEPAU?$_Tree_node@U?$pair@$$CBFH@std@@PAX@2@I@Z 00563050 f i MapServer.obj
 0001:00162080       ?allocate@?$allocator@UMarketItem@?N@??RequestMarketItems@CMapServer@@QAEXHPAD@Z@@std@@QAEPAUMarketItem@?N@??RequestMarketItems@CMapServer@@QAEXHPAD@Z@I@Z 00563080 f i MapServer.obj
 0001:001620b0       ?allocate@?$allocator@Ust_objects@CMapServer@@@std@@QAEPAUst_objects@CMapServer@@I@Z 005630b0 f i MapServer.obj
 0001:001620e0       ?bAccept@CMapServer@@QAEHPAVXSocket@@@Z 005630e0 f   MapServer.obj
 0001:00162da0       ?bAddClientShortCut@CMapServer@@QAEHH@Z 00563da0 f   MapServer.obj
 0001:00162ed0       ?bAddItem@CMapServer@@QAEHHPAVCItem@@D@Z 00563ed0 f   MapServer.obj
 0001:00163480       ?bAddMagicAngelInt@CMapServer@@QAEHH@Z 00564480 f   MapServer.obj
 0001:00163610       ?bAnalyzeCriminalAction@CMapServer@@QAEHHFFH@Z 00564610 f   MapServer.obj
 0001:00163ae0       ?bChangeState@CMapServer@@QAEHDPAD00000@Z 00564ae0 f   MapServer.obj
 0001:00163c50       ?bCheckAndConvertPlusWeaponItem@CMapServer@@QAEHHH@Z 00564c50 f   MapServer.obj
 0001:00163d50       ?bCheckAngelInt@CMapServer@@QAEHH@Z 00564d50 f   MapServer.obj
 0001:00163ed0       ?bCheckClientAttackFrequency@CMapServer@@QAEHHK@Z 00564ed0 f   MapServer.obj
 0001:00164060       ?bCheckClientMagicFrequency@CMapServer@@QAEHHK@Z 00565060 f   MapServer.obj
 0001:001641f0       ?bCheckClientStatLvl@CMapServer@@QAEHH@Z 005651f0 f   MapServer.obj
 0001:001644d0       ?bCheckEnergySphereDestination@CMapServer@@QAEHHFD@Z 005654d0 f   MapServer.obj
 0001:001646e0       ?bCheckIfIsFlagCarrier@CMapServer@@QAEHH@Z 005656e0 f   MapServer.obj
 0001:001647d0       ?bCheckIsItemUpgradeSuccess@CMapServer@@QAEHHHHH@Z 005657d0 f   MapServer.obj
 0001:00164b40       ?bCheckLevelUp@CMapServer@@QAEHH@Z 00565b40 f   MapServer.obj
 0001:00165640       ?bCheckLimitedUser@CMapServer@@QAEHH@Z 00566640 f   MapServer.obj
 0001:001657a0       ?bCheckMagicInt@CMapServer@@QAEHH@Z 005667a0 f   MapServer.obj
 0001:001658c0       ?bCheckResistingIceSuccess@CMapServer@@QAEHDFDH@Z 005668c0 f   MapServer.obj
 0001:00165b00       ?bCheckResistingMagicSuccess@CMapServer@@QAEHDFDHD@Z 00566b00 f   MapServer.obj
 0001:00165f40       ?bCheckResistingPoisonSuccess@CMapServer@@QAEHFD@Z 00566f40 f   MapServer.obj
 0001:001660d0       ?bCheckTotalSkillMasteryPoints@CMapServer@@QAEHHH@Z 005670d0 f   MapServer.obj
 0001:00166680       ?bCopyItemContents@CMapServer@@QAEHPAVCItem@@0@Z 00567680 f   MapServer.obj
 0001:00166980       ?bCreateNewNpc@CMapServer@@QAEHPAD00FDDPAH10PAUtagRECT@@HDHHHHH@Z 00567980 f   MapServer.obj
 0001:00168770       ?bCropsItemDrop@CMapServer@@QAEHHFH@Z 00569770 f   MapServer.obj
 0001:00168ea0       ?bDecodePlayerMarketItemContents@CMapServer@@QAEXHPADK@Z 00569ea0 f   MapServer.obj
 0001:0016a610       ?bDecodeTeleportList@CMapServer@@QAEHPAD@Z 0056b610 f   MapServer.obj
 0001:0016b910       ?bDeleteFish@CMapServer@@QAEHHH@Z 0056c910 f   MapServer.obj
 0001:0016bcb0       ?bDeleteMineral@CMapServer@@QAEHH@Z 0056ccb0 f   MapServer.obj
 0001:0016bf90       ?bEquipItemHandler@CMapServer@@QAEHHFH@Z 0056cf90 f   MapServer.obj
 0001:0016f230       ?bGetEmptyArea@CMapServer@@QAEHFDFFD@Z 00570230 f   MapServer.obj
 0001:0016f3d0       ?bGetEmptyPosition@CMapServer@@QAEHPAF0D@Z 005703d0 f   MapServer.obj
 0001:0016f5d0       ?bGetMsgQuene@CMapServer@@QAIHPAD0PAKPAH0@Z 005705d0 f   MapServer.obj
 0001:0016f780       ?bGetNpcMovementArea@CMapServer@@QAEHFFFDD@Z 00570780 f   MapServer.obj
 0001:0016f9b0       ?bInit@CMapServer@@QAEHXZ  005709b0 f   MapServer.obj
 0001:00172180       ?bOnClose@CMapServer@@QAEHXZ 00573180 f   MapServer.obj
 0001:001721f0       ?bProbabilityTable@CMapServer@@QAEHHHH@Z 005731f0 f   MapServer.obj
 0001:00172380       ?bPutMsgQuene@CMapServer@@QAIHDPADKHD@Z 00573380 f   MapServer.obj
 0001:00172570       ?bReadCVCStructureConfigFile@CMapServer@@QAEHPAD@Z 00573570 f   MapServer.obj
 0001:00172d10       ?bReadCrusadeStructureConfigFile@CMapServer@@QAEHPAD@Z 00573d10 f   MapServer.obj
 0001:001734b0       ?bReadDupeConfigFile@CMapServer@@QAEHPAD@Z 005744b0 f   MapServer.obj
 0001:00173c60       ?bReadEventResults@CMapServer@@QAEHPADF@Z 00574c60 f   MapServer.obj
 0001:00174080       ?bReadFinalFightConfigFile@CMapServer@@QAEHPAD@Z 00575080 f   MapServer.obj
 0001:00174300       ?bReadHellOfDeathConfigFile@CMapServer@@QAEHPAD@Z 00575300 f   MapServer.obj
 0001:00174e30       ?bReadMessageConfigFile@CMapServer@@QAEHPAD@Z 00575e30 f   MapServer.obj
 0001:001751c0       ?bReadProgramConfigFile@CMapServer@@QAEHPAD@Z 005761c0 f   MapServer.obj
 0001:001759e0       ?bReadRoundSummonConfigFile@CMapServer@@QAEHPADF@Z 005769e0 f   MapServer.obj
 0001:00176110       ?bReadRushStructureConfigFile@CMapServer@@QAEHPAD@Z 00577110 f   MapServer.obj
 0001:001768b0       ?bReadSummonStructureConfigFile@CMapServer@@QAEHPAD@Z 005778b0 f   MapServer.obj
 0001:00177050       ?bReadTDStructureConfigFile@CMapServer@@QAEHPAD@Z 00578050 f   MapServer.obj
 0001:00177b80       ?bRegisterDelayEvent@CMapServer@@QAEHHHKHDDHHHHH@Z 00578b80 f   MapServer.obj
 0001:00177dd0       ?bRemoveFromDelayEventList@CMapServer@@QAEHHDH@Z 00578dd0 f   MapServer.obj
 0001:00178010       ?bSendMsgToLS@CMapServer@@QAEHKHHPAD@Z 00579010 f   MapServer.obj
 0001:00179b40       ?bSetItemToBankItem@CMapServer@@QAEHHF@Z 0057ab40 f   MapServer.obj
 0001:00179e60       ?bSetItemToBankItem@CMapServer@@QAEHHPAVCItem@@@Z 0057ae60 f   MapServer.obj
 0001:0017a0e0       ?bSetItemToSellList@CMapServer@@QAEXHPADK@Z 0057b0e0 f   MapServer.obj
 0001:0017a4a0       ?bSetNpcAttackMode@CMapServer@@QAEXPADHDH@Z 0057b4a0 f   MapServer.obj
 0001:0017a680       ?bSetNpcFollowMode@CMapServer@@QAEHPAD0D@Z 0057b680 f   MapServer.obj
 0001:0017aa10       ?begin@?$_Tree@V?$_Tmap_traits@FHU?$less@F@std@@V?$allocator@U?$pair@$$CBFH@std@@@2@$0A@@std@@@std@@QAE?AV?$_Tree_iterator@V?$_Tree_val@U?$_Tree_simple_types@U?$pair@$$CBFH@std@@@std@@@std@@@2@XZ 0057ba10 f i MapServer.obj
 0001:0017aa50       ?begin@?$vector@UMarketItem@?N@??RequestMarketItems@CMapServer@@QAEXHPAD@Z@V?$allocator@UMarketItem@?N@??RequestMarketItems@CMapServer@@QAEXHPAD@Z@@std@@@std@@QAE?AV?$_Vector_iterator@V?$_Vector_val@U?$_Simple_types@UMarketItem@?N@??RequestMarketItems@CMapServer@@QAEXHPAD@Z@@std@@@std@@@2@XZ 0057ba50 f i MapServer.obj
 0001:0017aa90       ?cGetNextMoveDir@CMapServer@@QAEDFFFFDDPAHDF@Z 0057ba90 f   MapServer.obj
 0001:0017ae40       ?calcStatsPoints@CMapServer@@QAEXH@Z 0057be40 f   MapServer.obj
 0001:0017aff0       ?calculatePoints@CMapServer@@QAEXH@Z 0057bff0 f   MapServer.obj
 0001:0017b070       ?capacity@?$vector@UMarketItem@?N@??RequestMarketItems@CMapServer@@QAEXHPAD@Z@V?$allocator@UMarketItem@?N@??RequestMarketItems@CMapServer@@QAEXHPAD@Z@@std@@@std@@QBEIXZ 0057c070 f i MapServer.obj
 0001:0017b0a0       ?capacity@?$vector@Ust_objects@CMapServer@@V?$allocator@Ust_objects@CMapServer@@@std@@@std@@QBEIXZ 0057c0a0 f i MapServer.obj
 0001:0017b0d0       ?clear@?$_Tree@V?$_Tmap_traits@FHU?$less@F@std@@V?$allocator@U?$pair@$$CBFH@std@@@2@$0A@@std@@@std@@QAEXXZ 0057c0d0 f i MapServer.obj
 0001:0017b160       ?clear@?$vector@Ust_objects@CMapServer@@V?$allocator@Ust_objects@CMapServer@@@std@@@std@@QAEXXZ 0057c160 f i MapServer.obj
 0001:0017b1b0       ?close@?$basic_ofstream@DU?$char_traits@D@std@@@std@@QAEXXZ 0057c1b0 f i MapServer.obj
 0001:0017b200       ?construct@?$allocator@Ust_objects@CMapServer@@@std@@QAEXPAUst_objects@CMapServer@@ABU34@@Z 0057c200 f i MapServer.obj
 0001:0017b270       ?copyExp@CMapServer@@QAEXH@Z 0057c270 f   MapServer.obj
 0001:0017b2c0       ?copyLevel@CMapServer@@QAEXH@Z 0057c2c0 f   MapServer.obj
 0001:0017b310       ?copyRebirthLevel@CMapServer@@QAEXH@Z 0057c310 f   MapServer.obj
 0001:0017b360       ?copyStats@CMapServer@@QAEXH@Z 0057c360 f   MapServer.obj
 0001:0017b430       ?copyStatsPoints@CMapServer@@QAEXH@Z 0057c430 f   MapServer.obj
 0001:0017b480       ?count@?$duration@_JU?$ratio@$00$00@std@@@chrono@std@@QBE_JXZ 0057c480 f i MapServer.obj
 0001:0017b4b0       ?count@?$duration@_JU?$ratio@$00$0DLJKMKAA@@std@@@chrono@std@@QBE_JXZ 0057c4b0 f i MapServer.obj
 0001:0017b4e0       ?count@?$duration@_JU?$ratio@$00$0JIJGIA@@std@@@chrono@std@@QBE_JXZ 0057c4e0 f i MapServer.obj
 0001:0017b510       ?deallocate@?$_Wrap_alloc@V?$allocator@U?$_Tree_node@U?$pair@$$CBFH@std@@PAX@std@@@std@@@std@@QAEXPAU?$_Tree_node@U?$pair@$$CBFH@std@@PAX@2@I@Z 0057c510 f i MapServer.obj
 0001:0017b540       ?deallocate@?$_Wrap_alloc@V?$allocator@UMarketItem@?N@??RequestMarketItems@CMapServer@@QAEXHPAD@Z@@std@@@std@@QAEXPAUMarketItem@?N@??RequestMarketItems@CMapServer@@QAEXHPAD@Z@I@Z 0057c540 f i MapServer.obj
 0001:0017b570       ?deallocate@?$_Wrap_alloc@V?$allocator@URebirthLevelSettings@CMapServer@@@std@@@std@@QAEXPAURebirthLevelSettings@CMapServer@@I@Z 0057c570 f i MapServer.obj
 0001:0017b5a0       ?deallocate@?$_Wrap_alloc@V?$allocator@Ust_objects@CMapServer@@@std@@@std@@QAEXPAUst_objects@CMapServer@@I@Z 0057c5a0 f i MapServer.obj
 0001:0017b5d0       ?deallocate@?$allocator@U?$_Tree_node@U?$pair@$$CBFH@std@@PAX@std@@@std@@QAEXPAU?$_Tree_node@U?$pair@$$CBFH@std@@PAX@2@I@Z 0057c5d0 f i MapServer.obj
 0001:0017b600       ?deallocate@?$allocator@UMarketItem@?N@??RequestMarketItems@CMapServer@@QAEXHPAD@Z@@std@@QAEXPAUMarketItem@?N@??RequestMarketItems@CMapServer@@QAEXHPAD@Z@I@Z 0057c600 f i MapServer.obj
 0001:0017b630       ?deallocate@?$allocator@URebirthLevelSettings@CMapServer@@@std@@QAEXPAURebirthLevelSettings@CMapServer@@I@Z 0057c630 f i MapServer.obj
 0001:0017b660       ?deallocate@?$allocator@Ust_objects@CMapServer@@@std@@QAEXPAUst_objects@CMapServer@@I@Z 0057c660 f i MapServer.obj
 0001:0017b690       ?disableRebirth@CMapServer@@QAEXH@Z 0057c690 f   MapServer.obj
 0001:0017b710       ?disableRebirthStatus@CMapServer@@QAEXH@Z 0057c710 f   MapServer.obj
 0001:0017b790       ?dropitem@CMapServer@@QAEXHHHHHHH@Z 0057c790 f   MapServer.obj
 0001:0017ba30       ?dwGetItemCount@CMapServer@@QAEKHPAD@Z 0057ca30 f   MapServer.obj
 0001:0017bbb0       ?enableRebirth@CMapServer@@QAEXH@Z 0057cbb0 f   MapServer.obj
 0001:0017bc30       ?enableRebirthStatus@CMapServer@@QAEXH@Z 0057cc30 f   MapServer.obj
 0001:0017bcb0       ?end@?$_Tree@V?$_Tmap_traits@FHU?$less@F@std@@V?$allocator@U?$pair@$$CBFH@std@@@2@$0A@@std@@@std@@QAE?AV?$_Tree_iterator@V?$_Tree_val@U?$_Tree_simple_types@U?$pair@$$CBFH@std@@@std@@@std@@@2@XZ 0057ccb0 f i MapServer.obj
 0001:0017bcf0       ?end@?$vector@UMarketItem@?N@??RequestMarketItems@CMapServer@@QAEXHPAD@Z@V?$allocator@UMarketItem@?N@??RequestMarketItems@CMapServer@@QAEXHPAD@Z@@std@@@std@@QAE?AV?$_Vector_iterator@V?$_Vector_val@U?$_Simple_types@UMarketItem@?N@??RequestMarketItems@CMapServer@@QAEXHPAD@Z@@std@@@std@@@2@XZ 0057ccf0 f i MapServer.obj
 0001:0017bd30       ?erase@?$_Tree@V?$_Tmap_traits@FHU?$less@F@std@@V?$allocator@U?$pair@$$CBFH@std@@@2@$0A@@std@@@std@@QAE?AV?$_Tree_iterator@V?$_Tree_val@U?$_Tree_simple_types@U?$pair@$$CBFH@std@@@std@@@std@@@2@V?$_Tree_const_iterator@V?$_Tree_val@U?$_Tree_simple_types@U?$pair@$$CBFH@std@@@std@@@std@@@2@0@Z 0057cd30 f i MapServer.obj
 0001:0017bfd0       ?erase@?$_Tree@V?$_Tmap_traits@FHU?$less@F@std@@V?$allocator@U?$pair@$$CBFH@std@@@2@$0A@@std@@@std@@QAE?AV?$_Tree_iterator@V?$_Tree_val@U?$_Tree_simple_types@U?$pair@$$CBFH@std@@@std@@@std@@@2@V?$_Tree_const_iterator@V?$_Tree_val@U?$_Tree_simple_types@U?$pair@$$CBFH@std@@@std@@@std@@@2@@Z 0057cfd0 f i MapServer.obj
 0001:0017c9f0       ?find_last_of@?$basic_string@DU?$char_traits@D@std@@V?$allocator@D@2@@std@@QBEIPBDI@Z 0057d9f0 f i MapServer.obj
 0001:0017ca50       ?find_last_of@?$basic_string@DU?$char_traits@D@std@@V?$allocator@D@2@@std@@QBEIPBDII@Z 0057da50 f i MapServer.obj
 0001:0017cb40       ?getCriticals@CMapServer@@QAEXH@Z 0057db40 f   MapServer.obj
 0001:0017cd20       ?get_object@CMapServer@@QAEXHPAD@Z 0057dd20 f   MapServer.obj
 0001:0017cd90       ?getitemname@CMapServer@@QAE_NHHH@Z 0057dd90 f   MapServer.obj
 0001:0017d240       ?handleCheckTimer@CMapServer@@QAEXH@Z 0057e240 f   MapServer.obj
 0001:0017d2a0       ?handleEnchantingExtract@CMapServer@@QAEXHPAD@Z 0057e2a0 f   MapServer.obj
 0001:0017d730       ?handleEnchantingUpgrade@CMapServer@@QAEXHPAD@Z 0057e730 f   MapServer.obj
 0001:0017e3e0       ?handleMarketLog@CMapServer@@QAEXPAD00HK@Z 0057f3e0 f   MapServer.obj
 0001:0017e690       ?iAddDynamicObjectList@CMapServer@@QAEHFDFDFFKH@Z 0057f690 f   MapServer.obj
 0001:0017eb30       ?iCalcTotalWeight@CMapServer@@QAEHH@Z 0057fb30 f   MapServer.obj
 0001:0017ed80       ?iCalculateAttackEffect@CMapServer@@QAEHFDFDHHHHHH@Z 0057fd80 f   MapServer.obj
 0001:00187710       ?iCalculateUseSkillItemEffect@CMapServer@@QAEHHDDHDHH@Z 00588710 f   MapServer.obj
 0001:00187d70       ?iCheckFish@CMapServer@@QAEHHDFF@Z 00588d70 f   MapServer.obj
 0001:001881e0       ?iCheckLugar@CMapServer@@QAEHH@Z 005891e0 f   MapServer.obj
 0001:00188500       ?iClientMotion_Attack_Handler@CMapServer@@QAEHHFFFFFDGHH@Z 00589500 f   MapServer.obj
 0001:00189d50       ?iClientMotion_GetItem_Handler@CMapServer@@QAEHHFFD@Z 0058ad50 f   MapServer.obj
 0001:0018a9e0       ?iClientMotion_Magic_Handler@CMapServer@@QAEHHFFD@Z 0058b9e0 f   MapServer.obj
 0001:0018b0f0       ?iClientMotion_Move_Handler@CMapServer@@QAEHHFFDHH@Z 0058c0f0 f   MapServer.obj
 0001:0018ca30       ?iClientMotion_Stop_Handler@CMapServer@@QAEHHFFD@Z 0058da30 f   MapServer.obj
 0001:0018d190       ?iComposeInitMapData@CMapServer@@QAEHFFHPAD@Z 0058e190 f   MapServer.obj
 0001:0018e250       ?iComposeMoveMapData@CMapServer@@QAEHFFHDPAD@Z 0058f250 f   MapServer.obj
 0001:0018f4d0       ?iCreateFish@CMapServer@@QAEHDFFFPAVCItem@@HK@Z 005904d0 f   MapServer.obj
 0001:0018f830       ?iCreateMineral@CMapServer@@QAEHDHHD@Z 00590830 f   MapServer.obj
 0001:0018fda0       ?iDice@CMapServer@@QAEHHH@Z 00590da0 f   MapServer.obj
 0001:0018fe10       ?iGetComboAttackBonus@CMapServer@@QAEHHH@Z 00590e10 f   MapServer.obj
 0001:0018ffd0       ?iGetDangerValue@CMapServer@@QAEHHFF@Z 00590fd0 f   MapServer.obj
 0001:001902a0       ?iGetExpLevel@CMapServer@@QAEHH@Z 005912a0 f   MapServer.obj
 0001:00190320       ?iGetFollowerNumber@CMapServer@@QAEHFD@Z 00591320 f   MapServer.obj
 0001:00190460       ?iGetItemWeight@CMapServer@@QAEHPAVCItem@@H@Z 00591460 f   MapServer.obj
 0001:00190500       ?iGetLevelExp@CMapServer@@QAEHH@Z 00591500 f   MapServer.obj
 0001:001905f0       ?iGetMapIndex@CMapServer@@QAEHPAD@Z 005915f0 f   MapServer.obj
 0001:00190740       ?iGetMapLocationSide@CMapServer@@QAEHPAD@Z 00591740 f   MapServer.obj
 0001:00190bf0       ?iGetMaxHP@CMapServer@@QAEHH@Z 00591bf0 f   MapServer.obj
 0001:00190d80       ?iGetNpcRelationship@CMapServer@@QAEHHH@Z 00591d80 f   MapServer.obj
 0001:00190e90       ?iGetPlayerABSStatus@CMapServer@@QAEHHH@Z 00591e90 f   MapServer.obj
 0001:00191020       ?iGetPlayerRelationship@CMapServer@@QAEHHH@Z 00592020 f   MapServer.obj
 0001:001914c0       ?iGetWhetherMagicBonusEffect@CMapServer@@QAEHFD@Z 005924c0 f   MapServer.obj
 0001:00191600       ?iRequestPanningMapDataRequest@CMapServer@@QAEHHPAD@Z 00592600 f   MapServer.obj
 0001:00191c50       ?iSetSide@CMapServer@@QAEHH@Z 00592c50 f   MapServer.obj
 0001:00192880       ?iUpgradeHeroCapeRequirements@CMapServer@@QAEHHH@Z 00593880 f   MapServer.obj
 0001:00192d50       ?is_open@?$basic_filebuf@DU?$char_traits@D@std@@@std@@QBE_NXZ 00593d50 f i MapServer.obj
 0001:00192d90       ?is_open@?$basic_ofstream@DU?$char_traits@D@std@@@std@@QBE_NXZ 00593d90 f i MapServer.obj
 0001:00192dc0       ?lock@_Mutex_base@std@@QAEXXZ 00593dc0 f i MapServer.obj
 0001:00192df0       ?lower_bound@?$_Tree@V?$_Tmap_traits@FHU?$less@F@std@@V?$allocator@U?$pair@$$CBFH@std@@@2@$0A@@std@@@std@@QAE?AV?$_Tree_iterator@V?$_Tree_val@U?$_Tree_simple_types@U?$pair@$$CBFH@std@@@std@@@std@@@2@ABF@Z 00593df0 f i MapServer.obj
 0001:00192e50       ?max_size@?$_Tree@V?$_Tmap_traits@FHU?$less@F@std@@V?$allocator@U?$pair@$$CBFH@std@@@2@$0A@@std@@@std@@QBEIXZ 00593e50 f i MapServer.obj
 0001:00192e80       ?max_size@?$_Wrap_alloc@V?$allocator@U?$_Tree_node@U?$pair@$$CBFH@std@@PAX@std@@@std@@@std@@QBEIXZ 00593e80 f i MapServer.obj
 0001:00192eb0       ?max_size@?$_Wrap_alloc@V?$allocator@UMarketItem@?N@??RequestMarketItems@CMapServer@@QAEXHPAD@Z@@std@@@std@@QBEIXZ 00593eb0 f i MapServer.obj
 0001:00192ee0       ?max_size@?$_Wrap_alloc@V?$allocator@Ust_objects@CMapServer@@@std@@@std@@QBEIXZ 00593ee0 f i MapServer.obj
 0001:00192f10       ?max_size@?$allocator@U?$_Tree_node@U?$pair@$$CBFH@std@@PAX@std@@@std@@QBEIXZ 00593f10 f i MapServer.obj
 0001:00192f30       ?max_size@?$allocator@UMarketItem@?N@??RequestMarketItems@CMapServer@@QAEXHPAD@Z@@std@@QBEIXZ 00593f30 f i MapServer.obj
 0001:00192f50       ?max_size@?$allocator@Ust_objects@CMapServer@@@std@@QBEIXZ 00593f50 f i MapServer.obj
 0001:00192f70       ?max_size@?$allocator_traits@V?$allocator@U?$_Tree_node@U?$pair@$$CBFH@std@@PAX@std@@@std@@@std@@SAIABV?$allocator@U?$_Tree_node@U?$pair@$$CBFH@std@@PAX@std@@@2@@Z 00593f70 f i MapServer.obj
 0001:00192f90       ?max_size@?$allocator_traits@V?$allocator@UMarketItem@?N@??RequestMarketItems@CMapServer@@QAEXHPAD@Z@@std@@@std@@SAIABV?$allocator@UMarketItem@?N@??RequestMarketItems@CMapServer@@QAEXHPAD@Z@@2@@Z 00593f90 f i MapServer.obj
 0001:00192fb0       ?max_size@?$allocator_traits@V?$allocator@Ust_objects@CMapServer@@@std@@@std@@SAIABV?$allocator@Ust_objects@CMapServer@@@2@@Z 00593fb0 f i MapServer.obj
 0001:00192fd0       ?max_size@?$vector@UMarketItem@?N@??RequestMarketItems@CMapServer@@QAEXHPAD@Z@V?$allocator@UMarketItem@?N@??RequestMarketItems@CMapServer@@QAEXHPAD@Z@@std@@@std@@QBEIXZ 00593fd0 f i MapServer.obj
 0001:00193000       ?max_size@?$vector@Ust_objects@CMapServer@@V?$allocator@Ust_objects@CMapServer@@@std@@@std@@QBEIXZ 00594000 f i MapServer.obj
 0001:001930c0       ?notifyLevelChange@CMapServer@@QAEXH@Z 005940c0 f   MapServer.obj
 0001:00193170       ?notifyNpcHealth@CMapServer@@QAEXHH@Z 00594170 f   MapServer.obj
 0001:001932a0       ?notifyShinningStatus@CMapServer@@QAEXH@Z 005942a0 f   MapServer.obj
 0001:00193380       ?notify_hp_mp_sp@CMapServer@@QAEXH@Z 00594380 f   MapServer.obj
 0001:00193450       ?notify_rankexp@CMapServer@@QAEXH@Z 00594450 f   MapServer.obj
 0001:00193550       ?notify_rankup@CMapServer@@QAEXH@Z 00594550 f   MapServer.obj
 0001:00193650       ?now@system_clock@chrono@std@@SA?AV?$time_point@Usystem_clock@chrono@std@@V?$duration@_JU?$ratio@$00$0JIJGIA@@std@@@23@@23@XZ 00594650 f i MapServer.obj
 0001:00193690       ?open@?$basic_ofstream@DU?$char_traits@D@std@@@std@@QAEXPBDHH@Z 00594690 f i MapServer.obj
 0001:00193710       ?pointer_to@?$pointer_traits@PAU?$pair@$$CBFH@std@@@std@@SAPAU?$pair@$$CBFH@2@AAU32@@Z 00594710 f i MapServer.obj
 0001:00193740       ?pow@@YAMMH@Z              00594740 f i MapServer.obj
 0001:00193770       ?push_back@?$vector@UMarketItem@?N@??RequestMarketItems@CMapServer@@QAEXHPAD@Z@V?$allocator@UMarketItem@?N@??RequestMarketItems@CMapServer@@QAEXHPAD@Z@@std@@@std@@QAEX$$QAUMarketItem@?N@??RequestMarketItems@CMapServer@@QAEXHPAD@Z@@Z 00594770 f i MapServer.obj
 0001:001938e0       ?push_back@?$vector@Ust_objects@CMapServer@@V?$allocator@Ust_objects@CMapServer@@@std@@@std@@QAEXABUst_objects@CMapServer@@@Z 005948e0 f i MapServer.obj
 0001:00193a40       ?put@?$num_put@DV?$ostreambuf_iterator@DU?$char_traits@D@std@@@std@@@std@@QBE?AV?$ostreambuf_iterator@DU?$char_traits@D@std@@@2@V32@AAVios_base@2@DK@Z 00594a40 f i MapServer.obj
 0001:00193a90       ?r_flooritem@CMapServer@@QAEXHPAD@Z 00594a90 f   MapServer.obj
 0001:00193ed0       ?rank_operation@CMapServer@@QAEXH@Z 00594ed0 f   MapServer.obj
 0001:00193ff0       ?requestRebirth@CMapServer@@QAEXH@Z 00594ff0 f   MapServer.obj
 0001:00194700       ?response_ping@CMapServer@@QAEXH@Z 00595700 f   MapServer.obj
 0001:001947a0       ?restoreExp@CMapServer@@QAEXH@Z 005957a0 f   MapServer.obj
 0001:00194840       ?restoreLevel@CMapServer@@QAEXH@Z 00595840 f   MapServer.obj
 0001:001948e0       ?restoreRebirthLevel@CMapServer@@QAEXH@Z 005958e0 f   MapServer.obj
 0001:00194980       ?restoreStats@CMapServer@@QAEXH@Z 00595980 f   MapServer.obj
 0001:00194be0       ?restoreStatsPoints@CMapServer@@QAEXH@Z 00595be0 f   MapServer.obj
 0001:00194c80       ?revertitemWeight@CMapServer@@QAEHPAVCItem@@PAD@Z 00595c80 f   MapServer.obj
 0001:00194e10       ?sendMessageToClient@CMapServer@@QAEXHH@Z 00595e10 f   MapServer.obj
 0001:00194f90       ?send_objects_data@CMapServer@@QAEXXZ 00595f90 f   MapServer.obj
 0001:00195240       ?setrankstats@CMapServer@@QAEXHPAD@Z 00596240 f   MapServer.obj
 0001:00195490       ?shinning_clear@CMapServer@@QAEXH@Z 00596490 f   MapServer.obj
 0001:001955e0       ?shinning_update@CMapServer@@QAEXH@Z 005965e0 f   MapServer.obj
 0001:00195770       ?showShinningStatus@CMapServer@@QAEXXZ 00596770 f   MapServer.obj
 0001:00195900       ?size@?$_Tree@V?$_Tmap_traits@FHU?$less@F@std@@V?$allocator@U?$pair@$$CBFH@std@@@2@$0A@@std@@@std@@QBEIXZ 00596900 f i MapServer.obj
 0001:00195920       ?size@?$vector@UMarketItem@?N@??RequestMarketItems@CMapServer@@QAEXHPAD@Z@V?$allocator@UMarketItem@?N@??RequestMarketItems@CMapServer@@QAEXHPAD@Z@@std@@@std@@QBEIXZ 00596920 f i MapServer.obj
 0001:00195950       ?size@?$vector@Ust_objects@CMapServer@@V?$allocator@Ust_objects@CMapServer@@@std@@@std@@QBEIXZ 00596950 f i MapServer.obj
 0001:00195980       ?sleep_until@this_thread@std@@YAXPBUxtime@@@Z 00596980 f i MapServer.obj
 0001:00195a40       ?substr@?$basic_string@DU?$char_traits@D@std@@V?$allocator@D@2@@std@@QBE?AV12@II@Z 00596a40 f i MapServer.obj
 0001:00195aa0       ?switchRebirth@CMapServer@@QAEXH@Z 00596aa0 f   MapServer.obj
 0001:00195f20       ?time_since_epoch@?$time_point@Usystem_clock@chrono@std@@V?$duration@_JU?$ratio@$00$0JIJGIA@@std@@@23@@chrono@std@@QBE?AV?$duration@_JU?$ratio@$00$0JIJGIA@@std@@@23@XZ 00596f20 f i MapServer.obj
 0001:00195f60       ?to_string@std@@YA?AV?$basic_string@DU?$char_traits@D@std@@V?$allocator@D@2@@1@K@Z 00596f60 f i MapServer.obj
 0001:00195fe0       ?unequipItems@CMapServer@@QAEXH@Z 00596fe0 f   MapServer.obj
 0001:001960d0       ?unlock@_Mutex_base@std@@QAEXXZ 005970d0 f i MapServer.obj
 0001:00196100       ?updateEntitySync@CMapServer@@QAEXHFF@Z 00597100 f   MapServer.obj
 0001:00196780       ?zero@?$duration@_JU?$ratio@$00$00@std@@@chrono@std@@SA?AV123@XZ 00597780 f i MapServer.obj
 0001:001967c0       ?zero@?$duration_values@_J@chrono@std@@SA_JXZ 005977c0 f i MapServer.obj
 0001:00196840       ??0CGuildsMan@@QAE@XZ      00597840 f   GuildsMan.obj
 0001:00196880       ??1CGuildsMan@@UAE@XZ      00597880 f   GuildsMan.obj
 0001:001968b0       ??_GCGuildsMan@@UAEPAXI@Z  005978b0 f i GuildsMan.obj
 0001:001968b0       ??_ECGuildsMan@@UAEPAXI@Z  005978b0 f i GuildsMan.obj
 0001:00196900       ??0CItem@@QAE@XZ           00597900 f   Item.obj
 0001:00196aa0       ??1CItem@@UAE@XZ           00597aa0 f   Item.obj
 0001:00196ad0       ??_ECItem@@UAEPAXI@Z       00597ad0 f i Item.obj
 0001:00196ad0       ??_GCItem@@UAEPAXI@Z       00597ad0 f i Item.obj
 0001:00196b20       ?GetBagPositionX@CItem@@QAEFXZ 00597b20 f   Item.obj
 0001:00196b50       ?GetBagPositionY@CItem@@QAEFXZ 00597b50 f   Item.obj
 0001:00196b80       ?GetBankPosition@CItem@@QAEFXZ 00597b80 f   Item.obj
 0001:00196bb0       ?IsArmor@CItem@@QAE_NXZ    00597bb0 f   Item.obj
 0001:00197190       ?IsShield@CItem@@QAE_NXZ   00598190 f   Item.obj
 0001:00197260       ?IsWeapon@CItem@@QAE_NXZ   00598260 f   Item.obj
 0001:001976e0       ?PermitedInExp@CItem@@QAE_NXZ 005986e0 f   Item.obj
 0001:00197790       ?SetBagPosition@CItem@@QAEXFF@Z 00598790 f   Item.obj
 0001:001977d0       ?SetBankPosition@CItem@@QAEXF@Z 005987d0 f   Item.obj
 0001:00197800       ??0CMagic@@QAE@XZ          00598800 f   Magic.obj
 0001:00197850       ??1CMagic@@UAE@XZ          00598850 f   Magic.obj
 0001:00197880       ??_GCMagic@@UAEPAXI@Z      00598880 f i Magic.obj
 0001:00197880       ??_ECMagic@@UAEPAXI@Z      00598880 f i Magic.obj
 0001:001978d0       ??0CMap@@QAE@PAVCMapServer@@@Z 005988d0 f   Map.obj
 0001:001983f0       ??1CMap@@UAE@XZ            005993f0 f   Map.obj
 0001:00198610       ??_ECTile@@UAEPAXI@Z       00599610 f i Map.obj
 0001:001986a0       ??_ECMap@@UAEPAXI@Z        005996a0 f i Map.obj
 0001:001986a0       ??_GCMap@@UAEPAXI@Z        005996a0 f i Map.obj
 0001:001986f0       ?BorrarFlag@CMap@@QAEXXZ   005996f0 f   Map.obj
 0001:00198790       ?ClearBigOwner@CMap@@QAEXFDFFD@Z 00599790 f   Map.obj
 0001:00198950       ?ClearDeadOwner@CMap@@QAEXFF@Z 00599950 f   Map.obj
 0001:00198a00       ?ClearOwner@CMap@@QAEXHFDFF@Z 00599a00 f   Map.obj
 0001:00198b10       ?ClearSectorInfo@CMap@@QAEXXZ 00599b10 f   Map.obj
 0001:00198c30       ?ClearTempSectorInfo@CMap@@QAEXXZ 00599c30 f   Map.obj
 0001:00198d50       ?GetDeadOwner@CMap@@QAEXPAFPADFF@Z 00599d50 f   Map.obj
 0001:00198e20       ?GetOwner@CMap@@QAEXPAFPADFF@Z 00599e20 f   Map.obj
 0001:00198f00       ?RestoreStrikePoints@CMap@@QAEXXZ 00599f00 f   Map.obj
 0001:00198f60       ?SetBigOwner@CMap@@QAEXFDFFD@Z 00599f60 f   Map.obj
 0001:001990b0       ?SetDeadOwner@CMap@@QAEXFDFF@Z 0059a0b0 f   Map.obj
 0001:00199160       ?SetDynamicObject@CMap@@QAEXGFFFK@Z 0059a160 f   Map.obj
 0001:00199220       ?SetNamingValueEmpty@CMap@@QAEXH@Z 0059a220 f   Map.obj
 0001:00199250       ?SetOwner@CMap@@QAEXFDFF@Z 0059a250 f   Map.obj
 0001:00199300       ?SetTempMoveAllowedFlag@CMap@@QAEXHHH@Z 0059a300 f   Map.obj
 0001:001993a0       ?_SetupNoAttackArea@CMap@@QAEXXZ 0059a3a0 f   Map.obj
 0001:00199580       ?_bDecodeMapDataFileContents@CMap@@AAEHXZ 0059a580 f   Map.obj
 0001:00199ce0       ?bAddCropsTotalSum@CMap@@QAEHXZ 0059ace0 f   Map.obj
 0001:00199d30       ?bAddCrusadeStructureInfo@CMap@@QAEHDFFD@Z 0059ad30 f   Map.obj
 0001:00199e10       ?bApocalypseGate@CMap@@QAEHXZ 0059ae10 f   Map.obj
 0001:00199f40       ?bApocalypseGateTeleporter@CMap@@QAEHFFPADPAF1@Z 0059af40 f   Map.obj
 0001:0019a090       ?bCheckFlySpaceAvailable@CMap@@QAEHFFDF@Z 0059b090 f   Map.obj
 0001:0019a1b0       ?bGetBigMoveable@CMap@@QAEHFFFD@Z 0059b1b0 f   Map.obj
 0001:0019a320       ?bGetDynamicObject@CMap@@QAEHFFPAFPAKPAH@Z 0059b320 f   Map.obj
 0001:0019a3f0       ?bGetIsFarm@CMap@@QAEHFF@Z 0059b3f0 f   Map.obj
 0001:0019a4b0       ?bGetIsMoveAllowedTile@CMap@@QAEHFF@Z 0059b4b0 f   Map.obj
 0001:0019a580       ?bGetIsTeleport@CMap@@QAEHFF@Z 0059b580 f   Map.obj
 0001:0019a640       ?bGetIsWater@CMap@@QAEHFF@Z 0059b640 f   Map.obj
 0001:0019a700       ?bGetMoveable@CMap@@QAEHFFPAF@Z 0059b700 f   Map.obj
 0001:0019a800       ?bGetMoveableArea@CMap@@QAEHFFF@Z 0059b800 f   Map.obj
 0001:0019a8f0       ?bInit@CMap@@QAEHPAD@Z     0059b8f0 f   Map.obj
 0001:0019a9b0       ?bIsValidLoc@CMap@@QAEHFF@Z 0059b9b0 f   Map.obj
 0001:0019aa20       ?bRemoveCropsTotalSum@CMap@@QAEHXZ 0059ba20 f   Map.obj
 0001:0019aa90       ?bRemoveCrusadeStructureInfo@CMap@@QAEHFF@Z 0059ba90 f   Map.obj
 0001:0019ad10       ?bSearchTeleportDest@CMap@@QAEHHHPADPAH10@Z 0059bd10 f   Map.obj
 0001:0019ae30       ?bSetItem@CMap@@QAEHFFPAVCItem@@@Z 0059be30 f   Map.obj
 0001:0019afa0       ?iAnalyze@CMap@@QAEHDPAH0000@Z 0059bfa0 f   Map.obj
 0001:0019afd0       ?iCheckItem@CMap@@QAEHFF@Z 0059bfd0 f   Map.obj
 0001:0019b0c0       ?iGetAttribute@CMap@@QAEHHHH@Z 0059c0c0 f   Map.obj
 0001:0019b160       ?iGetEmptyNamingValue@CMap@@QAEHXZ 0059c160 f   Map.obj
 0001:0019b1d0       ?iRegisterOccupyFlag@CMap@@QAEHHHHHH@Z 0059c1d0 f   Map.obj
 0001:0019b340       ?pGetItem2@CMap@@QAEXFFPAF0PADK@Z 0059c340 f   Map.obj
 0001:0019b4f0       ?pGetItem@CMap@@QAEPAVCItem@@FFPAF0PAD@Z 0059c4f0 f   Map.obj
 0001:0019b6b0       ??0CMineral@@QAE@DDHHH@Z   0059c6b0 f   Mineral.obj
 0001:0019b720       ??1CMineral@@UAE@XZ        0059c720 f   Mineral.obj
 0001:0019b750       ??_GCMineral@@UAEPAXI@Z    0059c750 f i Mineral.obj
 0001:0019b750       ??_ECMineral@@UAEPAXI@Z    0059c750 f i Mineral.obj
 0001:0019b7a0       ??0CMisc@@QAE@XZ           0059c7a0 f   Misc.obj
 0001:0019b7d0       ??1CMisc@@UAE@XZ           0059c7d0 f   Misc.obj
 0001:0019b800       ??_ECMisc@@UAEPAXI@Z       0059c800 f i Misc.obj
 0001:0019b800       ??_GCMisc@@UAEPAXI@Z       0059c800 f i Misc.obj
 0001:0019b850       ?GetDirPoint@CMisc@@QAEXDPAH0@Z 0059c850 f   Misc.obj
 0001:0019b960       ?GetMyCursorPos@CMisc@@QAEXPAF0@Z 0059c960 f   Misc.obj
 0001:0019b9a0       ?GetPoint2@CMisc@@QAEXHHHHPAH00H@Z 0059c9a0 f   Misc.obj
 0001:0019bb80       ?GetPoint@CMisc@@QAEXHHHHPAH00@Z 0059cb80 f   Misc.obj
 0001:0019bd40       ?Temp@CMisc@@QAEXXZ        0059cd40 f   Misc.obj
 0001:0019c1b0       ?bCheckMSGString@CMisc@@QAEHPAD@Z 0059d1b0 f   Misc.obj
 0001:0019c810       ?bCheckValidName@CMisc@@QAEHPAD@Z 0059d810 f   Misc.obj
 0001:0019c9b0       ?bDecode@CMisc@@QAEHDPAD@Z 0059d9b0 f   Misc.obj
 0001:0019ca30       ?bEncode@CMisc@@QAEHDPAD@Z 0059da30 f   Misc.obj
 0001:0019cab0       ?cGetNextMoveDir@CMisc@@QAEDFFFF@Z 0059dab0 f   Misc.obj
 0001:0019cbd0       ??0CMsg@@QAE@XZ            0059dbd0 f   Msg.obj
 0001:0019cc10       ??1CMsg@@UAE@XZ            0059dc10 f   Msg.obj
 0001:0019cc60       ??_GCMsg@@UAEPAXI@Z        0059dc60 f i Msg.obj
 0001:0019cc60       ??_ECMsg@@UAEPAXI@Z        0059dc60 f i Msg.obj
 0001:0019ccb0       ?Get@CMsg@@QAEXPAD0PAKPAH0@Z 0059dcb0 f   Msg.obj
 0001:0019cd30       ?bPut@CMsg@@QAEHDPADKHD@Z  0059dd30 f   Msg.obj
 0001:0019cdf0       ??$_Destroy_range@U?$_Wrap_alloc@V?$allocator@VCNpcItem@@@std@@@std@@@std@@YAXPAVCNpcItem@@0AAU?$_Wrap_alloc@V?$allocator@VCNpcItem@@@std@@@0@@Z 0059ddf0 f i Npc.obj
 0001:0019ce40       ??$_Destroy_range@U?$_Wrap_alloc@V?$allocator@VCNpcItem@@@std@@@std@@@std@@YAXPAVCNpcItem@@0AAU?$_Wrap_alloc@V?$allocator@VCNpcItem@@@std@@@0@U_Nonscalar_ptr_iterator_tag@0@@Z 0059de40 f i Npc.obj
 0001:0019ce80       ??$_Ptr_cat@VCNpcItem@@V1@@std@@YA?AU_Nonscalar_ptr_iterator_tag@0@PAVCNpcItem@@0@Z 0059de80 f i Npc.obj
 0001:0019cea0       ??$destroy@VCNpcItem@@@?$_Wrap_alloc@V?$allocator@VCNpcItem@@@std@@@std@@QAEXPAVCNpcItem@@@Z 0059dea0 f i Npc.obj
 0001:0019ced0       ??$destroy@VCNpcItem@@@?$allocator@VCNpcItem@@@std@@QAEXPAVCNpcItem@@@Z 0059ded0 f i Npc.obj
 0001:0019cef0       ??$destroy@VCNpcItem@@@?$allocator_traits@V?$allocator@VCNpcItem@@@std@@@std@@SAXAAV?$allocator@VCNpcItem@@@1@PAVCNpcItem@@@Z 0059def0 f i Npc.obj
 0001:0019cf20       ??0?$_Vector_alloc@$0A@U?$_Vec_base_types@VCNpcItem@@V?$allocator@VCNpcItem@@@std@@@std@@@std@@QAE@ABV?$allocator@VCNpcItem@@@1@@Z 0059df20 f i Npc.obj
 0001:0019cfa0       ??0?$_Vector_val@U?$_Simple_types@VCNpcItem@@@std@@@std@@QAE@XZ 0059dfa0 f i Npc.obj
 0001:0019cff0       ??0?$_Wrap_alloc@V?$allocator@VCNpcItem@@@std@@@std@@QAE@XZ 0059dff0 f i Npc.obj
 0001:0019d020       ??0?$allocator@VCNpcItem@@@std@@QAE@XZ 0059e020 f i Npc.obj
 0001:0019d040       ??0?$vector@VCNpcItem@@V?$allocator@VCNpcItem@@@std@@@std@@QAE@XZ 0059e040 f i Npc.obj
 0001:0019d070       ??0CNpc@@QAE@PAD@Z         0059e070 f   Npc.obj
 0001:0019d2d0       ??0CNpcItem@@QAE@XZ        0059e2d0 f   Npc.obj
 0001:0019d340       ??1?$_Vector_alloc@$0A@U?$_Vec_base_types@VCNpcItem@@V?$allocator@VCNpcItem@@@std@@@std@@@std@@QAE@XZ 0059e340 f i Npc.obj
 0001:0019d370       ??1?$_Vector_val@U?$_Simple_types@VCNpcItem@@@std@@@std@@QAE@XZ 0059e370 f i Npc.obj
 0001:0019d3a0       ??1?$vector@VCNpcItem@@V?$allocator@VCNpcItem@@@std@@@std@@QAE@XZ 0059e3a0 f i Npc.obj
 0001:0019d3d0       ??1CNpc@@UAE@XZ            0059e3d0 f   Npc.obj
 0001:0019d410       ??_ECNpc@@UAEPAXI@Z        0059e410 f i Npc.obj
 0001:0019d410       ??_GCNpc@@UAEPAXI@Z        0059e410 f i Npc.obj
 0001:0019d460       ?_Alloc_proxy@?$_Vector_alloc@$0A@U?$_Vec_base_types@VCNpcItem@@V?$allocator@VCNpcItem@@@std@@@std@@@std@@QAEXXZ 0059e460 f i Npc.obj
 0001:0019d4c0       ?_Destroy@?$vector@VCNpcItem@@V?$allocator@VCNpcItem@@@std@@@std@@IAEXPAVCNpcItem@@0@Z 0059e4c0 f i Npc.obj
 0001:0019d510       ?_Free_proxy@?$_Vector_alloc@$0A@U?$_Vec_base_types@VCNpcItem@@V?$allocator@VCNpcItem@@@std@@@std@@@std@@QAEXXZ 0059e510 f i Npc.obj
 0001:0019d570       ?_Getal@?$_Vector_alloc@$0A@U?$_Vec_base_types@VCNpcItem@@V?$allocator@VCNpcItem@@@std@@@std@@@std@@QBE?AU?$_Wrap_alloc@V?$allocator@VCNpcItem@@@std@@@2@XZ 0059e570 f i Npc.obj
 0001:0019d5a0       ?_Tidy@?$vector@VCNpcItem@@V?$allocator@VCNpcItem@@@std@@@std@@IAEXXZ 0059e5a0 f i Npc.obj
 0001:0019d650       ?deallocate@?$_Wrap_alloc@V?$allocator@VCNpcItem@@@std@@@std@@QAEXPAVCNpcItem@@I@Z 0059e650 f i Npc.obj
 0001:0019d680       ?deallocate@?$allocator@VCNpcItem@@@std@@QAEXPAVCNpcItem@@I@Z 0059e680 f i Npc.obj
 0001:0019d6b0       ??0COccupyFlag@@QAE@HHDHH@Z 0059e6b0 f   OccupyFlag.obj
 0001:0019d720       ??1COccupyFlag@@UAE@XZ     0059e720 f   OccupyFlag.obj
 0001:0019d750       ??_ECOccupyFlag@@UAEPAXI@Z 0059e750 f i OccupyFlag.obj
 0001:0019d750       ??_GCOccupyFlag@@UAEPAXI@Z 0059e750 f i OccupyFlag.obj
 0001:0019d7a0       ??0PartyManager@@QAE@XZ    0059e7a0 f   PartyManager.obj
 0001:0019d7d0       ??1PartyManager@@UAE@XZ    0059e7d0 f   PartyManager.obj
 0001:0019d800       ??_EPartyManager@@UAEPAXI@Z 0059e800 f i PartyManager.obj
 0001:0019d800       ??_GPartyManager@@UAEPAXI@Z 0059e800 f i PartyManager.obj
 0001:0019d850       ?CheckMemberActivity@PartyManager@@QAEXXZ 0059e850 f   PartyManager.obj
 0001:0019d8a0       ?ClearParty@PartyManager@@QAEXXZ 0059e8a0 f   PartyManager.obj
 0001:0019d900       ?GameServerDown@PartyManager@@QAEXH@Z 0059e900 f   PartyManager.obj
 0001:0019da00       ?SetServerChangeStatus@PartyManager@@QAEXPADH@Z 0059ea00 f   PartyManager.obj
 0001:0019daa0       ?bAddMember@PartyManager@@QAEHH@Z 0059eaa0 f   PartyManager.obj
 0001:0019db60       ?bCheckPartyMember@PartyManager@@QAEHHHPAD@Z 0059eb60 f   PartyManager.obj
 0001:0019dc10       ?bGetPartyInfo@PartyManager@@QAEHHPADH@Z 0059ec10 f   PartyManager.obj
 0001:0019dc50       ?bRemoveMember@PartyManager@@QAEHH@Z 0059ec50 f   PartyManager.obj
 0001:0019dd70       ?iCreateNewParty@PartyManager@@QAEXH@Z 0059ed70 f   PartyManager.obj
 0001:0019ddc0       ?iGetMemberID@PartyManager@@QAEHH@Z 0059edc0 f   PartyManager.obj
 0001:0019de40       ??0CPortion@@QAE@XZ        0059ee40 f   Potion.obj
 0001:0019ded0       ??1CPortion@@UAE@XZ        0059eed0 f   Potion.obj
 0001:0019df00       ??_ECPortion@@UAEPAXI@Z    0059ef00 f i Potion.obj
 0001:0019df00       ??_GCPortion@@UAEPAXI@Z    0059ef00 f i Potion.obj
 0001:0019df50       ??0CQuest@@QAE@XZ          0059ef50 f   Quest.obj
 0001:0019df80       ??1CQuest@@UAE@XZ          0059ef80 f   Quest.obj
 0001:0019dfb0       ??_ECQuest@@UAEPAXI@Z      0059efb0 f i Quest.obj
 0001:0019dfb0       ??_GCQuest@@UAEPAXI@Z      0059efb0 f i Quest.obj
 0001:0019e140       ??$_Allocate@Ust_quest@@@std@@YAPAUst_quest@@IPAU1@@Z 0059f140 f i QuestList.obj
 0001:0019e1a0       ??$_Debug_pointer@Ust_quest@@@std@@YAXPAUst_quest@@PB_WI@Z 0059f1a0 f i QuestList.obj
 0001:0019e1e0       ??$_Debug_range2@PAUst_quest@@@std@@YAXPAUst_quest@@0PB_WIUrandom_access_iterator_tag@0@@Z 0059f1e0 f i QuestList.obj
 0001:0019e260       ??$_Debug_range@PAUst_quest@@@std@@YAXPAUst_quest@@0PB_WI@Z 0059f260 f i QuestList.obj
 0001:0019e2b0       ??$_Destroy_range@U?$_Wrap_alloc@V?$allocator@Ust_quest@@@std@@@std@@@std@@YAXPAUst_quest@@0AAU?$_Wrap_alloc@V?$allocator@Ust_quest@@@std@@@0@@Z 0059f2b0 f i QuestList.obj
 0001:0019e300       ??$_Destroy_range@U?$_Wrap_alloc@V?$allocator@Ust_quest@@@std@@@std@@@std@@YAXPAUst_quest@@0AAU?$_Wrap_alloc@V?$allocator@Ust_quest@@@std@@@0@U_Nonscalar_ptr_iterator_tag@0@@Z 0059f300 f i QuestList.obj
 0001:0019e340       ??$_Iter_cat@PAUst_quest@@@std@@YA?AUrandom_access_iterator_tag@0@ABQAUst_quest@@@Z 0059f340 f i QuestList.obj
 0001:0019e370       ??$_Ptr_cat@Ust_quest@@U1@@std@@YA?AU_Nonscalar_ptr_iterator_tag@0@PAUst_quest@@0@Z 0059f370 f i QuestList.obj
 0001:0019e390       ??$_Rechecked@PAUst_quest@@PAU1@@std@@YAAAPAUst_quest@@AAPAU1@PAU1@@Z 0059f390 f i QuestList.obj
 0001:0019e3c0       ??$_Umove@PAUst_quest@@@?$vector@Ust_quest@@V?$allocator@Ust_quest@@@std@@@std@@IAEPAUst_quest@@PAU2@00@Z 0059f3c0 f i QuestList.obj
 0001:0019e410       ??$_Unchecked@PAUst_quest@@@std@@YAPAUst_quest@@PAU1@@Z 0059f410 f i QuestList.obj
 0001:0019e430       ??$_Uninit_move@PAUst_quest@@PAU1@U?$_Wrap_alloc@V?$allocator@Ust_quest@@@std@@@std@@@std@@YAPAUst_quest@@PAU1@00AAU?$_Wrap_alloc@V?$allocator@Ust_quest@@@std@@@0@@Z 0059f430 f i QuestList.obj
 0001:0019e490       ??$_Uninit_move@PAUst_quest@@PAU1@V?$allocator@Ust_quest@@@std@@U1@@std@@YAPAUst_quest@@PAU1@00AAU?$_Wrap_alloc@V?$allocator@Ust_quest@@@std@@@0@0U_Nonscalar_ptr_iterator_tag@0@@Z 0059f490 f i QuestList.obj
 0001:0019e5c0       ??$_Uninitialized_move@PAUst_quest@@PAU1@U?$_Wrap_alloc@V?$allocator@Ust_quest@@@std@@@std@@@std@@YAPAUst_quest@@PAU1@00AAU?$_Wrap_alloc@V?$allocator@Ust_quest@@@std@@@0@@Z 0059f5c0 f i QuestList.obj
 0001:0019e630       ??$_Val_type@PAUst_quest@@@std@@YAPAUst_quest@@PAU1@@Z 0059f630 f i QuestList.obj
 0001:0019e650       ??$addressof@$$CBUst_quest@@@std@@YAPBUst_quest@@ABU1@@Z 0059f650 f i QuestList.obj
 0001:0019e670       ??$construct@Ust_quest@@AAU1@@?$_Wrap_alloc@V?$allocator@Ust_quest@@@std@@@std@@QAEXPAUst_quest@@AAU2@@Z 0059f670 f i QuestList.obj
 0001:0019e6b0       ??$construct@Ust_quest@@AAU1@@?$allocator@Ust_quest@@@std@@QAEXPAUst_quest@@AAU2@@Z 0059f6b0 f i QuestList.obj
 0001:0019e770       ??$construct@Ust_quest@@AAU1@@?$allocator_traits@V?$allocator@Ust_quest@@@std@@@std@@SAXAAV?$allocator@Ust_quest@@@1@PAUst_quest@@AAU3@@Z 0059f770 f i QuestList.obj
 0001:0019e7b0       ??$construct@Ust_quest@@ABU1@@?$_Wrap_alloc@V?$allocator@Ust_quest@@@std@@@std@@QAEXPAUst_quest@@ABU2@@Z 0059f7b0 f i QuestList.obj
 0001:0019e7f0       ??$construct@Ust_quest@@ABU1@@?$allocator_traits@V?$allocator@Ust_quest@@@std@@@std@@SAXAAV?$allocator@Ust_quest@@@1@PAUst_quest@@ABU3@@Z 0059f7f0 f i QuestList.obj
 0001:0019e830       ??$construct@Ust_quest@@U1@@?$_Wrap_alloc@V?$allocator@Ust_quest@@@std@@@std@@QAEXPAUst_quest@@$$QAU2@@Z 0059f830 f i QuestList.obj
 0001:0019e870       ??$construct@Ust_quest@@U1@@?$allocator@Ust_quest@@@std@@QAEXPAUst_quest@@$$QAU2@@Z 0059f870 f i QuestList.obj
 0001:0019e930       ??$construct@Ust_quest@@U1@@?$allocator_traits@V?$allocator@Ust_quest@@@std@@@std@@SAXAAV?$allocator@Ust_quest@@@1@PAUst_quest@@$$QAU3@@Z 0059f930 f i QuestList.obj
 0001:0019e970       ??$destroy@Ust_quest@@@?$_Wrap_alloc@V?$allocator@Ust_quest@@@std@@@std@@QAEXPAUst_quest@@@Z 0059f970 f i QuestList.obj
 0001:0019e9a0       ??$destroy@Ust_quest@@@?$allocator@Ust_quest@@@std@@QAEXPAUst_quest@@@Z 0059f9a0 f i QuestList.obj
 0001:0019e9c0       ??$destroy@Ust_quest@@@?$allocator_traits@V?$allocator@Ust_quest@@@std@@@std@@SAXAAV?$allocator@Ust_quest@@@1@PAUst_quest@@@Z 0059f9c0 f i QuestList.obj
 0001:0019e9f0       ??$forward@AAUst_quest@@@std@@YAAAUst_quest@@AAU1@@Z 0059f9f0 f i QuestList.obj
 0001:0019ea10       ??$forward@ABUst_quest@@@std@@YAABUst_quest@@ABU1@@Z 0059fa10 f i QuestList.obj
 0001:0019ea30       ??$forward@Ust_quest@@@std@@YA$$QAUst_quest@@AAU1@@Z 0059fa30 f i QuestList.obj
 0001:0019ea50       ??0?$_Vector_alloc@$0A@U?$_Vec_base_types@Ust_quest@@V?$allocator@Ust_quest@@@std@@@std@@@std@@QAE@ABV?$allocator@Ust_quest@@@1@@Z 0059fa50 f i QuestList.obj
 0001:0019ead0       ??0?$_Vector_val@U?$_Simple_types@Ust_quest@@@std@@@std@@QAE@XZ 0059fad0 f i QuestList.obj
 0001:0019eb20       ??0?$_Wrap_alloc@V?$allocator@Ust_quest@@@std@@@std@@QAE@XZ 0059fb20 f i QuestList.obj
 0001:0019eb50       ??0?$allocator@Ust_quest@@@std@@QAE@XZ 0059fb50 f i QuestList.obj
 0001:0019eb70       ??0?$vector@Ust_quest@@V?$allocator@Ust_quest@@@std@@@std@@QAE@XZ 0059fb70 f i QuestList.obj
 0001:0019eba0       ??0QuestList@@QAE@XZ       0059fba0 f   QuestList.obj
 0001:0019ebd0       ??0st_quest@@QAE@XZ        0059fbd0 f i QuestList.obj
 0001:0019ebf0       ??1?$_Vector_alloc@$0A@U?$_Vec_base_types@Ust_quest@@V?$allocator@Ust_quest@@@std@@@std@@@std@@QAE@XZ 0059fbf0 f i QuestList.obj
 0001:0019ec20       ??1?$_Vector_val@U?$_Simple_types@Ust_quest@@@std@@@std@@QAE@XZ 0059fc20 f i QuestList.obj
 0001:0019ec50       ??1?$vector@Ust_quest@@V?$allocator@Ust_quest@@@std@@@std@@QAE@XZ 0059fc50 f i QuestList.obj
 0001:0019ec80       ??1QuestList@@QAE@XZ       0059fc80 f   QuestList.obj
 0001:0019eca0       ??A?$vector@Ust_quest@@V?$allocator@Ust_quest@@@std@@@std@@QAEAAUst_quest@@I@Z 0059fca0 f i QuestList.obj
 0001:0019eda0       ?_Alloc_proxy@?$_Vector_alloc@$0A@U?$_Vec_base_types@Ust_quest@@V?$allocator@Ust_quest@@@std@@@std@@@std@@QAEXXZ 0059fda0 f i QuestList.obj
 0001:0019ee00       ?_Destroy@?$vector@Ust_quest@@V?$allocator@Ust_quest@@@std@@@std@@IAEXPAUst_quest@@0@Z 0059fe00 f i QuestList.obj
 0001:0019ee50       ?_Free_proxy@?$_Vector_alloc@$0A@U?$_Vec_base_types@Ust_quest@@V?$allocator@Ust_quest@@@std@@@std@@@std@@QAEXXZ 0059fe50 f i QuestList.obj
 0001:0019eeb0       ?_Getal@?$_Vector_alloc@$0A@U?$_Vec_base_types@Ust_quest@@V?$allocator@Ust_quest@@@std@@@std@@@std@@QBE?AU?$_Wrap_alloc@V?$allocator@Ust_quest@@@std@@@2@XZ 0059feb0 f i QuestList.obj
 0001:0019eee0       ?_Grow_to@?$vector@Ust_quest@@V?$allocator@Ust_quest@@@std@@@std@@IBEII@Z 0059fee0 f i QuestList.obj
 0001:0019ef60       ?_Inside@?$vector@Ust_quest@@V?$allocator@Ust_quest@@@std@@@std@@IBE_NPBUst_quest@@@Z 0059ff60 f i QuestList.obj
 0001:0019efb0       ?_Orphan_range@?$vector@Ust_quest@@V?$allocator@Ust_quest@@@std@@@std@@IBEXPAUst_quest@@0@Z 0059ffb0 f i QuestList.obj
 0001:0019f0a0       ?_Reallocate@?$vector@Ust_quest@@V?$allocator@Ust_quest@@@std@@@std@@IAEXI@Z 005a00a0 f i QuestList.obj
 0001:0019f230       ?_Reserve@?$vector@Ust_quest@@V?$allocator@Ust_quest@@@std@@@std@@IAEXI@Z 005a0230 f i QuestList.obj
 0001:0019f2b0       ?_Tidy@?$vector@Ust_quest@@V?$allocator@Ust_quest@@@std@@@std@@IAEXXZ 005a02b0 f i QuestList.obj
 0001:0019f360       ?_Unused_capacity@?$vector@Ust_quest@@V?$allocator@Ust_quest@@@std@@@std@@QBEIXZ 005a0360 f i QuestList.obj
 0001:0019f390       ?_Xlen@?$vector@Ust_quest@@V?$allocator@Ust_quest@@@std@@@std@@IBEXXZ 005a0390 f i QuestList.obj
 0001:0019f3c0       ?allocate@?$_Wrap_alloc@V?$allocator@Ust_quest@@@std@@@std@@QAEPAUst_quest@@I@Z 005a03c0 f i QuestList.obj
 0001:0019f3f0       ?allocate@?$allocator@Ust_quest@@@std@@QAEPAUst_quest@@I@Z 005a03f0 f i QuestList.obj
 0001:0019f420       ?capacity@?$vector@Ust_quest@@V?$allocator@Ust_quest@@@std@@@std@@QBEIXZ 005a0420 f i QuestList.obj
 0001:0019f450       ?clear@?$vector@Ust_quest@@V?$allocator@Ust_quest@@@std@@@std@@QAEXXZ 005a0450 f i QuestList.obj
 0001:0019f4a0       ?construct@?$allocator@Ust_quest@@@std@@QAEXPAUst_quest@@ABU3@@Z 005a04a0 f i QuestList.obj
 0001:0019f500       ?deallocate@?$_Wrap_alloc@V?$allocator@Ust_quest@@@std@@@std@@QAEXPAUst_quest@@I@Z 005a0500 f i QuestList.obj
 0001:0019f530       ?deallocate@?$allocator@Ust_quest@@@std@@QAEXPAUst_quest@@I@Z 005a0530 f i QuestList.obj
 0001:0019f780       ?get_quest_data@QuestList@@QAEXHPAD@Z 005a0780 f   QuestList.obj
 0001:0019f7f0       ?get_quests@QuestList@@QAEXXZ 005a07f0 f   QuestList.obj
 0001:0019ff60       ?max_size@?$_Wrap_alloc@V?$allocator@Ust_quest@@@std@@@std@@QBEIXZ 005a0f60 f i QuestList.obj
 0001:0019ff90       ?max_size@?$allocator@Ust_quest@@@std@@QBEIXZ 005a0f90 f i QuestList.obj
 0001:0019ffb0       ?max_size@?$allocator_traits@V?$allocator@Ust_quest@@@std@@@std@@SAIABV?$allocator@Ust_quest@@@2@@Z 005a0fb0 f i QuestList.obj
 0001:0019ffd0       ?max_size@?$vector@Ust_quest@@V?$allocator@Ust_quest@@@std@@@std@@QBEIXZ 005a0fd0 f i QuestList.obj
 0001:001a0000       ?push_back@?$vector@Ust_quest@@V?$allocator@Ust_quest@@@std@@@std@@QAEXABUst_quest@@@Z 005a1000 f i QuestList.obj
 0001:001a0160       ?send_quest_data@QuestList@@QAEXH@Z 005a1160 f   QuestList.obj
 0001:001a0b30       ?size@?$vector@Ust_quest@@V?$allocator@Ust_quest@@@std@@@std@@QBEIXZ 005a1b30 f i QuestList.obj
 0001:001a0b60       ?start_quest@QuestList@@QAEXHF@Z 005a1b60 f   QuestList.obj
 0001:001a1090       ??$assign@V?$_String_iterator@V?$_String_val@U?$_Simple_types@D@std@@@std@@@std@@@?$basic_string@DU?$char_traits@D@std@@V?$allocator@D@2@@std@@QAEAAV01@V?$_String_iterator@V?$_String_val@U?$_Simple_types@D@std@@@std@@@1@0@Z 005a2090 f i Rank.obj
 0001:001a1260       ??0?$_Iterator012@Urandom_access_iterator_tag@std@@DHPBDABDU_Iterator_base12@2@@std@@QAE@ABU01@@Z 005a2260 f i Rank.obj
 0001:001a1290       ??0?$_String_const_iterator@V?$_String_val@U?$_Simple_types@D@std@@@std@@@std@@QAE@ABV01@@Z 005a2290 f i Rank.obj
 0001:001a12d0       ??0?$_String_iterator@V?$_String_val@U?$_Simple_types@D@std@@@std@@@std@@QAE@ABV01@@Z 005a22d0 f i Rank.obj
 0001:001a1300       ??0CRank@@QAE@XZ           005a2300 f   Rank.obj
 0001:001a1330       ??1CRank@@QAE@XZ           005a2330 f   Rank.obj
 0001:001a1350       ??4?$basic_string@DU?$char_traits@D@std@@V?$allocator@D@2@@std@@QAEAAV01@$$QAV01@@Z 005a2350 f i Rank.obj
 0001:001a1430       ??8?$_String_const_iterator@V?$_String_val@U?$_Simple_types@D@std@@@std@@@std@@QBE_NABV01@@Z 005a2430 f i Rank.obj
 0001:001a1490       ??G?$_String_const_iterator@V?$_String_val@U?$_Simple_types@D@std@@@std@@@std@@QBEHABV01@@Z 005a2490 f i Rank.obj
 0001:001a14d0       ??G?$_String_iterator@V?$_String_val@U?$_Simple_types@D@std@@@std@@@std@@QBEHABV?$_String_const_iterator@V?$_String_val@U?$_Simple_types@D@std@@@std@@@1@@Z 005a24d0 f i Rank.obj
 0001:001a1570       ?_Compat@?$_String_const_iterator@V?$_String_val@U?$_Simple_types@D@std@@@std@@@std@@QBEXABV12@@Z 005a2570 f i Rank.obj
 0001:001a1640       ?_Pdif@?$basic_string@DU?$char_traits@D@std@@V?$allocator@D@2@@std@@SAIV?$_String_const_iterator@V?$_String_val@U?$_Simple_types@D@std@@@std@@@2@0@Z 005a2640 f i Rank.obj
 0001:001a16f0       ?clear@CRank@@QAEXXZ       005a26f0 f   Rank.obj
 0001:001a1740       ?end@?$basic_string@DU?$char_traits@D@std@@V?$allocator@D@2@@std@@QAE?AV?$_String_iterator@V?$_String_val@U?$_Simple_types@D@std@@@std@@@2@XZ 005a2740 f i Rank.obj
 0001:001a1780       ?get_line@CRank@@QAE?AV?$basic_string@DU?$char_traits@D@std@@V?$allocator@D@2@@std@@V23@0@Z 005a2780 f   Rank.obj
 0001:001a19b0       ?getvalue@CRank@@QAE?AV?$basic_string@DU?$char_traits@D@std@@V?$allocator@D@2@@std@@V23@@Z 005a29b0 f   Rank.obj
 0001:001a1ba0       ?init@CRank@@QAEXXZ        005a2ba0 f   Rank.obj
 0001:001a1be0       ?is_wanted_line@CRank@@QAE_NABV?$basic_string@DU?$char_traits@D@std@@V?$allocator@D@2@@std@@V23@@Z 005a2be0 f   Rank.obj
 0001:001a1c40       ?read@CRank@@QAEXXZ        005a2c40 f   Rank.obj
 0001:001a1e30       ?replace@?$basic_string@DU?$char_traits@D@std@@V?$allocator@D@2@@std@@QAEAAV12@IIABV12@II@Z 005a2e30 f i Rank.obj
 0001:001a21a0       ?replace@?$basic_string@DU?$char_traits@D@std@@V?$allocator@D@2@@std@@QAEAAV12@IIPBDI@Z 005a31a0 f i Rank.obj
 0001:001a2390       ?replace@?$basic_string@DU?$char_traits@D@std@@V?$allocator@D@2@@std@@QAEAAV12@V?$_String_const_iterator@V?$_String_val@U?$_Simple_types@D@std@@@std@@@2@0V?$_String_iterator@V?$_String_val@U?$_Simple_types@D@std@@@std@@@2@1@Z 005a3390 f i Rank.obj
 0001:001a26d0       ?update@CRank@@QAEXXZ      005a36d0 f   Rank.obj
 0001:001a2710       ??0CSkill@@QAE@XZ          005a3710 f   Skill.obj
 0001:001a2750       ??1CSkill@@UAE@XZ          005a3750 f   Skill.obj
 0001:001a2780       ??_GCSkill@@UAEPAXI@Z      005a3780 f i Skill.obj
 0001:001a2780       ??_ECSkill@@UAEPAXI@Z      005a3780 f i Skill.obj
 0001:001a27d0       ??0CStrategicPoint@@QAE@XZ 005a37d0 f   StrategicPoint.obj
 0001:001a2820       ??1CStrategicPoint@@UAE@XZ 005a3820 f   StrategicPoint.obj
 0001:001a2850       ??_GCStrategicPoint@@UAEPAXI@Z 005a3850 f i StrategicPoint.obj
 0001:001a2850       ??_ECStrategicPoint@@UAEPAXI@Z 005a3850 f i StrategicPoint.obj
 0001:001a28a0       ??0CStrTok@@QAE@PAD0@Z     005a38a0 f   StrTok.obj
 0001:001a2910       ??1CStrTok@@UAE@XZ         005a3910 f   StrTok.obj
 0001:001a2940       ??_GCStrTok@@UAEPAXI@Z     005a3940 f i StrTok.obj
 0001:001a2940       ??_ECStrTok@@UAEPAXI@Z     005a3940 f i StrTok.obj
 0001:001a2990       ?_bIsSeperator@CStrTok@@AAEHDD@Z 005a3990 f   StrTok.obj
 0001:001a2a30       ?pGet@CStrTok@@QAEPADXZ    005a3a30 f   StrTok.obj
 0001:001a2c50       ??0CTeleport@@QAE@XZ       005a3c50 f   Teleport.obj
 0001:001a2d40       ??1CTeleport@@UAE@XZ       005a3d40 f   Teleport.obj
 0001:001a2d70       ??_GCTeleport@@UAEPAXI@Z   005a3d70 f i Teleport.obj
 0001:001a2d70       ??_ECTeleport@@UAEPAXI@Z   005a3d70 f i Teleport.obj
 0001:001a2dc0       ??0CTeleportLoc@@QAE@XZ    005a3dc0 f   TeleportLoc.obj
 0001:001a2e90       ??1CTeleportLoc@@UAE@XZ    005a3e90 f   TeleportLoc.obj
 0001:001a2ec0       ??_GCTeleportLoc@@UAEPAXI@Z 005a3ec0 f i TeleportLoc.obj
 0001:001a2ec0       ??_ECTeleportLoc@@UAEPAXI@Z 005a3ec0 f i TeleportLoc.obj
 0001:001a2f10       ??0CTile@@QAE@XZ           005a3f10 f   Tile.obj
 0001:001a3030       ??1CTile@@UAE@XZ           005a4030 f   Tile.obj
 0001:001a30d0       ??_GCTile@@UAEPAXI@Z       005a40d0 f i Tile.obj
 0001:001a3120       ??0XSocket@@QAE@PAUHWND__@@H@Z 005a4120 f   XSocket.obj
 0001:001a3250       ??1XSocket@@UAE@XZ         005a4250 f   XSocket.obj
 0001:001a3320       ??_EXSocket@@UAEPAXI@Z     005a4320 f i XSocket.obj
 0001:001a3320       ??_GXSocket@@UAEPAXI@Z     005a4320 f i XSocket.obj
 0001:001a3370       ?_CloseConn@XSocket@@AAEXXZ 005a4370 f   XSocket.obj
 0001:001a3430       ?_InitWinsock@@YAHXZ       005a4430 f   XSocket.obj
 0001:001a34a0       ?_TermWinsock@@YAXXZ       005a44a0 f   XSocket.obj
 0001:001a34c0       ?_iOnRead@XSocket@@AAEHXZ  005a44c0 f   XSocket.obj
 0001:001a3770       ?_iRegisterUnsentData@XSocket@@AAEHPADH@Z 005a4770 f   XSocket.obj
 0001:001a3890       ?_iSend@XSocket@@AAEHPADHH@Z 005a4890 f   XSocket.obj
 0001:001a3a20       ?_iSendUnsentData@XSocket@@AAEHXZ 005a4a20 f   XSocket.obj
 0001:001a3c50       ?_iSend_ForInternalUse@XSocket@@AAEHPADH@Z 005a4c50 f   XSocket.obj
 0001:001a3d00       ?bAccept@XSocket@@QAEHPAV1@I@Z 005a4d00 f   XSocket.obj
 0001:001a3e60       ?bConnect@XSocket@@QAEHPADHI@Z 005a4e60 f   XSocket.obj
 0001:001a4060       ?bInitBufferSize@XSocket@@QAEHK@Z 005a5060 f   XSocket.obj
 0001:001a4140       ?bListen@XSocket@@QAEHPADHI@Z 005a5140 f   XSocket.obj
 0001:001a42b0       ?iGetPeerAddress@XSocket@@QAEHPAD@Z 005a52b0 f   XSocket.obj
 0001:001a4330       ?iGetSocket@XSocket@@QAEIXZ 005a5330 f   XSocket.obj
 0001:001a4350       ?iOnSocketEvent@XSocket@@QAEHIJ@Z 005a5350 f   XSocket.obj
 0001:001a4530       ?iSendMsg@XSocket@@QAEHPADKD@Z 005a5530 f   XSocket.obj
 0001:001a4800       ?pGetRcvDataPointer@XSocket@@QAEPADPAKPAD@Z 005a5800 f   XSocket.obj
 0001:001a4a50       ?pGetRcvDataPointerClient@XSocket@@QAEPADPAKPAD@Z 005a5a50 f   XSocket.obj
 0001:001a4ca0       ??0XSocketUDP@@QAE@XZ      005a5ca0 f   XSocketUDP.obj
 0001:001a4d20       ??1XSocketUDP@@QAE@XZ      005a5d20 f   XSocketUDP.obj
 0001:001a4d60       ??6?$basic_ostream@DU?$char_traits@D@std@@@std@@QAEAAV01@G@Z 005a5d60 f i XSocketUDP.obj
 0001:001a4f80       ?Init@XSocketUDP@@QAE_NABV?$basic_string@DU?$char_traits@D@std@@V?$allocator@D@2@@std@@G@Z 005a5f80 f   XSocketUDP.obj
 0001:001a5140       ?Receive@XSocketUDP@@QAE_NAAUMessage@@@Z 005a6140 f   XSocketUDP.obj
 0001:001a51d0       ?Send@XSocketUDP@@QAE_NABUMessage@@ABV?$basic_string@DU?$char_traits@D@std@@V?$allocator@D@2@@std@@G@Z 005a61d0 f   XSocketUDP.obj
 0001:001a5410       ??$_Allocate@Ust_trade_coin@@@std@@YAPAUst_trade_coin@@IPAU1@@Z 005a6410 f i Trades.obj
 0001:001a5470       ??$_Allocate@Ust_trade_contrib@@@std@@YAPAUst_trade_contrib@@IPAU1@@Z 005a6470 f i Trades.obj
 0001:001a54d0       ??$_Allocate@Ust_trade_ek@@@std@@YAPAUst_trade_ek@@IPAU1@@Z 005a64d0 f i Trades.obj
 0001:001a5530       ??$_Allocate@Ust_trade_majs@@@std@@YAPAUst_trade_majs@@IPAU1@@Z 005a6530 f i Trades.obj
 0001:001a5590       ??$_Debug_pointer@Ust_trade_coin@@@std@@YAXPAUst_trade_coin@@PB_WI@Z 005a6590 f i Trades.obj
 0001:001a55d0       ??$_Debug_pointer@Ust_trade_contrib@@@std@@YAXPAUst_trade_contrib@@PB_WI@Z 005a65d0 f i Trades.obj
 0001:001a5610       ??$_Debug_pointer@Ust_trade_ek@@@std@@YAXPAUst_trade_ek@@PB_WI@Z 005a6610 f i Trades.obj
 0001:001a5650       ??$_Debug_pointer@Ust_trade_majs@@@std@@YAXPAUst_trade_majs@@PB_WI@Z 005a6650 f i Trades.obj
 0001:001a5690       ??$_Debug_range2@PAUst_trade_coin@@@std@@YAXPAUst_trade_coin@@0PB_WIUrandom_access_iterator_tag@0@@Z 005a6690 f i Trades.obj
 0001:001a5710       ??$_Debug_range2@PAUst_trade_contrib@@@std@@YAXPAUst_trade_contrib@@0PB_WIUrandom_access_iterator_tag@0@@Z 005a6710 f i Trades.obj
 0001:001a5790       ??$_Debug_range2@PAUst_trade_ek@@@std@@YAXPAUst_trade_ek@@0PB_WIUrandom_access_iterator_tag@0@@Z 005a6790 f i Trades.obj
 0001:001a5810       ??$_Debug_range2@PAUst_trade_majs@@@std@@YAXPAUst_trade_majs@@0PB_WIUrandom_access_iterator_tag@0@@Z 005a6810 f i Trades.obj
 0001:001a5890       ??$_Debug_range@PAUst_trade_coin@@@std@@YAXPAUst_trade_coin@@0PB_WI@Z 005a6890 f i Trades.obj
 0001:001a58e0       ??$_Debug_range@PAUst_trade_contrib@@@std@@YAXPAUst_trade_contrib@@0PB_WI@Z 005a68e0 f i Trades.obj
 0001:001a5930       ??$_Debug_range@PAUst_trade_ek@@@std@@YAXPAUst_trade_ek@@0PB_WI@Z 005a6930 f i Trades.obj
 0001:001a5980       ??$_Debug_range@PAUst_trade_majs@@@std@@YAXPAUst_trade_majs@@0PB_WI@Z 005a6980 f i Trades.obj
 0001:001a59d0       ??$_Destroy_range@U?$_Wrap_alloc@V?$allocator@Ust_trade_coin@@@std@@@std@@@std@@YAXPAUst_trade_coin@@0AAU?$_Wrap_alloc@V?$allocator@Ust_trade_coin@@@std@@@0@@Z 005a69d0 f i Trades.obj
 0001:001a5a20       ??$_Destroy_range@U?$_Wrap_alloc@V?$allocator@Ust_trade_coin@@@std@@@std@@@std@@YAXPAUst_trade_coin@@0AAU?$_Wrap_alloc@V?$allocator@Ust_trade_coin@@@std@@@0@U_Nonscalar_ptr_iterator_tag@0@@Z 005a6a20 f i Trades.obj
 0001:001a5a60       ??$_Destroy_range@U?$_Wrap_alloc@V?$allocator@Ust_trade_contrib@@@std@@@std@@@std@@YAXPAUst_trade_contrib@@0AAU?$_Wrap_alloc@V?$allocator@Ust_trade_contrib@@@std@@@0@@Z 005a6a60 f i Trades.obj
 0001:001a5ab0       ??$_Destroy_range@U?$_Wrap_alloc@V?$allocator@Ust_trade_contrib@@@std@@@std@@@std@@YAXPAUst_trade_contrib@@0AAU?$_Wrap_alloc@V?$allocator@Ust_trade_contrib@@@std@@@0@U_Nonscalar_ptr_iterator_tag@0@@Z 005a6ab0 f i Trades.obj
 0001:001a5af0       ??$_Destroy_range@U?$_Wrap_alloc@V?$allocator@Ust_trade_ek@@@std@@@std@@@std@@YAXPAUst_trade_ek@@0AAU?$_Wrap_alloc@V?$allocator@Ust_trade_ek@@@std@@@0@@Z 005a6af0 f i Trades.obj
 0001:001a5b40       ??$_Destroy_range@U?$_Wrap_alloc@V?$allocator@Ust_trade_ek@@@std@@@std@@@std@@YAXPAUst_trade_ek@@0AAU?$_Wrap_alloc@V?$allocator@Ust_trade_ek@@@std@@@0@U_Nonscalar_ptr_iterator_tag@0@@Z 005a6b40 f i Trades.obj
 0001:001a5b80       ??$_Destroy_range@U?$_Wrap_alloc@V?$allocator@Ust_trade_majs@@@std@@@std@@@std@@YAXPAUst_trade_majs@@0AAU?$_Wrap_alloc@V?$allocator@Ust_trade_majs@@@std@@@0@@Z 005a6b80 f i Trades.obj
 0001:001a5bd0       ??$_Destroy_range@U?$_Wrap_alloc@V?$allocator@Ust_trade_majs@@@std@@@std@@@std@@YAXPAUst_trade_majs@@0AAU?$_Wrap_alloc@V?$allocator@Ust_trade_majs@@@std@@@0@U_Nonscalar_ptr_iterator_tag@0@@Z 005a6bd0 f i Trades.obj
 0001:001a5c10       ??$_Iter_cat@PAUst_trade_coin@@@std@@YA?AUrandom_access_iterator_tag@0@ABQAUst_trade_coin@@@Z 005a6c10 f i Trades.obj
 0001:001a5c40       ??$_Iter_cat@PAUst_trade_contrib@@@std@@YA?AUrandom_access_iterator_tag@0@ABQAUst_trade_contrib@@@Z 005a6c40 f i Trades.obj
 0001:001a5c70       ??$_Iter_cat@PAUst_trade_ek@@@std@@YA?AUrandom_access_iterator_tag@0@ABQAUst_trade_ek@@@Z 005a6c70 f i Trades.obj
 0001:001a5ca0       ??$_Iter_cat@PAUst_trade_majs@@@std@@YA?AUrandom_access_iterator_tag@0@ABQAUst_trade_majs@@@Z 005a6ca0 f i Trades.obj
 0001:001a5cd0       ??$_Ptr_cat@Ust_trade_coin@@U1@@std@@YA?AU_Nonscalar_ptr_iterator_tag@0@PAUst_trade_coin@@0@Z 005a6cd0 f i Trades.obj
 0001:001a5cf0       ??$_Ptr_cat@Ust_trade_contrib@@U1@@std@@YA?AU_Nonscalar_ptr_iterator_tag@0@PAUst_trade_contrib@@0@Z 005a6cf0 f i Trades.obj
 0001:001a5d10       ??$_Ptr_cat@Ust_trade_ek@@U1@@std@@YA?AU_Nonscalar_ptr_iterator_tag@0@PAUst_trade_ek@@0@Z 005a6d10 f i Trades.obj
 0001:001a5d30       ??$_Ptr_cat@Ust_trade_majs@@U1@@std@@YA?AU_Nonscalar_ptr_iterator_tag@0@PAUst_trade_majs@@0@Z 005a6d30 f i Trades.obj
 0001:001a5d50       ??$_Rechecked@PAUst_trade_coin@@PAU1@@std@@YAAAPAUst_trade_coin@@AAPAU1@PAU1@@Z 005a6d50 f i Trades.obj
 0001:001a5d80       ??$_Rechecked@PAUst_trade_contrib@@PAU1@@std@@YAAAPAUst_trade_contrib@@AAPAU1@PAU1@@Z 005a6d80 f i Trades.obj
 0001:001a5db0       ??$_Rechecked@PAUst_trade_ek@@PAU1@@std@@YAAAPAUst_trade_ek@@AAPAU1@PAU1@@Z 005a6db0 f i Trades.obj
 0001:001a5de0       ??$_Rechecked@PAUst_trade_majs@@PAU1@@std@@YAAAPAUst_trade_majs@@AAPAU1@PAU1@@Z 005a6de0 f i Trades.obj
 0001:001a5e10       ??$_Umove@PAUst_trade_coin@@@?$vector@Ust_trade_coin@@V?$allocator@Ust_trade_coin@@@std@@@std@@IAEPAUst_trade_coin@@PAU2@00@Z 005a6e10 f i Trades.obj
 0001:001a5e60       ??$_Umove@PAUst_trade_contrib@@@?$vector@Ust_trade_contrib@@V?$allocator@Ust_trade_contrib@@@std@@@std@@IAEPAUst_trade_contrib@@PAU2@00@Z 005a6e60 f i Trades.obj
 0001:001a5eb0       ??$_Umove@PAUst_trade_ek@@@?$vector@Ust_trade_ek@@V?$allocator@Ust_trade_ek@@@std@@@std@@IAEPAUst_trade_ek@@PAU2@00@Z 005a6eb0 f i Trades.obj
 0001:001a5f00       ??$_Umove@PAUst_trade_majs@@@?$vector@Ust_trade_majs@@V?$allocator@Ust_trade_majs@@@std@@@std@@IAEPAUst_trade_majs@@PAU2@00@Z 005a6f00 f i Trades.obj
 0001:001a5f50       ??$_Unchecked@PAUst_trade_coin@@@std@@YAPAUst_trade_coin@@PAU1@@Z 005a6f50 f i Trades.obj
 0001:001a5f70       ??$_Unchecked@PAUst_trade_contrib@@@std@@YAPAUst_trade_contrib@@PAU1@@Z 005a6f70 f i Trades.obj
 0001:001a5f90       ??$_Unchecked@PAUst_trade_ek@@@std@@YAPAUst_trade_ek@@PAU1@@Z 005a6f90 f i Trades.obj
 0001:001a5fb0       ??$_Unchecked@PAUst_trade_majs@@@std@@YAPAUst_trade_majs@@PAU1@@Z 005a6fb0 f i Trades.obj
 0001:001a5fd0       ??$_Uninit_move@PAUst_trade_coin@@PAU1@U?$_Wrap_alloc@V?$allocator@Ust_trade_coin@@@std@@@std@@@std@@YAPAUst_trade_coin@@PAU1@00AAU?$_Wrap_alloc@V?$allocator@Ust_trade_coin@@@std@@@0@@Z 005a6fd0 f i Trades.obj
 0001:001a6030       ??$_Uninit_move@PAUst_trade_coin@@PAU1@V?$allocator@Ust_trade_coin@@@std@@U1@@std@@YAPAUst_trade_coin@@PAU1@00AAU?$_Wrap_alloc@V?$allocator@Ust_trade_coin@@@std@@@0@0U_Nonscalar_ptr_iterator_tag@0@@Z 005a7030 f i Trades.obj
 0001:001a6160       ??$_Uninit_move@PAUst_trade_contrib@@PAU1@U?$_Wrap_alloc@V?$allocator@Ust_trade_contrib@@@std@@@std@@@std@@YAPAUst_trade_contrib@@PAU1@00AAU?$_Wrap_alloc@V?$allocator@Ust_trade_contrib@@@std@@@0@@Z 005a7160 f i Trades.obj
 0001:001a61c0       ??$_Uninit_move@PAUst_trade_contrib@@PAU1@V?$allocator@Ust_trade_contrib@@@std@@U1@@std@@YAPAUst_trade_contrib@@PAU1@00AAU?$_Wrap_alloc@V?$allocator@Ust_trade_contrib@@@std@@@0@0U_Nonscalar_ptr_iterator_tag@0@@Z 005a71c0 f i Trades.obj
 0001:001a62f0       ??$_Uninit_move@PAUst_trade_ek@@PAU1@U?$_Wrap_alloc@V?$allocator@Ust_trade_ek@@@std@@@std@@@std@@YAPAUst_trade_ek@@PAU1@00AAU?$_Wrap_alloc@V?$allocator@Ust_trade_ek@@@std@@@0@@Z 005a72f0 f i Trades.obj
 0001:001a6350       ??$_Uninit_move@PAUst_trade_ek@@PAU1@V?$allocator@Ust_trade_ek@@@std@@U1@@std@@YAPAUst_trade_ek@@PAU1@00AAU?$_Wrap_alloc@V?$allocator@Ust_trade_ek@@@std@@@0@0U_Nonscalar_ptr_iterator_tag@0@@Z 005a7350 f i Trades.obj
 0001:001a6480       ??$_Uninit_move@PAUst_trade_majs@@PAU1@U?$_Wrap_alloc@V?$allocator@Ust_trade_majs@@@std@@@std@@@std@@YAPAUst_trade_majs@@PAU1@00AAU?$_Wrap_alloc@V?$allocator@Ust_trade_majs@@@std@@@0@@Z 005a7480 f i Trades.obj
 0001:001a64e0       ??$_Uninit_move@PAUst_trade_majs@@PAU1@V?$allocator@Ust_trade_majs@@@std@@U1@@std@@YAPAUst_trade_majs@@PAU1@00AAU?$_Wrap_alloc@V?$allocator@Ust_trade_majs@@@std@@@0@0U_Nonscalar_ptr_iterator_tag@0@@Z 005a74e0 f i Trades.obj
 0001:001a6610       ??$_Uninitialized_move@PAUst_trade_coin@@PAU1@U?$_Wrap_alloc@V?$allocator@Ust_trade_coin@@@std@@@std@@@std@@YAPAUst_trade_coin@@PAU1@00AAU?$_Wrap_alloc@V?$allocator@Ust_trade_coin@@@std@@@0@@Z 005a7610 f i Trades.obj
 0001:001a6680       ??$_Uninitialized_move@PAUst_trade_contrib@@PAU1@U?$_Wrap_alloc@V?$allocator@Ust_trade_contrib@@@std@@@std@@@std@@YAPAUst_trade_contrib@@PAU1@00AAU?$_Wrap_alloc@V?$allocator@Ust_trade_contrib@@@std@@@0@@Z 005a7680 f i Trades.obj
 0001:001a66f0       ??$_Uninitialized_move@PAUst_trade_ek@@PAU1@U?$_Wrap_alloc@V?$allocator@Ust_trade_ek@@@std@@@std@@@std@@YAPAUst_trade_ek@@PAU1@00AAU?$_Wrap_alloc@V?$allocator@Ust_trade_ek@@@std@@@0@@Z 005a76f0 f i Trades.obj
 0001:001a6760       ??$_Uninitialized_move@PAUst_trade_majs@@PAU1@U?$_Wrap_alloc@V?$allocator@Ust_trade_majs@@@std@@@std@@@std@@YAPAUst_trade_majs@@PAU1@00AAU?$_Wrap_alloc@V?$allocator@Ust_trade_majs@@@std@@@0@@Z 005a7760 f i Trades.obj
 0001:001a67d0       ??$_Val_type@PAUst_trade_coin@@@std@@YAPAUst_trade_coin@@PAU1@@Z 005a77d0 f i Trades.obj
 0001:001a67f0       ??$_Val_type@PAUst_trade_contrib@@@std@@YAPAUst_trade_contrib@@PAU1@@Z 005a77f0 f i Trades.obj
 0001:001a6810       ??$_Val_type@PAUst_trade_ek@@@std@@YAPAUst_trade_ek@@PAU1@@Z 005a7810 f i Trades.obj
 0001:001a6830       ??$_Val_type@PAUst_trade_majs@@@std@@YAPAUst_trade_majs@@PAU1@@Z 005a7830 f i Trades.obj
 0001:001a6850       ??$addressof@$$CBUst_trade_coin@@@std@@YAPBUst_trade_coin@@ABU1@@Z 005a7850 f i Trades.obj
 0001:001a6870       ??$addressof@$$CBUst_trade_contrib@@@std@@YAPBUst_trade_contrib@@ABU1@@Z 005a7870 f i Trades.obj
 0001:001a6890       ??$addressof@$$CBUst_trade_ek@@@std@@YAPBUst_trade_ek@@ABU1@@Z 005a7890 f i Trades.obj
 0001:001a68b0       ??$addressof@$$CBUst_trade_majs@@@std@@YAPBUst_trade_majs@@ABU1@@Z 005a78b0 f i Trades.obj
 0001:001a68d0       ??$construct@Ust_trade_coin@@AAU1@@?$_Wrap_alloc@V?$allocator@Ust_trade_coin@@@std@@@std@@QAEXPAUst_trade_coin@@AAU2@@Z 005a78d0 f i Trades.obj
 0001:001a6910       ??$construct@Ust_trade_coin@@AAU1@@?$allocator@Ust_trade_coin@@@std@@QAEXPAUst_trade_coin@@AAU2@@Z 005a7910 f i Trades.obj
 0001:001a69d0       ??$construct@Ust_trade_coin@@AAU1@@?$allocator_traits@V?$allocator@Ust_trade_coin@@@std@@@std@@SAXAAV?$allocator@Ust_trade_coin@@@1@PAUst_trade_coin@@AAU3@@Z 005a79d0 f i Trades.obj
 0001:001a6a10       ??$construct@Ust_trade_coin@@ABU1@@?$_Wrap_alloc@V?$allocator@Ust_trade_coin@@@std@@@std@@QAEXPAUst_trade_coin@@ABU2@@Z 005a7a10 f i Trades.obj
 0001:001a6a50       ??$construct@Ust_trade_coin@@ABU1@@?$allocator_traits@V?$allocator@Ust_trade_coin@@@std@@@std@@SAXAAV?$allocator@Ust_trade_coin@@@1@PAUst_trade_coin@@ABU3@@Z 005a7a50 f i Trades.obj
 0001:001a6a90       ??$construct@Ust_trade_coin@@U1@@?$_Wrap_alloc@V?$allocator@Ust_trade_coin@@@std@@@std@@QAEXPAUst_trade_coin@@$$QAU2@@Z 005a7a90 f i Trades.obj
 0001:001a6ad0       ??$construct@Ust_trade_coin@@U1@@?$allocator@Ust_trade_coin@@@std@@QAEXPAUst_trade_coin@@$$QAU2@@Z 005a7ad0 f i Trades.obj
 0001:001a6b90       ??$construct@Ust_trade_coin@@U1@@?$allocator_traits@V?$allocator@Ust_trade_coin@@@std@@@std@@SAXAAV?$allocator@Ust_trade_coin@@@1@PAUst_trade_coin@@$$QAU3@@Z 005a7b90 f i Trades.obj
 0001:001a6bd0       ??$construct@Ust_trade_contrib@@AAU1@@?$_Wrap_alloc@V?$allocator@Ust_trade_contrib@@@std@@@std@@QAEXPAUst_trade_contrib@@AAU2@@Z 005a7bd0 f i Trades.obj
 0001:001a6c10       ??$construct@Ust_trade_contrib@@AAU1@@?$allocator@Ust_trade_contrib@@@std@@QAEXPAUst_trade_contrib@@AAU2@@Z 005a7c10 f i Trades.obj
 0001:001a6cd0       ??$construct@Ust_trade_contrib@@AAU1@@?$allocator_traits@V?$allocator@Ust_trade_contrib@@@std@@@std@@SAXAAV?$allocator@Ust_trade_contrib@@@1@PAUst_trade_contrib@@AAU3@@Z 005a7cd0 f i Trades.obj
 0001:001a6d10       ??$construct@Ust_trade_contrib@@ABU1@@?$_Wrap_alloc@V?$allocator@Ust_trade_contrib@@@std@@@std@@QAEXPAUst_trade_contrib@@ABU2@@Z 005a7d10 f i Trades.obj
 0001:001a6d50       ??$construct@Ust_trade_contrib@@ABU1@@?$allocator_traits@V?$allocator@Ust_trade_contrib@@@std@@@std@@SAXAAV?$allocator@Ust_trade_contrib@@@1@PAUst_trade_contrib@@ABU3@@Z 005a7d50 f i Trades.obj
 0001:001a6d90       ??$construct@Ust_trade_contrib@@U1@@?$_Wrap_alloc@V?$allocator@Ust_trade_contrib@@@std@@@std@@QAEXPAUst_trade_contrib@@$$QAU2@@Z 005a7d90 f i Trades.obj
 0001:001a6dd0       ??$construct@Ust_trade_contrib@@U1@@?$allocator@Ust_trade_contrib@@@std@@QAEXPAUst_trade_contrib@@$$QAU2@@Z 005a7dd0 f i Trades.obj
 0001:001a6e90       ??$construct@Ust_trade_contrib@@U1@@?$allocator_traits@V?$allocator@Ust_trade_contrib@@@std@@@std@@SAXAAV?$allocator@Ust_trade_contrib@@@1@PAUst_trade_contrib@@$$QAU3@@Z 005a7e90 f i Trades.obj
 0001:001a6ed0       ??$construct@Ust_trade_ek@@AAU1@@?$_Wrap_alloc@V?$allocator@Ust_trade_ek@@@std@@@std@@QAEXPAUst_trade_ek@@AAU2@@Z 005a7ed0 f i Trades.obj
 0001:001a6f10       ??$construct@Ust_trade_ek@@AAU1@@?$allocator@Ust_trade_ek@@@std@@QAEXPAUst_trade_ek@@AAU2@@Z 005a7f10 f i Trades.obj
 0001:001a6fd0       ??$construct@Ust_trade_ek@@AAU1@@?$allocator_traits@V?$allocator@Ust_trade_ek@@@std@@@std@@SAXAAV?$allocator@Ust_trade_ek@@@1@PAUst_trade_ek@@AAU3@@Z 005a7fd0 f i Trades.obj
 0001:001a7010       ??$construct@Ust_trade_ek@@ABU1@@?$_Wrap_alloc@V?$allocator@Ust_trade_ek@@@std@@@std@@QAEXPAUst_trade_ek@@ABU2@@Z 005a8010 f i Trades.obj
 0001:001a7050       ??$construct@Ust_trade_ek@@ABU1@@?$allocator_traits@V?$allocator@Ust_trade_ek@@@std@@@std@@SAXAAV?$allocator@Ust_trade_ek@@@1@PAUst_trade_ek@@ABU3@@Z 005a8050 f i Trades.obj
 0001:001a7090       ??$construct@Ust_trade_ek@@U1@@?$_Wrap_alloc@V?$allocator@Ust_trade_ek@@@std@@@std@@QAEXPAUst_trade_ek@@$$QAU2@@Z 005a8090 f i Trades.obj
 0001:001a70d0       ??$construct@Ust_trade_ek@@U1@@?$allocator@Ust_trade_ek@@@std@@QAEXPAUst_trade_ek@@$$QAU2@@Z 005a80d0 f i Trades.obj
 0001:001a7190       ??$construct@Ust_trade_ek@@U1@@?$allocator_traits@V?$allocator@Ust_trade_ek@@@std@@@std@@SAXAAV?$allocator@Ust_trade_ek@@@1@PAUst_trade_ek@@$$QAU3@@Z 005a8190 f i Trades.obj
 0001:001a71d0       ??$construct@Ust_trade_majs@@AAU1@@?$_Wrap_alloc@V?$allocator@Ust_trade_majs@@@std@@@std@@QAEXPAUst_trade_majs@@AAU2@@Z 005a81d0 f i Trades.obj
 0001:001a7210       ??$construct@Ust_trade_majs@@AAU1@@?$allocator@Ust_trade_majs@@@std@@QAEXPAUst_trade_majs@@AAU2@@Z 005a8210 f i Trades.obj
 0001:001a72d0       ??$construct@Ust_trade_majs@@AAU1@@?$allocator_traits@V?$allocator@Ust_trade_majs@@@std@@@std@@SAXAAV?$allocator@Ust_trade_majs@@@1@PAUst_trade_majs@@AAU3@@Z 005a82d0 f i Trades.obj
 0001:001a7310       ??$construct@Ust_trade_majs@@ABU1@@?$_Wrap_alloc@V?$allocator@Ust_trade_majs@@@std@@@std@@QAEXPAUst_trade_majs@@ABU2@@Z 005a8310 f i Trades.obj
 0001:001a7350       ??$construct@Ust_trade_majs@@ABU1@@?$allocator_traits@V?$allocator@Ust_trade_majs@@@std@@@std@@SAXAAV?$allocator@Ust_trade_majs@@@1@PAUst_trade_majs@@ABU3@@Z 005a8350 f i Trades.obj
 0001:001a7390       ??$construct@Ust_trade_majs@@U1@@?$_Wrap_alloc@V?$allocator@Ust_trade_majs@@@std@@@std@@QAEXPAUst_trade_majs@@$$QAU2@@Z 005a8390 f i Trades.obj
 0001:001a73d0       ??$construct@Ust_trade_majs@@U1@@?$allocator@Ust_trade_majs@@@std@@QAEXPAUst_trade_majs@@$$QAU2@@Z 005a83d0 f i Trades.obj
 0001:001a7490       ??$construct@Ust_trade_majs@@U1@@?$allocator_traits@V?$allocator@Ust_trade_majs@@@std@@@std@@SAXAAV?$allocator@Ust_trade_majs@@@1@PAUst_trade_majs@@$$QAU3@@Z 005a8490 f i Trades.obj
 0001:001a74d0       ??$destroy@Ust_trade_coin@@@?$_Wrap_alloc@V?$allocator@Ust_trade_coin@@@std@@@std@@QAEXPAUst_trade_coin@@@Z 005a84d0 f i Trades.obj
 0001:001a7500       ??$destroy@Ust_trade_coin@@@?$allocator@Ust_trade_coin@@@std@@QAEXPAUst_trade_coin@@@Z 005a8500 f i Trades.obj
 0001:001a7520       ??$destroy@Ust_trade_coin@@@?$allocator_traits@V?$allocator@Ust_trade_coin@@@std@@@std@@SAXAAV?$allocator@Ust_trade_coin@@@1@PAUst_trade_coin@@@Z 005a8520 f i Trades.obj
 0001:001a7550       ??$destroy@Ust_trade_contrib@@@?$_Wrap_alloc@V?$allocator@Ust_trade_contrib@@@std@@@std@@QAEXPAUst_trade_contrib@@@Z 005a8550 f i Trades.obj
 0001:001a7580       ??$destroy@Ust_trade_contrib@@@?$allocator@Ust_trade_contrib@@@std@@QAEXPAUst_trade_contrib@@@Z 005a8580 f i Trades.obj
 0001:001a75a0       ??$destroy@Ust_trade_contrib@@@?$allocator_traits@V?$allocator@Ust_trade_contrib@@@std@@@std@@SAXAAV?$allocator@Ust_trade_contrib@@@1@PAUst_trade_contrib@@@Z 005a85a0 f i Trades.obj
 0001:001a75d0       ??$destroy@Ust_trade_ek@@@?$_Wrap_alloc@V?$allocator@Ust_trade_ek@@@std@@@std@@QAEXPAUst_trade_ek@@@Z 005a85d0 f i Trades.obj
 0001:001a7600       ??$destroy@Ust_trade_ek@@@?$allocator@Ust_trade_ek@@@std@@QAEXPAUst_trade_ek@@@Z 005a8600 f i Trades.obj
 0001:001a7620       ??$destroy@Ust_trade_ek@@@?$allocator_traits@V?$allocator@Ust_trade_ek@@@std@@@std@@SAXAAV?$allocator@Ust_trade_ek@@@1@PAUst_trade_ek@@@Z 005a8620 f i Trades.obj
 0001:001a7650       ??$destroy@Ust_trade_majs@@@?$_Wrap_alloc@V?$allocator@Ust_trade_majs@@@std@@@std@@QAEXPAUst_trade_majs@@@Z 005a8650 f i Trades.obj
 0001:001a7680       ??$destroy@Ust_trade_majs@@@?$allocator@Ust_trade_majs@@@std@@QAEXPAUst_trade_majs@@@Z 005a8680 f i Trades.obj
 0001:001a76a0       ??$destroy@Ust_trade_majs@@@?$allocator_traits@V?$allocator@Ust_trade_majs@@@std@@@std@@SAXAAV?$allocator@Ust_trade_majs@@@1@PAUst_trade_majs@@@Z 005a86a0 f i Trades.obj
 0001:001a76d0       ??$forward@AAUst_trade_coin@@@std@@YAAAUst_trade_coin@@AAU1@@Z 005a86d0 f i Trades.obj
 0001:001a76f0       ??$forward@AAUst_trade_contrib@@@std@@YAAAUst_trade_contrib@@AAU1@@Z 005a86f0 f i Trades.obj
 0001:001a7710       ??$forward@AAUst_trade_ek@@@std@@YAAAUst_trade_ek@@AAU1@@Z 005a8710 f i Trades.obj
 0001:001a7730       ??$forward@AAUst_trade_majs@@@std@@YAAAUst_trade_majs@@AAU1@@Z 005a8730 f i Trades.obj
 0001:001a7750       ??$forward@ABUst_trade_coin@@@std@@YAABUst_trade_coin@@ABU1@@Z 005a8750 f i Trades.obj
 0001:001a7770       ??$forward@ABUst_trade_contrib@@@std@@YAABUst_trade_contrib@@ABU1@@Z 005a8770 f i Trades.obj
 0001:001a7790       ??$forward@ABUst_trade_ek@@@std@@YAABUst_trade_ek@@ABU1@@Z 005a8790 f i Trades.obj
 0001:001a77b0       ??$forward@ABUst_trade_majs@@@std@@YAABUst_trade_majs@@ABU1@@Z 005a87b0 f i Trades.obj
 0001:001a77d0       ??$forward@Ust_trade_coin@@@std@@YA$$QAUst_trade_coin@@AAU1@@Z 005a87d0 f i Trades.obj
 0001:001a77f0       ??$forward@Ust_trade_contrib@@@std@@YA$$QAUst_trade_contrib@@AAU1@@Z 005a87f0 f i Trades.obj
 0001:001a7810       ??$forward@Ust_trade_ek@@@std@@YA$$QAUst_trade_ek@@AAU1@@Z 005a8810 f i Trades.obj
 0001:001a7830       ??$forward@Ust_trade_majs@@@std@@YA$$QAUst_trade_majs@@AAU1@@Z 005a8830 f i Trades.obj
 0001:001a7850       ??0?$_Vector_alloc@$0A@U?$_Vec_base_types@Ust_trade_coin@@V?$allocator@Ust_trade_coin@@@std@@@std@@@std@@QAE@ABV?$allocator@Ust_trade_coin@@@1@@Z 005a8850 f i Trades.obj
 0001:001a78d0       ??0?$_Vector_alloc@$0A@U?$_Vec_base_types@Ust_trade_contrib@@V?$allocator@Ust_trade_contrib@@@std@@@std@@@std@@QAE@ABV?$allocator@Ust_trade_contrib@@@1@@Z 005a88d0 f i Trades.obj
 0001:001a7950       ??0?$_Vector_alloc@$0A@U?$_Vec_base_types@Ust_trade_ek@@V?$allocator@Ust_trade_ek@@@std@@@std@@@std@@QAE@ABV?$allocator@Ust_trade_ek@@@1@@Z 005a8950 f i Trades.obj
 0001:001a79d0       ??0?$_Vector_alloc@$0A@U?$_Vec_base_types@Ust_trade_majs@@V?$allocator@Ust_trade_majs@@@std@@@std@@@std@@QAE@ABV?$allocator@Ust_trade_majs@@@1@@Z 005a89d0 f i Trades.obj
 0001:001a7a50       ??0?$_Vector_val@U?$_Simple_types@Ust_trade_coin@@@std@@@std@@QAE@XZ 005a8a50 f i Trades.obj
 0001:001a7aa0       ??0?$_Vector_val@U?$_Simple_types@Ust_trade_contrib@@@std@@@std@@QAE@XZ 005a8aa0 f i Trades.obj
 0001:001a7af0       ??0?$_Vector_val@U?$_Simple_types@Ust_trade_ek@@@std@@@std@@QAE@XZ 005a8af0 f i Trades.obj
 0001:001a7b40       ??0?$_Vector_val@U?$_Simple_types@Ust_trade_majs@@@std@@@std@@QAE@XZ 005a8b40 f i Trades.obj
 0001:001a7b90       ??0?$_Wrap_alloc@V?$allocator@Ust_trade_coin@@@std@@@std@@QAE@XZ 005a8b90 f i Trades.obj
 0001:001a7bc0       ??0?$_Wrap_alloc@V?$allocator@Ust_trade_contrib@@@std@@@std@@QAE@XZ 005a8bc0 f i Trades.obj
 0001:001a7bf0       ??0?$_Wrap_alloc@V?$allocator@Ust_trade_ek@@@std@@@std@@QAE@XZ 005a8bf0 f i Trades.obj
 0001:001a7c20       ??0?$_Wrap_alloc@V?$allocator@Ust_trade_majs@@@std@@@std@@QAE@XZ 005a8c20 f i Trades.obj
 0001:001a7c50       ??0?$allocator@Ust_trade_coin@@@std@@QAE@XZ 005a8c50 f i Trades.obj
 0001:001a7c70       ??0?$allocator@Ust_trade_contrib@@@std@@QAE@XZ 005a8c70 f i Trades.obj
 0001:001a7c90       ??0?$allocator@Ust_trade_ek@@@std@@QAE@XZ 005a8c90 f i Trades.obj
 0001:001a7cb0       ??0?$allocator@Ust_trade_majs@@@std@@QAE@XZ 005a8cb0 f i Trades.obj
 0001:001a7cd0       ??0?$vector@Ust_trade_coin@@V?$allocator@Ust_trade_coin@@@std@@@std@@QAE@XZ 005a8cd0 f i Trades.obj
 0001:001a7d00       ??0?$vector@Ust_trade_contrib@@V?$allocator@Ust_trade_contrib@@@std@@@std@@QAE@XZ 005a8d00 f i Trades.obj
 0001:001a7d30       ??0?$vector@Ust_trade_ek@@V?$allocator@Ust_trade_ek@@@std@@@std@@QAE@XZ 005a8d30 f i Trades.obj
 0001:001a7d60       ??0?$vector@Ust_trade_majs@@V?$allocator@Ust_trade_majs@@@std@@@std@@QAE@XZ 005a8d60 f i Trades.obj
 0001:001a7d90       ??0Trades@@QAE@XZ          005a8d90 f   Trades.obj
 0001:001a7de0       ??0st_trade_coin@@QAE@XZ   005a8de0 f i Trades.obj
 0001:001a7e00       ??0st_trade_contrib@@QAE@XZ 005a8e00 f i Trades.obj
 0001:001a7e20       ??0st_trade_ek@@QAE@XZ     005a8e20 f i Trades.obj
 0001:001a7e40       ??0st_trade_majs@@QAE@XZ   005a8e40 f i Trades.obj
 0001:001a7e60       ??1?$_Vector_alloc@$0A@U?$_Vec_base_types@Ust_trade_coin@@V?$allocator@Ust_trade_coin@@@std@@@std@@@std@@QAE@XZ 005a8e60 f i Trades.obj
 0001:001a7e90       ??1?$_Vector_alloc@$0A@U?$_Vec_base_types@Ust_trade_contrib@@V?$allocator@Ust_trade_contrib@@@std@@@std@@@std@@QAE@XZ 005a8e90 f i Trades.obj
 0001:001a7ec0       ??1?$_Vector_alloc@$0A@U?$_Vec_base_types@Ust_trade_ek@@V?$allocator@Ust_trade_ek@@@std@@@std@@@std@@QAE@XZ 005a8ec0 f i Trades.obj
 0001:001a7ef0       ??1?$_Vector_alloc@$0A@U?$_Vec_base_types@Ust_trade_majs@@V?$allocator@Ust_trade_majs@@@std@@@std@@@std@@QAE@XZ 005a8ef0 f i Trades.obj
 0001:001a7f20       ??1?$_Vector_val@U?$_Simple_types@Ust_trade_coin@@@std@@@std@@QAE@XZ 005a8f20 f i Trades.obj
 0001:001a7f50       ??1?$_Vector_val@U?$_Simple_types@Ust_trade_contrib@@@std@@@std@@QAE@XZ 005a8f50 f i Trades.obj
 0001:001a7f80       ??1?$_Vector_val@U?$_Simple_types@Ust_trade_ek@@@std@@@std@@QAE@XZ 005a8f80 f i Trades.obj
 0001:001a7fb0       ??1?$_Vector_val@U?$_Simple_types@Ust_trade_majs@@@std@@@std@@QAE@XZ 005a8fb0 f i Trades.obj
 0001:001a7fe0       ??1?$vector@Ust_trade_coin@@V?$allocator@Ust_trade_coin@@@std@@@std@@QAE@XZ 005a8fe0 f i Trades.obj
 0001:001a8010       ??1?$vector@Ust_trade_contrib@@V?$allocator@Ust_trade_contrib@@@std@@@std@@QAE@XZ 005a9010 f i Trades.obj
 0001:001a8040       ??1?$vector@Ust_trade_ek@@V?$allocator@Ust_trade_ek@@@std@@@std@@QAE@XZ 005a9040 f i Trades.obj
 0001:001a8070       ??1?$vector@Ust_trade_majs@@V?$allocator@Ust_trade_majs@@@std@@@std@@QAE@XZ 005a9070 f i Trades.obj
 0001:001a80a0       ??1Trades@@QAE@XZ          005a90a0 f   Trades.obj
 0001:001a80c0       ??A?$vector@Ust_trade_coin@@V?$allocator@Ust_trade_coin@@@std@@@std@@QAEAAUst_trade_coin@@I@Z 005a90c0 f i Trades.obj
 0001:001a8180       ??A?$vector@Ust_trade_contrib@@V?$allocator@Ust_trade_contrib@@@std@@@std@@QAEAAUst_trade_contrib@@I@Z 005a9180 f i Trades.obj
 0001:001a8240       ??A?$vector@Ust_trade_ek@@V?$allocator@Ust_trade_ek@@@std@@@std@@QAEAAUst_trade_ek@@I@Z 005a9240 f i Trades.obj
 0001:001a8300       ??A?$vector@Ust_trade_majs@@V?$allocator@Ust_trade_majs@@@std@@@std@@QAEAAUst_trade_majs@@I@Z 005a9300 f i Trades.obj
 0001:001a8400       ?_Alloc_proxy@?$_Vector_alloc@$0A@U?$_Vec_base_types@Ust_trade_coin@@V?$allocator@Ust_trade_coin@@@std@@@std@@@std@@QAEXXZ 005a9400 f i Trades.obj
 0001:001a8460       ?_Alloc_proxy@?$_Vector_alloc@$0A@U?$_Vec_base_types@Ust_trade_contrib@@V?$allocator@Ust_trade_contrib@@@std@@@std@@@std@@QAEXXZ 005a9460 f i Trades.obj
 0001:001a84c0       ?_Alloc_proxy@?$_Vector_alloc@$0A@U?$_Vec_base_types@Ust_trade_ek@@V?$allocator@Ust_trade_ek@@@std@@@std@@@std@@QAEXXZ 005a94c0 f i Trades.obj
 0001:001a8520       ?_Alloc_proxy@?$_Vector_alloc@$0A@U?$_Vec_base_types@Ust_trade_majs@@V?$allocator@Ust_trade_majs@@@std@@@std@@@std@@QAEXXZ 005a9520 f i Trades.obj
 0001:001a8580       ?_Destroy@?$vector@Ust_trade_coin@@V?$allocator@Ust_trade_coin@@@std@@@std@@IAEXPAUst_trade_coin@@0@Z 005a9580 f i Trades.obj
 0001:001a85d0       ?_Destroy@?$vector@Ust_trade_contrib@@V?$allocator@Ust_trade_contrib@@@std@@@std@@IAEXPAUst_trade_contrib@@0@Z 005a95d0 f i Trades.obj
 0001:001a8620       ?_Destroy@?$vector@Ust_trade_ek@@V?$allocator@Ust_trade_ek@@@std@@@std@@IAEXPAUst_trade_ek@@0@Z 005a9620 f i Trades.obj
 0001:001a8670       ?_Destroy@?$vector@Ust_trade_majs@@V?$allocator@Ust_trade_majs@@@std@@@std@@IAEXPAUst_trade_majs@@0@Z 005a9670 f i Trades.obj
 0001:001a86c0       ?_Free_proxy@?$_Vector_alloc@$0A@U?$_Vec_base_types@Ust_trade_coin@@V?$allocator@Ust_trade_coin@@@std@@@std@@@std@@QAEXXZ 005a96c0 f i Trades.obj
 0001:001a8720       ?_Free_proxy@?$_Vector_alloc@$0A@U?$_Vec_base_types@Ust_trade_contrib@@V?$allocator@Ust_trade_contrib@@@std@@@std@@@std@@QAEXXZ 005a9720 f i Trades.obj
 0001:001a8780       ?_Free_proxy@?$_Vector_alloc@$0A@U?$_Vec_base_types@Ust_trade_ek@@V?$allocator@Ust_trade_ek@@@std@@@std@@@std@@QAEXXZ 005a9780 f i Trades.obj
 0001:001a87e0       ?_Free_proxy@?$_Vector_alloc@$0A@U?$_Vec_base_types@Ust_trade_majs@@V?$allocator@Ust_trade_majs@@@std@@@std@@@std@@QAEXXZ 005a97e0 f i Trades.obj
 0001:001a8840       ?_Getal@?$_Vector_alloc@$0A@U?$_Vec_base_types@Ust_trade_coin@@V?$allocator@Ust_trade_coin@@@std@@@std@@@std@@QBE?AU?$_Wrap_alloc@V?$allocator@Ust_trade_coin@@@std@@@2@XZ 005a9840 f i Trades.obj
 0001:001a8870       ?_Getal@?$_Vector_alloc@$0A@U?$_Vec_base_types@Ust_trade_contrib@@V?$allocator@Ust_trade_contrib@@@std@@@std@@@std@@QBE?AU?$_Wrap_alloc@V?$allocator@Ust_trade_contrib@@@std@@@2@XZ 005a9870 f i Trades.obj
 0001:001a88a0       ?_Getal@?$_Vector_alloc@$0A@U?$_Vec_base_types@Ust_trade_ek@@V?$allocator@Ust_trade_ek@@@std@@@std@@@std@@QBE?AU?$_Wrap_alloc@V?$allocator@Ust_trade_ek@@@std@@@2@XZ 005a98a0 f i Trades.obj
 0001:001a88d0       ?_Getal@?$_Vector_alloc@$0A@U?$_Vec_base_types@Ust_trade_majs@@V?$allocator@Ust_trade_majs@@@std@@@std@@@std@@QBE?AU?$_Wrap_alloc@V?$allocator@Ust_trade_majs@@@std@@@2@XZ 005a98d0 f i Trades.obj
 0001:001a8900       ?_Grow_to@?$vector@Ust_trade_coin@@V?$allocator@Ust_trade_coin@@@std@@@std@@IBEII@Z 005a9900 f i Trades.obj
 0001:001a8980       ?_Grow_to@?$vector@Ust_trade_contrib@@V?$allocator@Ust_trade_contrib@@@std@@@std@@IBEII@Z 005a9980 f i Trades.obj
 0001:001a8a00       ?_Grow_to@?$vector@Ust_trade_ek@@V?$allocator@Ust_trade_ek@@@std@@@std@@IBEII@Z 005a9a00 f i Trades.obj
 0001:001a8a80       ?_Grow_to@?$vector@Ust_trade_majs@@V?$allocator@Ust_trade_majs@@@std@@@std@@IBEII@Z 005a9a80 f i Trades.obj
 0001:001a8b00       ?_Inside@?$vector@Ust_trade_coin@@V?$allocator@Ust_trade_coin@@@std@@@std@@IBE_NPBUst_trade_coin@@@Z 005a9b00 f i Trades.obj
 0001:001a8b50       ?_Inside@?$vector@Ust_trade_contrib@@V?$allocator@Ust_trade_contrib@@@std@@@std@@IBE_NPBUst_trade_contrib@@@Z 005a9b50 f i Trades.obj
 0001:001a8ba0       ?_Inside@?$vector@Ust_trade_ek@@V?$allocator@Ust_trade_ek@@@std@@@std@@IBE_NPBUst_trade_ek@@@Z 005a9ba0 f i Trades.obj
 0001:001a8bf0       ?_Inside@?$vector@Ust_trade_majs@@V?$allocator@Ust_trade_majs@@@std@@@std@@IBE_NPBUst_trade_majs@@@Z 005a9bf0 f i Trades.obj
 0001:001a8c40       ?_Orphan_range@?$vector@Ust_trade_coin@@V?$allocator@Ust_trade_coin@@@std@@@std@@IBEXPAUst_trade_coin@@0@Z 005a9c40 f i Trades.obj
 0001:001a8d30       ?_Orphan_range@?$vector@Ust_trade_contrib@@V?$allocator@Ust_trade_contrib@@@std@@@std@@IBEXPAUst_trade_contrib@@0@Z 005a9d30 f i Trades.obj
 0001:001a8e20       ?_Orphan_range@?$vector@Ust_trade_ek@@V?$allocator@Ust_trade_ek@@@std@@@std@@IBEXPAUst_trade_ek@@0@Z 005a9e20 f i Trades.obj
 0001:001a8f10       ?_Orphan_range@?$vector@Ust_trade_majs@@V?$allocator@Ust_trade_majs@@@std@@@std@@IBEXPAUst_trade_majs@@0@Z 005a9f10 f i Trades.obj
 0001:001a9000       ?_Reallocate@?$vector@Ust_trade_coin@@V?$allocator@Ust_trade_coin@@@std@@@std@@IAEXI@Z 005aa000 f i Trades.obj
 0001:001a9190       ?_Reallocate@?$vector@Ust_trade_contrib@@V?$allocator@Ust_trade_contrib@@@std@@@std@@IAEXI@Z 005aa190 f i Trades.obj
 0001:001a9320       ?_Reallocate@?$vector@Ust_trade_ek@@V?$allocator@Ust_trade_ek@@@std@@@std@@IAEXI@Z 005aa320 f i Trades.obj
 0001:001a94b0       ?_Reallocate@?$vector@Ust_trade_majs@@V?$allocator@Ust_trade_majs@@@std@@@std@@IAEXI@Z 005aa4b0 f i Trades.obj
 0001:001a9640       ?_Reserve@?$vector@Ust_trade_coin@@V?$allocator@Ust_trade_coin@@@std@@@std@@IAEXI@Z 005aa640 f i Trades.obj
 0001:001a96c0       ?_Reserve@?$vector@Ust_trade_contrib@@V?$allocator@Ust_trade_contrib@@@std@@@std@@IAEXI@Z 005aa6c0 f i Trades.obj
 0001:001a9740       ?_Reserve@?$vector@Ust_trade_ek@@V?$allocator@Ust_trade_ek@@@std@@@std@@IAEXI@Z 005aa740 f i Trades.obj
 0001:001a97c0       ?_Reserve@?$vector@Ust_trade_majs@@V?$allocator@Ust_trade_majs@@@std@@@std@@IAEXI@Z 005aa7c0 f i Trades.obj
 0001:001a9840       ?_Tidy@?$vector@Ust_trade_coin@@V?$allocator@Ust_trade_coin@@@std@@@std@@IAEXXZ 005aa840 f i Trades.obj
 0001:001a98f0       ?_Tidy@?$vector@Ust_trade_contrib@@V?$allocator@Ust_trade_contrib@@@std@@@std@@IAEXXZ 005aa8f0 f i Trades.obj
 0001:001a99a0       ?_Tidy@?$vector@Ust_trade_ek@@V?$allocator@Ust_trade_ek@@@std@@@std@@IAEXXZ 005aa9a0 f i Trades.obj
 0001:001a9a50       ?_Tidy@?$vector@Ust_trade_majs@@V?$allocator@Ust_trade_majs@@@std@@@std@@IAEXXZ 005aaa50 f i Trades.obj
 0001:001a9b00       ?_Unused_capacity@?$vector@Ust_trade_coin@@V?$allocator@Ust_trade_coin@@@std@@@std@@QBEIXZ 005aab00 f i Trades.obj
 0001:001a9b30       ?_Unused_capacity@?$vector@Ust_trade_contrib@@V?$allocator@Ust_trade_contrib@@@std@@@std@@QBEIXZ 005aab30 f i Trades.obj
 0001:001a9b60       ?_Unused_capacity@?$vector@Ust_trade_ek@@V?$allocator@Ust_trade_ek@@@std@@@std@@QBEIXZ 005aab60 f i Trades.obj
 0001:001a9b90       ?_Unused_capacity@?$vector@Ust_trade_majs@@V?$allocator@Ust_trade_majs@@@std@@@std@@QBEIXZ 005aab90 f i Trades.obj
 0001:001a9bc0       ?_Xlen@?$vector@Ust_trade_coin@@V?$allocator@Ust_trade_coin@@@std@@@std@@IBEXXZ 005aabc0 f i Trades.obj
 0001:001a9bf0       ?_Xlen@?$vector@Ust_trade_contrib@@V?$allocator@Ust_trade_contrib@@@std@@@std@@IBEXXZ 005aabf0 f i Trades.obj
 0001:001a9c20       ?_Xlen@?$vector@Ust_trade_ek@@V?$allocator@Ust_trade_ek@@@std@@@std@@IBEXXZ 005aac20 f i Trades.obj
 0001:001a9c50       ?_Xlen@?$vector@Ust_trade_majs@@V?$allocator@Ust_trade_majs@@@std@@@std@@IBEXXZ 005aac50 f i Trades.obj
 0001:001a9c80       ?allocate@?$_Wrap_alloc@V?$allocator@Ust_trade_coin@@@std@@@std@@QAEPAUst_trade_coin@@I@Z 005aac80 f i Trades.obj
 0001:001a9cb0       ?allocate@?$_Wrap_alloc@V?$allocator@Ust_trade_contrib@@@std@@@std@@QAEPAUst_trade_contrib@@I@Z 005aacb0 f i Trades.obj
 0001:001a9ce0       ?allocate@?$_Wrap_alloc@V?$allocator@Ust_trade_ek@@@std@@@std@@QAEPAUst_trade_ek@@I@Z 005aace0 f i Trades.obj
 0001:001a9d10       ?allocate@?$_Wrap_alloc@V?$allocator@Ust_trade_majs@@@std@@@std@@QAEPAUst_trade_majs@@I@Z 005aad10 f i Trades.obj
 0001:001a9d40       ?allocate@?$allocator@Ust_trade_coin@@@std@@QAEPAUst_trade_coin@@I@Z 005aad40 f i Trades.obj
 0001:001a9d70       ?allocate@?$allocator@Ust_trade_contrib@@@std@@QAEPAUst_trade_contrib@@I@Z 005aad70 f i Trades.obj
 0001:001a9da0       ?allocate@?$allocator@Ust_trade_ek@@@std@@QAEPAUst_trade_ek@@I@Z 005aada0 f i Trades.obj
 0001:001a9dd0       ?allocate@?$allocator@Ust_trade_majs@@@std@@QAEPAUst_trade_majs@@I@Z 005aadd0 f i Trades.obj
 0001:001a9e00       ?capacity@?$vector@Ust_trade_coin@@V?$allocator@Ust_trade_coin@@@std@@@std@@QBEIXZ 005aae00 f i Trades.obj
 0001:001a9e30       ?capacity@?$vector@Ust_trade_contrib@@V?$allocator@Ust_trade_contrib@@@std@@@std@@QBEIXZ 005aae30 f i Trades.obj
 0001:001a9e60       ?capacity@?$vector@Ust_trade_ek@@V?$allocator@Ust_trade_ek@@@std@@@std@@QBEIXZ 005aae60 f i Trades.obj
 0001:001a9e90       ?capacity@?$vector@Ust_trade_majs@@V?$allocator@Ust_trade_majs@@@std@@@std@@QBEIXZ 005aae90 f i Trades.obj
 0001:001a9ec0       ?clear@?$vector@Ust_trade_coin@@V?$allocator@Ust_trade_coin@@@std@@@std@@QAEXXZ 005aaec0 f i Trades.obj
 0001:001a9f10       ?clear@?$vector@Ust_trade_contrib@@V?$allocator@Ust_trade_contrib@@@std@@@std@@QAEXXZ 005aaf10 f i Trades.obj
 0001:001a9f60       ?clear@?$vector@Ust_trade_ek@@V?$allocator@Ust_trade_ek@@@std@@@std@@QAEXXZ 005aaf60 f i Trades.obj
 0001:001a9fb0       ?clear@?$vector@Ust_trade_majs@@V?$allocator@Ust_trade_majs@@@std@@@std@@QAEXXZ 005aafb0 f i Trades.obj
 0001:001aa000       ?construct@?$allocator@Ust_trade_coin@@@std@@QAEXPAUst_trade_coin@@ABU3@@Z 005ab000 f i Trades.obj
 0001:001aa060       ?construct@?$allocator@Ust_trade_contrib@@@std@@QAEXPAUst_trade_contrib@@ABU3@@Z 005ab060 f i Trades.obj
 0001:001aa0c0       ?construct@?$allocator@Ust_trade_ek@@@std@@QAEXPAUst_trade_ek@@ABU3@@Z 005ab0c0 f i Trades.obj
 0001:001aa120       ?construct@?$allocator@Ust_trade_majs@@@std@@QAEXPAUst_trade_majs@@ABU3@@Z 005ab120 f i Trades.obj
 0001:001aa180       ?deallocate@?$_Wrap_alloc@V?$allocator@Ust_trade_coin@@@std@@@std@@QAEXPAUst_trade_coin@@I@Z 005ab180 f i Trades.obj
 0001:001aa1b0       ?deallocate@?$_Wrap_alloc@V?$allocator@Ust_trade_contrib@@@std@@@std@@QAEXPAUst_trade_contrib@@I@Z 005ab1b0 f i Trades.obj
 0001:001aa1e0       ?deallocate@?$_Wrap_alloc@V?$allocator@Ust_trade_ek@@@std@@@std@@QAEXPAUst_trade_ek@@I@Z 005ab1e0 f i Trades.obj
 0001:001aa210       ?deallocate@?$_Wrap_alloc@V?$allocator@Ust_trade_majs@@@std@@@std@@QAEXPAUst_trade_majs@@I@Z 005ab210 f i Trades.obj
 0001:001aa240       ?deallocate@?$allocator@Ust_trade_coin@@@std@@QAEXPAUst_trade_coin@@I@Z 005ab240 f i Trades.obj
 0001:001aa270       ?deallocate@?$allocator@Ust_trade_contrib@@@std@@QAEXPAUst_trade_contrib@@I@Z 005ab270 f i Trades.obj
 0001:001aa2a0       ?deallocate@?$allocator@Ust_trade_ek@@@std@@QAEXPAUst_trade_ek@@I@Z 005ab2a0 f i Trades.obj
 0001:001aa2d0       ?deallocate@?$allocator@Ust_trade_majs@@@std@@QAEXPAUst_trade_majs@@I@Z 005ab2d0 f i Trades.obj
 0001:001aa360       ?getCoinBall@Trades@@QAEXHH@Z 005ab360 f   Trades.obj
 0001:001aa690       ?getContributionBall@Trades@@QAEXHH@Z 005ab690 f   Trades.obj
 0001:001aa9c0       ?getMajesticBall@Trades@@QAEXHH@Z 005ab9c0 f   Trades.obj
 0001:001aad00       ?getReputationBall@Trades@@QAEXHH@Z 005abd00 f   Trades.obj
 0001:001ab250       ?get_trade_coin@Trades@@QAEXXZ 005ac250 f   Trades.obj
 0001:001ab6a0       ?get_trade_contrib@Trades@@QAEXXZ 005ac6a0 f   Trades.obj
 0001:001abaf0       ?get_trade_ek@Trades@@QAEXXZ 005acaf0 f   Trades.obj
 0001:001abf40       ?get_trade_majs@Trades@@QAEXXZ 005acf40 f   Trades.obj
 0001:001ac880       ?max_size@?$_Wrap_alloc@V?$allocator@Ust_trade_coin@@@std@@@std@@QBEIXZ 005ad880 f i Trades.obj
 0001:001ac8b0       ?max_size@?$_Wrap_alloc@V?$allocator@Ust_trade_contrib@@@std@@@std@@QBEIXZ 005ad8b0 f i Trades.obj
 0001:001ac8e0       ?max_size@?$_Wrap_alloc@V?$allocator@Ust_trade_ek@@@std@@@std@@QBEIXZ 005ad8e0 f i Trades.obj
 0001:001ac910       ?max_size@?$_Wrap_alloc@V?$allocator@Ust_trade_majs@@@std@@@std@@QBEIXZ 005ad910 f i Trades.obj
 0001:001ac940       ?max_size@?$allocator@Ust_trade_coin@@@std@@QBEIXZ 005ad940 f i Trades.obj
 0001:001ac960       ?max_size@?$allocator@Ust_trade_contrib@@@std@@QBEIXZ 005ad960 f i Trades.obj
 0001:001ac980       ?max_size@?$allocator@Ust_trade_ek@@@std@@QBEIXZ 005ad980 f i Trades.obj
 0001:001ac9a0       ?max_size@?$allocator@Ust_trade_majs@@@std@@QBEIXZ 005ad9a0 f i Trades.obj
 0001:001ac9c0       ?max_size@?$allocator_traits@V?$allocator@Ust_trade_coin@@@std@@@std@@SAIABV?$allocator@Ust_trade_coin@@@2@@Z 005ad9c0 f i Trades.obj
 0001:001ac9e0       ?max_size@?$allocator_traits@V?$allocator@Ust_trade_contrib@@@std@@@std@@SAIABV?$allocator@Ust_trade_contrib@@@2@@Z 005ad9e0 f i Trades.obj
 0001:001aca00       ?max_size@?$allocator_traits@V?$allocator@Ust_trade_ek@@@std@@@std@@SAIABV?$allocator@Ust_trade_ek@@@2@@Z 005ada00 f i Trades.obj
 0001:001aca20       ?max_size@?$allocator_traits@V?$allocator@Ust_trade_majs@@@std@@@std@@SAIABV?$allocator@Ust_trade_majs@@@2@@Z 005ada20 f i Trades.obj
 0001:001aca40       ?max_size@?$vector@Ust_trade_coin@@V?$allocator@Ust_trade_coin@@@std@@@std@@QBEIXZ 005ada40 f i Trades.obj
 0001:001aca70       ?max_size@?$vector@Ust_trade_contrib@@V?$allocator@Ust_trade_contrib@@@std@@@std@@QBEIXZ 005ada70 f i Trades.obj
 0001:001acaa0       ?max_size@?$vector@Ust_trade_ek@@V?$allocator@Ust_trade_ek@@@std@@@std@@QBEIXZ 005adaa0 f i Trades.obj
 0001:001acad0       ?max_size@?$vector@Ust_trade_majs@@V?$allocator@Ust_trade_majs@@@std@@@std@@QBEIXZ 005adad0 f i Trades.obj
 0001:001acb00       ?push_back@?$vector@Ust_trade_coin@@V?$allocator@Ust_trade_coin@@@std@@@std@@QAEXABUst_trade_coin@@@Z 005adb00 f i Trades.obj
 0001:001acc60       ?push_back@?$vector@Ust_trade_contrib@@V?$allocator@Ust_trade_contrib@@@std@@@std@@QAEXABUst_trade_contrib@@@Z 005adc60 f i Trades.obj
 0001:001acdc0       ?push_back@?$vector@Ust_trade_ek@@V?$allocator@Ust_trade_ek@@@std@@@std@@QAEXABUst_trade_ek@@@Z 005addc0 f i Trades.obj
 0001:001acf20       ?push_back@?$vector@Ust_trade_majs@@V?$allocator@Ust_trade_majs@@@std@@@std@@QAEXABUst_trade_majs@@@Z 005adf20 f i Trades.obj
 0001:001ad080       ?req_trade@Trades@@QAEXHPAD@Z 005ae080 f   Trades.obj
 0001:001ae930       ?req_tradeball@Trades@@QAEXHPAD@Z 005af930 f   Trades.obj
 0001:001aea30       ?send_trade_data@Trades@@QAEXHF@Z 005afa30 f   Trades.obj
 0001:001af040       ?size@?$vector@Ust_trade_coin@@V?$allocator@Ust_trade_coin@@@std@@@std@@QBEIXZ 005b0040 f i Trades.obj
 0001:001af070       ?size@?$vector@Ust_trade_contrib@@V?$allocator@Ust_trade_contrib@@@std@@@std@@QBEIXZ 005b0070 f i Trades.obj
 0001:001af0a0       ?size@?$vector@Ust_trade_ek@@V?$allocator@Ust_trade_ek@@@std@@@std@@QBEIXZ 005b00a0 f i Trades.obj
 0001:001af0d0       ?size@?$vector@Ust_trade_majs@@V?$allocator@Ust_trade_majs@@@std@@@std@@QBEIXZ 005b00d0 f i Trades.obj
 0001:001af22a       _GetLastError@0            005b022a f   kernel32:KERNEL32.dll
 0001:001af230       _GetLocalTime@4            005b0230 f   kernel32:KERNEL32.dll
 0001:001af236       _IsBadReadPtr@8            005b0236 f   kernel32:KERNEL32.dll
 0001:001af23c       _CreateFileA@28            005b023c f   kernel32:KERNEL32.dll
 0001:001af242       _DeleteFileA@4             005b0242 f   kernel32:KERNEL32.dll
 0001:001af248       _GetFileSize@8             005b0248 f   kernel32:KERNEL32.dll
 0001:001af24e       _ReadFile@20               005b024e f   kernel32:KERNEL32.dll
 0001:001af254       _SetFilePointer@16         005b0254 f   kernel32:KERNEL32.dll
 0001:001af25a       _WriteFile@20              005b025a f   kernel32:KERNEL32.dll
 0001:001af260       _CloseHandle@4             005b0260 f   kernel32:KERNEL32.dll
 0001:001af266       _Sleep@4                   005b0266 f   kernel32:KERNEL32.dll
 0001:001af26c       _GetTickCount@0            005b026c f   kernel32:KERNEL32.dll
 0001:001af272       _GetModuleFileNameA@12     005b0272 f   kernel32:KERNEL32.dll
 0001:001af278       _CopyFileA@12              005b0278 f   kernel32:KERNEL32.dll
 0001:001af27e       _wsprintfA                 005b027e f   user32:USER32.dll
 0001:001af284       _GetMessageA@16            005b0284 f   user32:USER32.dll
 0001:001af28a       _TranslateMessage@4        005b028a f   user32:USER32.dll
 0001:001af290       _DispatchMessageA@4        005b0290 f   user32:USER32.dll
 0001:001af296       _PeekMessageA@20           005b0296 f   user32:USER32.dll
 0001:001af29c       _SendMessageA@16           005b029c f   user32:USER32.dll
 0001:001af2a2       _PostMessageA@16           005b02a2 f   user32:USER32.dll
 0001:001af2a8       _WaitMessage@0             005b02a8 f   user32:USER32.dll
 0001:001af2ae       _DefWindowProcA@16         005b02ae f   user32:USER32.dll
 0001:001af2b4       _PostQuitMessage@4         005b02b4 f   user32:USER32.dll
 0001:001af2ba       _RegisterClassA@4          005b02ba f   user32:USER32.dll
 0001:001af2c0       _CreateWindowExA@48        005b02c0 f   user32:USER32.dll
 0001:001af2c6       _LoadCursorA@8             005b02c6 f   user32:USER32.dll
 0001:001af2cc       _LoadIconA@8               005b02cc f   user32:USER32.dll
 0001:001af2d2       _InvalidateRect@12         005b02d2 f   user32:USER32.dll
 0001:001af2d8       _MessageBoxA@16            005b02d8 f   user32:USER32.dll
 0001:001af2de       _SetRect@20                005b02de f   user32:USER32.dll
 0001:001af2e4       _GetCursorPos@4            005b02e4 f   user32:USER32.dll
 0001:001af2ea       _GetStockObject@4          005b02ea f   gdi32:GDI32.dll
 0001:001af2f0       _SetTextColor@8            005b02f0 f   gdi32:GDI32.dll
 0001:001af2f6       _TextOutA@20               005b02f6 f   gdi32:GDI32.dll
 0001:001af2fc       _timeSetEvent@20           005b02fc f   WINMM:WINMM.dll
 0001:001af302       _timeKillEvent@4           005b0302 f   WINMM:WINMM.dll
 0001:001af308       _timeGetTime@0             005b0308 f   WINMM:WINMM.dll
 0001:001af30e       _timeGetDevCaps@8          005b030e f   WINMM:WINMM.dll
 0001:001af314       _timeBeginPeriod@4         005b0314 f   WINMM:WINMM.dll
 0001:001af31a       _timeEndPeriod@4           005b031a f   WINMM:WINMM.dll
 0001:001af320       _WSAStartup@8              005b0320 f   WS2_32:WS2_32.dll
 0001:001af326       _WSACleanup@0              005b0326 f   WS2_32:WS2_32.dll
 0001:001af32c       _bind@12                   005b032c f   WS2_32:WS2_32.dll
 0001:001af332       _closesocket@4             005b0332 f   WS2_32:WS2_32.dll
 0001:001af338       _htons@4                   005b0338 f   WS2_32:WS2_32.dll
 0001:001af33e       _recvfrom@24               005b033e f   WS2_32:WS2_32.dll
 0001:001af344       _sendto@24                 005b0344 f   WS2_32:WS2_32.dll
 0001:001af34a       _socket@12                 005b034a f   WS2_32:WS2_32.dll
 0001:001af350       _WSAGetLastError@0         005b0350 f   WS2_32:WS2_32.dll
 0001:001af356       _accept@12                 005b0356 f   WS2_32:WS2_32.dll
 0001:001af35c       _connect@12                005b035c f   WS2_32:WS2_32.dll
 0001:001af362       _ioctlsocket@12            005b0362 f   WS2_32:WS2_32.dll
 0001:001af368       _getpeername@12            005b0368 f   WS2_32:WS2_32.dll
 0001:001af36e       _inet_addr@4               005b036e f   WS2_32:WS2_32.dll
 0001:001af374       _inet_ntoa@4               005b0374 f   WS2_32:WS2_32.dll
 0001:001af37a       _listen@8                  005b037a f   WS2_32:WS2_32.dll
 0001:001af380       _recv@16                   005b0380 f   WS2_32:WS2_32.dll
 0001:001af386       _send@16                   005b0386 f   WS2_32:WS2_32.dll
 0001:001af38c       _setsockopt@20             005b038c f   WS2_32:WS2_32.dll
 0001:001af392       _shutdown@8                005b0392 f   WS2_32:WS2_32.dll
 0001:001af398       _WSAAsyncSelect@16         005b0398 f   WS2_32:WS2_32.dll
 0001:001af3a0       ??0_Init_locks@std@@QAE@XZ 005b03a0 f   libcpmtd:xlock.obj
 0001:001af3f0       ??0_Lockit@std@@QAE@H@Z    005b03f0 f   libcpmtd:xlock.obj
 0001:001af440       ??0_Lockit@std@@QAE@XZ     005b0440 f   libcpmtd:xlock.obj
 0001:001af490       ??1_Init_locks@std@@QAE@XZ 005b0490 f   libcpmtd:xlock.obj
 0001:001af4e0       ??1_Lockit@std@@QAE@XZ     005b04e0 f   libcpmtd:xlock.obj
 0001:001af520       ?_Init_locks_ctor@_Init_locks@std@@CAXPAV12@@Z 005b0520 f   libcpmtd:xlock.obj
 0001:001af570       ?_Init_locks_dtor@_Init_locks@std@@CAXPAV12@@Z 005b0570 f   libcpmtd:xlock.obj
 0001:001af5c0       ?_Lockit_ctor@_Lockit@std@@CAXPAV12@@Z 005b05c0 f   libcpmtd:xlock.obj
 0001:001af5e0       ?_Lockit_ctor@_Lockit@std@@CAXPAV12@H@Z 005b05e0 f   libcpmtd:xlock.obj
 0001:001af620       ?_Lockit_ctor@_Lockit@std@@SAXH@Z 005b0620 f   libcpmtd:xlock.obj
 0001:001af650       ?_Lockit_dtor@_Lockit@std@@CAXPAV12@@Z 005b0650 f   libcpmtd:xlock.obj
 0001:001af670       ?_Lockit_dtor@_Lockit@std@@SAXH@Z 005b0670 f   libcpmtd:xlock.obj
 0001:001af6a0       ?uncaught_exception@std@@YA_NXZ 005b06a0 f   libcpmtd:uncaught.obj
 0001:001af6b0       ?_Debug_message@std@@YAXPBG0I@Z 005b06b0 f   libcpmtd:stdthrow.obj
 0001:001af6d0       ?_Debug_message@std@@YAXPB_W0I@Z 005b06d0 f   libcpmtd:stdthrow.obj
 0001:001af700       ??0bad_alloc@std@@QAE@ABV01@@Z 005b0700 f i libcpmtd:xthrow.obj
 0001:001af730       ??0bad_alloc@std@@QAE@XZ   005b0730 f i libcpmtd:xthrow.obj
 0001:001af760       ??0bad_function_call@std@@QAE@ABV01@@Z 005b0760 f i libcpmtd:xthrow.obj
 0001:001af790       ??0bad_function_call@std@@QAE@PBD@Z 005b0790 f i libcpmtd:xthrow.obj
 0001:001af7c0       ??0invalid_argument@std@@QAE@ABV01@@Z 005b07c0 f i libcpmtd:xthrow.obj
 0001:001af7f0       ??0invalid_argument@std@@QAE@PBD@Z 005b07f0 f i libcpmtd:xthrow.obj
 0001:001af820       ??0length_error@std@@QAE@ABV01@@Z 005b0820 f i libcpmtd:xthrow.obj
 0001:001af850       ??0length_error@std@@QAE@PBD@Z 005b0850 f i libcpmtd:xthrow.obj
 0001:001af880       ??0logic_error@std@@QAE@ABV01@@Z 005b0880 f i libcpmtd:xthrow.obj
 0001:001af8b0       ??0logic_error@std@@QAE@PBD@Z 005b08b0 f i libcpmtd:xthrow.obj
 0001:001af8e0       ??0out_of_range@std@@QAE@ABV01@@Z 005b08e0 f i libcpmtd:xthrow.obj
 0001:001af910       ??0out_of_range@std@@QAE@PBD@Z 005b0910 f i libcpmtd:xthrow.obj
 0001:001af940       ??0overflow_error@std@@QAE@ABV01@@Z 005b0940 f i libcpmtd:xthrow.obj
 0001:001af970       ??0overflow_error@std@@QAE@PBD@Z 005b0970 f i libcpmtd:xthrow.obj
 0001:001af9a0       ??0regex_error@std@@QAE@ABV01@@Z 005b09a0 f i libcpmtd:xthrow.obj
 0001:001af9e0       ??0regex_error@std@@QAE@W4error_type@regex_constants@1@@Z 005b09e0 f i libcpmtd:xthrow.obj
 0001:001afa20       ??1bad_alloc@std@@UAE@XZ   005b0a20 f i libcpmtd:xthrow.obj
 0001:001afa40       ??1bad_function_call@std@@UAE@XZ 005b0a40 f i libcpmtd:xthrow.obj
 0001:001afa60       ??1invalid_argument@std@@UAE@XZ 005b0a60 f i libcpmtd:xthrow.obj
 0001:001afa80       ??1length_error@std@@UAE@XZ 005b0a80 f i libcpmtd:xthrow.obj
 0001:001afaa0       ??1logic_error@std@@UAE@XZ 005b0aa0 f i libcpmtd:xthrow.obj
 0001:001afac0       ??1out_of_range@std@@UAE@XZ 005b0ac0 f i libcpmtd:xthrow.obj
 0001:001afae0       ??1overflow_error@std@@UAE@XZ 005b0ae0 f i libcpmtd:xthrow.obj
 0001:001afb00       ??1regex_error@std@@UAE@XZ 005b0b00 f i libcpmtd:xthrow.obj
 0001:001afb20       ??_Ebad_alloc@std@@UAEPAXI@Z 005b0b20 f i libcpmtd:xthrow.obj
 0001:001afb20       ??_Gbad_alloc@std@@UAEPAXI@Z 005b0b20 f i libcpmtd:xthrow.obj
 0001:001afb50       ??_Ebad_function_call@std@@UAEPAXI@Z 005b0b50 f i libcpmtd:xthrow.obj
 0001:001afb50       ??_Gbad_function_call@std@@UAEPAXI@Z 005b0b50 f i libcpmtd:xthrow.obj
 0001:001afb80       ??_Ginvalid_argument@std@@UAEPAXI@Z 005b0b80 f i libcpmtd:xthrow.obj
 0001:001afb80       ??_Einvalid_argument@std@@UAEPAXI@Z 005b0b80 f i libcpmtd:xthrow.obj
 0001:001afbb0       ??_Glength_error@std@@UAEPAXI@Z 005b0bb0 f i libcpmtd:xthrow.obj
 0001:001afbb0       ??_Elength_error@std@@UAEPAXI@Z 005b0bb0 f i libcpmtd:xthrow.obj
 0001:001afbe0       ??_Elogic_error@std@@UAEPAXI@Z 005b0be0 f i libcpmtd:xthrow.obj
 0001:001afbe0       ??_Glogic_error@std@@UAEPAXI@Z 005b0be0 f i libcpmtd:xthrow.obj
 0001:001afc10       ??_Gout_of_range@std@@UAEPAXI@Z 005b0c10 f i libcpmtd:xthrow.obj
 0001:001afc10       ??_Eout_of_range@std@@UAEPAXI@Z 005b0c10 f i libcpmtd:xthrow.obj
 0001:001afc40       ??_Eoverflow_error@std@@UAEPAXI@Z 005b0c40 f i libcpmtd:xthrow.obj
 0001:001afc40       ??_Goverflow_error@std@@UAEPAXI@Z 005b0c40 f i libcpmtd:xthrow.obj
 0001:001afc70       ??_Gregex_error@std@@UAEPAXI@Z 005b0c70 f i libcpmtd:xthrow.obj
 0001:001afc70       ??_Eregex_error@std@@UAEPAXI@Z 005b0c70 f i libcpmtd:xthrow.obj
 0001:001afca0       ?_Stringify@regex_error@std@@CAPBDW4error_type@regex_constants@2@@Z 005b0ca0 f i libcpmtd:xthrow.obj
 0001:001afd70       ?_Xbad_alloc@std@@YAXXZ    005b0d70 f   libcpmtd:xthrow.obj
 0001:001afd90       ?_Xbad_function_call@std@@YAXXZ 005b0d90 f   libcpmtd:xthrow.obj
 0001:001afdc0       ?_Xinvalid_argument@std@@YAXPBD@Z 005b0dc0 f   libcpmtd:xthrow.obj
 0001:001afdf0       ?_Xlength_error@std@@YAXPBD@Z 005b0df0 f   libcpmtd:xthrow.obj
 0001:001afe20       ?_Xout_of_range@std@@YAXPBD@Z 005b0e20 f   libcpmtd:xthrow.obj
 0001:001afe50       ?_Xoverflow_error@std@@YAXPBD@Z 005b0e50 f   libcpmtd:xthrow.obj
 0001:001afe80       ?_Xregex_error@std@@YAXW4error_type@regex_constants@1@@Z 005b0e80 f   libcpmtd:xthrow.obj
 0001:001afeb0       ?_Xruntime_error@std@@YAXPBD@Z 005b0eb0 f   libcpmtd:xthrow.obj
 0001:001afee0       ?what@bad_function_call@std@@UBEPBDXZ 005b0ee0 f i libcpmtd:xthrow.obj
 0001:001afef0       __Getctype                 005b0ef0 f   libcpmtd:_tolower.obj
 0001:001affa0       __Tolower                  005b0fa0 f   libcpmtd:_tolower.obj
 0001:001b0190       __Toupper                  005b1190 f   libcpmtd:_toupper.obj
 0001:001b0380       ??$_DebugHeapDelete@U_Fac_node@std@@@std@@YAXPAU_Fac_node@0@@Z 005b1380 f i libcpmtd:locale0.obj
 0001:001b03b0       ??0?$_Yarn@D@std@@QAE@PBD@Z 005b13b0 f i libcpmtd:locale0.obj
 0001:001b03e0       ??0_Fac_node@std@@QAE@PAU01@PAV_Facet_base@1@@Z 005b13e0 f i libcpmtd:locale0.obj
 0001:001b0410       ??0_Locimp@locale@std@@AAE@ABV012@@Z 005b1410 f i libcpmtd:locale0.obj
 0001:001b04d0       ??0_Locimp@locale@std@@AAE@_N@Z 005b14d0 f i libcpmtd:locale0.obj
 0001:001b0570       ??0locale@std@@AAE@PAV_Locimp@01@@Z 005b1570 f i libcpmtd:locale0.obj
 0001:001b0590       ??0locale@std@@QAE@W4_Uninitialized@1@@Z 005b1590 f i libcpmtd:locale0.obj
 0001:001b05a0       ??1_Fac_node@std@@QAE@XZ   005b15a0 f i libcpmtd:locale0.obj
 0001:001b05d0       ??1_Fac_tidy_reg_t@std@@QAE@XZ 005b15d0 f i libcpmtd:locale0.obj
 0001:001b0610       ??1_Locimp@locale@std@@MAE@XZ 005b1610 f i libcpmtd:locale0.obj
 0001:001b0650       ??4?$_Yarn@D@std@@QAEAAV01@PBD@Z 005b1650 f i libcpmtd:locale0.obj
 0001:001b06f0       ??_G_Fac_node@std@@QAEPAXI@Z 005b16f0 f i libcpmtd:locale0.obj
 0001:001b0720       ??_G_Locimp@locale@std@@MAEPAXI@Z 005b1720 f i libcpmtd:locale0.obj
 0001:001b0720       ??_E_Locimp@locale@std@@MAEPAXI@Z 005b1720 f i libcpmtd:locale0.obj
 0001:001b0750       ?_C_str@?$_Yarn@D@std@@QBEPBDXZ 005b1750 f i libcpmtd:locale0.obj
 0001:001b0780       ?_Empty@?$_Yarn@D@std@@QBE_NXZ 005b1780 f i libcpmtd:locale0.obj
 0001:001b07b0       ?_Facet_Register@std@@YAXPAV_Facet_base@1@@Z 005b17b0 f   libcpmtd:locale0.obj
 0001:001b0850       ?_Getgloballocale@locale@std@@CAPAV_Locimp@12@XZ 005b1850 f   libcpmtd:locale0.obj
 0001:001b0860       ?_Init@locale@std@@CAPAV_Locimp@12@_N@Z 005b1860 f   libcpmtd:locale0.obj
 0001:001b0980       ?_Locimp_dtor@_Locimp@locale@std@@CAXPAV123@@Z 005b1980 f   libcpmtd:locale0.obj
 0001:001b0a40       ?_Locinfo_ctor@_Locinfo@std@@SAXPAV12@PBD@Z 005b1a40 f   libcpmtd:locale0.obj
 0001:001b0ac0       ?_Locinfo_dtor@_Locinfo@std@@SAXPAV12@@Z 005b1ac0 f   libcpmtd:locale0.obj
 0001:001b0af0       ?_New_Locimp@_Locimp@locale@std@@CAPAV123@ABV123@@Z 005b1af0 f   libcpmtd:locale0.obj
 0001:001b0b80       ?_New_Locimp@_Locimp@locale@std@@CAPAV123@_N@Z 005b1b80 f   libcpmtd:locale0.obj
 0001:001b0c10       ?_Setgloballocale@locale@std@@CAXPAX@Z 005b1c10 f   libcpmtd:locale0.obj
 0001:001b0c40       ?classic@locale@std@@SAABV12@XZ 005b1c40 f   libcpmtd:locale0.obj
 0001:001b0c60       ?empty@locale@std@@SA?AV12@XZ 005b1c60 f   libcpmtd:locale0.obj
 0001:001b0ca0       __Deletegloballocale       005b1ca0 f   libcpmtd:locale0.obj
 0001:001b0d10       ??2@YAPAXIABU_DebugHeapTag_t@std@@PADH@Z 005b1d10 f   libcpmtd:xdebug.obj
 0001:001b0d50       ??3@YAXPAXABU_DebugHeapTag_t@std@@PADH@Z 005b1d50 f   libcpmtd:xdebug.obj
 0001:001b0d70       ??_U@YAPAXIABU_DebugHeapTag_t@std@@PADH@Z 005b1d70 f   libcpmtd:xdebug.obj
 0001:001b0d90       ??_V@YAXPAXABU_DebugHeapTag_t@std@@PADH@Z 005b1d90 f   libcpmtd:xdebug.obj
 0001:001b0db0       ?_DebugHeapTag_func@std@@YAABU_DebugHeapTag_t@1@XZ 005b1db0 f   libcpmtd:xdebug.obj
 0001:001b0dc0       ?_Syserror_map@std@@YAPBDH@Z 005b1dc0 f   libcpmtd:syserror.obj
 0001:001b0e10       ?_Winerror_map@std@@YAPBDH@Z 005b1e10 f   libcpmtd:syserror.obj
 0001:001b0e60       ??0_Init_cout@std@@QAE@XZ  005b1e60 f i libcpmtd:cout.obj
 0001:001b0ef0       ?tie@?$basic_ios@DU?$char_traits@D@std@@@std@@QAEPAV?$basic_ostream@DU?$char_traits@D@std@@@2@PAV32@@Z 005b1ef0 f i libcpmtd:cout.obj
 0001:001b0f20       __Getcvt                   005b1f20 f   libcpmtd:xwctomb.obj
 0001:001b1010       __Wcrtomb                  005b2010 f   libcpmtd:xwctomb.obj
 0001:001b10e0       ___Wcrtomb_lk              005b20e0 f   libcpmtd:xwctomb.obj
 0001:001b1100       ??$_DebugHeapDelete@U_Fnarray@ios_base@std@@@std@@YAXPAU_Fnarray@ios_base@0@@Z 005b2100 f i libcpmtd:ios.obj
 0001:001b1120       ??$_DebugHeapDelete@U_Iosarray@ios_base@std@@@std@@YAXPAU_Iosarray@ios_base@0@@Z 005b2120 f i libcpmtd:ios.obj
 0001:001b1140       ?_Addstd@ios_base@std@@SAXPAV12@@Z 005b2140 f   libcpmtd:ios.obj
 0001:001b11e0       ?_Callfns@ios_base@std@@AAEXW4event@12@@Z 005b21e0 f i libcpmtd:ios.obj
 0001:001b1230       ?_Ios_base_dtor@ios_base@std@@CAXPAV12@@Z 005b2230 f   libcpmtd:ios.obj
 0001:001b1290       ?_Tidy@ios_base@std@@AAEXXZ 005b2290 f i libcpmtd:ios.obj
 0001:001b1320       __Thrd_abort               005b2320 f   libcpmtd:cthread.obj
 0001:001b1360       __Thrd_create              005b2360 f   libcpmtd:cthread.obj
 0001:001b1420       __Thrd_current             005b2420 f   libcpmtd:cthread.obj
 0001:001b1480       __Thrd_detach              005b2480 f   libcpmtd:cthread.obj
 0001:001b14b0       __Thrd_equal               005b24b0 f   libcpmtd:cthread.obj
 0001:001b14e0       __Thrd_exit                005b24e0 f   libcpmtd:cthread.obj
 0001:001b1500       __Thrd_join                005b2500 f   libcpmtd:cthread.obj
 0001:001b1570       __Thrd_lt                  005b2570 f   libcpmtd:cthread.obj
 0001:001b15a0       __Thrd_sleep               005b25a0 f   libcpmtd:cthread.obj
 0001:001b1640       __Thrd_start               005b2640 f   libcpmtd:cthread.obj
 0001:001b1690       __Thrd_yield               005b2690 f   libcpmtd:cthread.obj
 0001:001b1720       ??0system_error@std@@QAE@HABVerror_category@1@PBD@Z 005b2720 f i libcpmtd:thread0.obj
 0001:001b17c0       ?_Throw_C_error@std@@YAXH@Z 005b27c0 f   libcpmtd:thread0.obj
 0001:001b1820       ?_Throw_Cpp_error@std@@YAXH@Z 005b2820 f   libcpmtd:thread0.obj
 0001:001b1860       __Do_call                  005b2860 f   libcpmtd:thread0.obj
 0001:001b1880       ??0_Auto_cnd@std@@QAE@PAPAU_Cnd_internal_imp_t@@@Z 005b2880 f i libcpmtd:threadcall.obj
 0001:001b18a0       ??0_Auto_mtx@std@@QAE@PAPAU_Mtx_internal_imp_t@@@Z 005b28a0 f i libcpmtd:threadcall.obj
 0001:001b18c0       ??0_Pad@std@@QAE@XZ        005b28c0 f   libcpmtd:threadcall.obj
 0001:001b1990       ??1_Auto_cnd@std@@QAE@XZ   005b2990 f i libcpmtd:threadcall.obj
 0001:001b19c0       ??1_Auto_mtx@std@@QAE@XZ   005b29c0 f i libcpmtd:threadcall.obj
 0001:001b19f0       ??1_Pad@std@@QAE@XZ        005b29f0 f   libcpmtd:threadcall.obj
 0001:001b1a50       ?_Cnd_initX@std@@YAHPAPAU_Cnd_internal_imp_t@@@Z 005b2a50 f i libcpmtd:threadcall.obj
 0001:001b1a70       ?_Cnd_signalX@std@@YAHPAPAU_Cnd_internal_imp_t@@@Z 005b2a70 f i libcpmtd:threadcall.obj
 0001:001b1a90       ?_Cnd_waitX@std@@YAHPAPAU_Cnd_internal_imp_t@@PAPAU_Mtx_internal_imp_t@@@Z 005b2a90 f i libcpmtd:threadcall.obj
 0001:001b1ab0       ?_Launch@_Pad@std@@QAEXPAU_Thrd_imp_t@@@Z 005b2ab0 f   libcpmtd:threadcall.obj
 0001:001b1b00       ?_Release@_Auto_cnd@std@@QAEXXZ 005b2b00 f i libcpmtd:threadcall.obj
 0001:001b1b20       ?_Release@_Auto_mtx@std@@QAEXXZ 005b2b20 f i libcpmtd:threadcall.obj
 0001:001b1b40       ?_Release@_Pad@std@@QAEXXZ 005b2b40 f   libcpmtd:threadcall.obj
 0001:001b1b80       ?_Thrd_startX@std@@YAHPAU_Thrd_imp_t@@P6GIPAX@Z1@Z 005b2b80 f i libcpmtd:threadcall.obj
 0001:001b1c70       ??$_Xfiopen@D@std@@YAPAU_iobuf@@PBDHH@Z 005b2c70 f i libcpmtd:fiopen.obj
 0001:001b1db0       ??$_Xfiopen@_W@std@@YAPAU_iobuf@@PB_WHH@Z 005b2db0 f i libcpmtd:fiopen.obj
 0001:001b1ef0       ?_Fiopen@std@@YAPAU_iobuf@@PBDHH@Z 005b2ef0 f   libcpmtd:fiopen.obj
 0001:001b1f10       ?_Fiopen@std@@YAPAU_iobuf@@PBGHH@Z 005b2f10 f   libcpmtd:fiopen.obj
 0001:001b1f30       ?_Fiopen@std@@YAPAU_iobuf@@PB_WHH@Z 005b2f30 f   libcpmtd:fiopen.obj
 0001:001b1f50       ?_Xfsopen@std@@YAPAU_iobuf@@PBDHH@Z 005b2f50 f   libcpmtd:fiopen.obj
 0001:001b1f70       ?_Xfsopen@std@@YAPAU_iobuf@@PB_WHH@Z 005b2f70 f   libcpmtd:fiopen.obj
 0001:001b1f90       ??0_Init_cerr@std@@QAE@XZ  005b2f90 f i libcpmtd:cerr.obj
 0001:001b1fe0       ?setf@ios_base@std@@QAEHH@Z 005b2fe0 f i libcpmtd:cerr.obj
 0001:001b2010       ??_U@YAPAXI@Z              005b3010 f   libcpmtd:newaop.obj
 0001:001b2030       __Xtime_diff_to_millis     005b3030 f   libcpmtd:xtime.obj
 0001:001b2070       __Xtime_diff_to_millis2    005b3070 f   libcpmtd:xtime.obj
 0001:001b20f0       __Xtime_get_ticks          005b30f0 f   libcpmtd:xtime.obj
 0001:001b2270       _xtime_get                 005b3270 f   libcpmtd:xtime.obj
 0001:001b23b0       ??$_Move@AAPAU_Node@TokenRegistrationContainer@_CancellationTokenState@details@Concurrency@@@std@@YA$$QAPAU_Node@TokenRegistrationContainer@_CancellationTokenState@details@Concurrency@@AAPAU12345@@Z 005b33b0 f i libcpmtd:mutex.obj
 0001:001b23c0       ??$for_each@V<lambda_9002ae328e3e6a2d3e065e7883200ba0>@@@TokenRegistrationContainer@_CancellationTokenState@details@Concurrency@@QAEXV<lambda_9002ae328e3e6a2d3e065e7883200ba0>@@@Z 005b33c0 f i libcpmtd:mutex.obj
 0001:001b2400       ??$swap@PAU_Node@TokenRegistrationContainer@_CancellationTokenState@details@Concurrency@@@std@@YAXAAPAU_Node@TokenRegistrationContainer@_CancellationTokenState@details@Concurrency@@0@Z 005b3400 f i libcpmtd:mutex.obj
 0001:001b2460       ??0TokenRegistrationContainer@_CancellationTokenState@details@Concurrency@@QAE@XZ 005b3460 f i libcpmtd:mutex.obj
 0001:001b2490       ??0cancellation_token_source@Concurrency@@QAE@ABV01@@Z 005b3490 f i libcpmtd:mutex.obj
 0001:001b24b0       ??1TokenRegistrationContainer@_CancellationTokenState@details@Concurrency@@QAE@XZ 005b34b0 f i libcpmtd:mutex.obj
 0001:001b24f0       ??1location@Concurrency@@QAE@XZ 005b34f0 f i libcpmtd:mutex.obj
 0001:001b25c0       ??_Elocation@Concurrency@@QAEPAXI@Z 005b35c0 f i libcpmtd:mutex.obj
 0001:001b2630       ??_Gcritical_section@Concurrency@@QAEPAXI@Z 005b3630 f i libcpmtd:mutex.obj
 0001:001b2660       ?_Assign@cancellation_token_source@Concurrency@@AAEXPAV_CancellationTokenState@details@2@@Z 005b3660 f i libcpmtd:mutex.obj
 0001:001b2690       ?_Cancel@_CancellationTokenState@details@Concurrency@@QAEXXZ 005b3690 f i libcpmtd:mutex.obj
 0001:001b2750       ?_Invoke@_CancellationTokenRegistration@details@Concurrency@@AAEXXZ 005b3750 f i libcpmtd:mutex.obj
 0001:001b27f0       ?_Reference@_RefCounter@details@Concurrency@@QAEJXZ 005b37f0 f i libcpmtd:mutex.obj
 0001:001b2840       ?_Release@_RefCounter@details@Concurrency@@QAEJXZ 005b3840 f i libcpmtd:mutex.obj
 0001:001b28a0       ?atomic_compare_exchange@details@Concurrency@@YAJACJJJ@Z 005b38a0 f i libcpmtd:mutex.obj
 0001:001b28c0       ?cancel@cancellation_token_source@Concurrency@@QBEXXZ 005b38c0 f i libcpmtd:mutex.obj
 0001:001b2b80       ?swap@TokenRegistrationContainer@_CancellationTokenState@details@Concurrency@@QAEXAAV1234@@Z 005b3b80 f i libcpmtd:mutex.obj
 0001:001b2bc0       __Mtx_clear_owner          005b3bc0 f   libcpmtd:mutex.obj
 0001:001b2bf0       __Mtx_current_owns         005b3bf0 f   libcpmtd:mutex.obj
 0001:001b2c30       __Mtx_destroy              005b3c30 f   libcpmtd:mutex.obj
 0001:001b2c80       __Mtx_getconcrtcs          005b3c80 f   libcpmtd:mutex.obj
 0001:001b2c90       __Mtx_init                 005b3c90 f   libcpmtd:mutex.obj
 0001:001b2d20       __Mtx_lock                 005b3d20 f   libcpmtd:mutex.obj
 0001:001b2d40       __Mtx_reset_owner          005b3d40 f   libcpmtd:mutex.obj
 0001:001b2d70       __Mtx_timedlock            005b3d70 f   libcpmtd:mutex.obj
 0001:001b2dc0       __Mtx_trylock              005b3dc0 f   libcpmtd:mutex.obj
 0001:001b2e20       __Mtx_unlock               005b3e20 f   libcpmtd:mutex.obj
 0001:001b2e90       __Mtxdst                   005b3e90 f   libcpmtd:xmtx.obj
 0001:001b2ea0       __Mtxinit                  005b3ea0 f   libcpmtd:xmtx.obj
 0001:001b2ec0       __Mtxlock                  005b3ec0 f   libcpmtd:xmtx.obj
 0001:001b2ed0       __Mtxunlock                005b3ed0 f   libcpmtd:xmtx.obj
 0001:001b2ee0       __Once                     005b3ee0 f   libcpmtd:xmtx.obj
 0001:001b2f40       ??1_Init_atexit@@QAE@XZ    005b3f40 f i libcpmtd:iosptrs.obj
 0001:001b2f90       ?_Atexit@@YAXP6AXXZ@Z      005b3f90 f   libcpmtd:iosptrs.obj
 0001:001b2fd0       ??$?8DU?$char_traits@D@std@@@std@@YA_NABV?$istreambuf_iterator@DU?$char_traits@D@std@@@0@0@Z 005b3fd0 f i libcpmtd:locale.obj
 0001:001b2ff0       ??$?9DU?$char_traits@D@std@@@std@@YA_NABV?$istreambuf_iterator@DU?$char_traits@D@std@@@0@0@Z 005b3ff0 f i libcpmtd:locale.obj
 0001:001b3030       ??$_Debug_range2@V?$istreambuf_iterator@DU?$char_traits@D@std@@@std@@@std@@YAXV?$istreambuf_iterator@DU?$char_traits@D@std@@@0@0PB_WIUinput_iterator_tag@0@@Z 005b4030 f i libcpmtd:locale.obj
 0001:001b3060       ??$_Debug_range@V?$istreambuf_iterator@DU?$char_traits@D@std@@@std@@@std@@YAXV?$istreambuf_iterator@DU?$char_traits@D@std@@@0@0PB_WI@Z 005b4060 f i libcpmtd:locale.obj
 0001:001b30a0       ??$_Find_elem@D@std@@YAIPADD@Z 005b40a0 f i libcpmtd:locale.obj
 0001:001b30e0       ??$_Getloctxt@DV?$istreambuf_iterator@DU?$char_traits@D@std@@@std@@@std@@YAHAAV?$istreambuf_iterator@DU?$char_traits@D@std@@@0@0IPBD@Z 005b40e0 f i libcpmtd:locale.obj
 0001:001b3330       ??$_Iter_cat@V?$istreambuf_iterator@DU?$char_traits@D@std@@@std@@@std@@YA?AUinput_iterator_tag@0@ABV?$istreambuf_iterator@DU?$char_traits@D@std@@@0@@Z 005b4330 f i libcpmtd:locale.obj
 0001:001b3340       ??$use_facet@V?$num_get@DV?$istreambuf_iterator@DU?$char_traits@D@std@@@std@@@std@@@std@@YAABV?$num_get@DV?$istreambuf_iterator@DU?$char_traits@D@std@@@std@@@0@ABVlocale@0@@Z 005b4340 f i libcpmtd:locale.obj
 0001:001b3440       ??0?$num_get@DV?$istreambuf_iterator@DU?$char_traits@D@std@@@std@@@std@@QAE@ABV_Locinfo@1@I@Z 005b4440 f i libcpmtd:locale.obj
 0001:001b34b0       ??1?$num_get@DV?$istreambuf_iterator@DU?$char_traits@D@std@@@std@@@std@@MAE@XZ 005b44b0 f i libcpmtd:locale.obj
 0001:001b34d0       ??D?$istreambuf_iterator@DU?$char_traits@D@std@@@std@@QBEDXZ 005b44d0 f i libcpmtd:locale.obj
 0001:001b3520       ??E?$istreambuf_iterator@DU?$char_traits@D@std@@@std@@QAEAAV01@XZ 005b4520 f i libcpmtd:locale.obj
 0001:001b3560       ??Y?$basic_string@DU?$char_traits@D@std@@V?$allocator@D@2@@std@@QAEAAV01@ABV01@@Z 005b4560 f i libcpmtd:locale.obj
 0001:001b3580       ??_G?$num_get@DV?$istreambuf_iterator@DU?$char_traits@D@std@@@std@@@std@@MAEPAXI@Z 005b4580 f i libcpmtd:locale.obj
 0001:001b3580       ??_E?$num_get@DV?$istreambuf_iterator@DU?$char_traits@D@std@@@std@@@std@@MAEPAXI@Z 005b4580 f i libcpmtd:locale.obj
 0001:001b35b0       ?_Addfac@_Locimp@locale@std@@AAEXPAVfacet@23@I@Z 005b45b0 f i libcpmtd:locale.obj
 0001:001b35e0       ?_Getcat@?$num_get@DV?$istreambuf_iterator@DU?$char_traits@D@std@@@std@@@std@@SAIPAPBVfacet@locale@2@PBV42@@Z 005b45e0 f i libcpmtd:locale.obj
 0001:001b36e0       ?_Getffld@?$num_get@DV?$istreambuf_iterator@DU?$char_traits@D@std@@@std@@@std@@ABAHPADAAV?$istreambuf_iterator@DU?$char_traits@D@std@@@2@1AAVios_base@2@PAH@Z 005b46e0 f i libcpmtd:locale.obj
 0001:001b3ef0       ?_Getffldx@?$num_get@DV?$istreambuf_iterator@DU?$char_traits@D@std@@@std@@@std@@ABAHPADAAV?$istreambuf_iterator@DU?$char_traits@D@std@@@2@1AAVios_base@2@PAH@Z 005b4ef0 f i libcpmtd:locale.obj
 0001:001b47d0       ?_Getifld@?$num_get@DV?$istreambuf_iterator@DU?$char_traits@D@std@@@std@@@std@@ABAHPADAAV?$istreambuf_iterator@DU?$char_traits@D@std@@@2@1HABVlocale@2@@Z 005b57d0 f i libcpmtd:locale.obj
 0001:001b4d10       ?_Getname@_Locinfo@std@@QBEPBDXZ 005b5d10 f i libcpmtd:locale.obj
 0001:001b4d30       ?_Inc@?$istreambuf_iterator@DU?$char_traits@D@std@@@std@@AAEXXZ 005b5d30 f i libcpmtd:locale.obj
 0001:001b4d90       ?_Init@?$num_get@DV?$istreambuf_iterator@DU?$char_traits@D@std@@@std@@@std@@IAEXABV_Locinfo@2@@Z 005b5d90 f i libcpmtd:locale.obj
 0001:001b4da0       ?_Locimp_Addfac@_Locimp@locale@std@@CAXPAV123@PAVfacet@23@I@Z 005b5da0 f   libcpmtd:locale.obj
 0001:001b4ee0       ?_Locimp_ctor@_Locimp@locale@std@@CAXPAV123@ABV123@@Z 005b5ee0 f   libcpmtd:locale.obj
 0001:001b5010       ?_Locinfo_Addcats@_Locinfo@std@@SAAAV12@PAV12@HPBD@Z 005b6010 f   libcpmtd:locale.obj
 0001:001b5120       ?_Locinfo_ctor@_Locinfo@std@@SAXPAV12@HPBD@Z 005b6120 f   libcpmtd:locale.obj
 0001:001b5180       ?_Makeloc@_Locimp@locale@std@@CAPAV123@ABV_Locinfo@3@HPAV123@PBV23@@Z 005b6180 f   libcpmtd:locale.obj
 0001:001b55b0       ?_Peek@?$istreambuf_iterator@DU?$char_traits@D@std@@@std@@ABEDXZ 005b65b0 f i libcpmtd:locale.obj
 0001:001b5620       ?do_get@?$num_get@DV?$istreambuf_iterator@DU?$char_traits@D@std@@@std@@@std@@MBE?AV?$istreambuf_iterator@DU?$char_traits@D@std@@@2@V32@0AAVios_base@2@AAHAAG@Z 005b6620 f i libcpmtd:locale.obj
 0001:001b57b0       ?do_get@?$num_get@DV?$istreambuf_iterator@DU?$char_traits@D@std@@@std@@@std@@MBE?AV?$istreambuf_iterator@DU?$char_traits@D@std@@@2@V32@0AAVios_base@2@AAHAAI@Z 005b67b0 f i libcpmtd:locale.obj
 0001:001b5940       ?do_get@?$num_get@DV?$istreambuf_iterator@DU?$char_traits@D@std@@@std@@@std@@MBE?AV?$istreambuf_iterator@DU?$char_traits@D@std@@@2@V32@0AAVios_base@2@AAHAAJ@Z 005b6940 f i libcpmtd:locale.obj
 0001:001b5a80       ?do_get@?$num_get@DV?$istreambuf_iterator@DU?$char_traits@D@std@@@std@@@std@@MBE?AV?$istreambuf_iterator@DU?$char_traits@D@std@@@2@V32@0AAVios_base@2@AAHAAK@Z 005b6a80 f i libcpmtd:locale.obj
 0001:001b5bc0       ?do_get@?$num_get@DV?$istreambuf_iterator@DU?$char_traits@D@std@@@std@@@std@@MBE?AV?$istreambuf_iterator@DU?$char_traits@D@std@@@2@V32@0AAVios_base@2@AAHAAM@Z 005b6bc0 f i libcpmtd:locale.obj
 0001:001b5cd0       ?do_get@?$num_get@DV?$istreambuf_iterator@DU?$char_traits@D@std@@@std@@@std@@MBE?AV?$istreambuf_iterator@DU?$char_traits@D@std@@@2@V32@0AAVios_base@2@AAHAAN@Z 005b6cd0 f i libcpmtd:locale.obj
 0001:001b5de0       ?do_get@?$num_get@DV?$istreambuf_iterator@DU?$char_traits@D@std@@@std@@@std@@MBE?AV?$istreambuf_iterator@DU?$char_traits@D@std@@@2@V32@0AAVios_base@2@AAHAAO@Z 005b6de0 f i libcpmtd:locale.obj
 0001:001b5ef0       ?do_get@?$num_get@DV?$istreambuf_iterator@DU?$char_traits@D@std@@@std@@@std@@MBE?AV?$istreambuf_iterator@DU?$char_traits@D@std@@@2@V32@0AAVios_base@2@AAHAAPAX@Z 005b6ef0 f i libcpmtd:locale.obj
 0001:001b6060       ?do_get@?$num_get@DV?$istreambuf_iterator@DU?$char_traits@D@std@@@std@@@std@@MBE?AV?$istreambuf_iterator@DU?$char_traits@D@std@@@2@V32@0AAVios_base@2@AAHAA_J@Z 005b7060 f i libcpmtd:locale.obj
 0001:001b61a0       ?do_get@?$num_get@DV?$istreambuf_iterator@DU?$char_traits@D@std@@@std@@@std@@MBE?AV?$istreambuf_iterator@DU?$char_traits@D@std@@@2@V32@0AAVios_base@2@AAHAA_K@Z 005b71a0 f i libcpmtd:locale.obj
 0001:001b62e0       ?do_get@?$num_get@DV?$istreambuf_iterator@DU?$char_traits@D@std@@@std@@@std@@MBE?AV?$istreambuf_iterator@DU?$char_traits@D@std@@@2@V32@0AAVios_base@2@AAHAA_N@Z 005b72e0 f i libcpmtd:locale.obj
 0001:001b65d0       ?equal@?$istreambuf_iterator@DU?$char_traits@D@std@@@std@@QBE_NABV12@@Z 005b75d0 f i libcpmtd:locale.obj
 0001:001b6640       ?global@locale@std@@SA?AV12@ABV12@@Z 005b7640 f   libcpmtd:locale.obj
 0001:001b67a0       _ldexpf                    005b77a0 f i libcpmtd:locale.obj
 0001:001b67d0       _ldexpl                    005b77d0 f i libcpmtd:locale.obj
 0001:001b67f0       __Tss_create               005b77f0 f   libcpmtd:tss.obj
 0001:001b6820       __Tss_delete               005b7820 f   libcpmtd:tss.obj
 0001:001b6890       __Tss_destroy              005b7890 f   libcpmtd:tss.obj
 0001:001b6970       __Tss_get                  005b7970 f   libcpmtd:tss.obj
 0001:001b69b0       __Tss_set                  005b79b0 f   libcpmtd:tss.obj
 0001:001b6c80       ??_G_Condition_variable@details@Concurrency@@QAEPAXI@Z 005b7c80 f i libcpmtd:cond.obj
 0001:001b6da0       __Cnd_broadcast            005b7da0 f   libcpmtd:cond.obj
 0001:001b6dc0       __Cnd_destroy              005b7dc0 f   libcpmtd:cond.obj
 0001:001b6df0       __Cnd_init                 005b7df0 f   libcpmtd:cond.obj
 0001:001b6e70       __Cnd_signal               005b7e70 f   libcpmtd:cond.obj
 0001:001b6e90       __Cnd_timedwait            005b7e90 f   libcpmtd:cond.obj
 0001:001b6eb0       __Cnd_wait                 005b7eb0 f   libcpmtd:cond.obj
 0001:001b6ed0       __Cnd_do_broadcast_at_thread_exit 005b7ed0 f   libcpmtd:xnotify.obj
 0001:001b7020       __Cnd_register_at_thread_exit 005b8020 f   libcpmtd:xnotify.obj
 0001:001b7160       __Cnd_unregister_at_thread_exit 005b8160 f   libcpmtd:xnotify.obj
 0001:001b7280       ??$?8GG@std@@YA_NABV?$allocator@G@0@0@Z 005b8280 f i libcpmtd:wlocale.obj
 0001:001b7290       ??$?8GU?$char_traits@G@std@@@std@@YA_NABV?$istreambuf_iterator@GU?$char_traits@G@std@@@0@0@Z 005b8290 f i libcpmtd:wlocale.obj
 0001:001b72b0       ??$?8V?$allocator@G@std@@V01@@std@@YA_NABU?$_Wrap_alloc@V?$allocator@G@std@@@0@0@Z 005b82b0 f i libcpmtd:wlocale.obj
 0001:001b72e0       ??$?8V?$allocator@_W@std@@V01@@std@@YA_NABU?$_Wrap_alloc@V?$allocator@_W@std@@@0@0@Z 005b82e0 f i libcpmtd:wlocale.obj
 0001:001b7310       ??$?8_WU?$char_traits@_W@std@@@std@@YA_NABV?$istreambuf_iterator@_WU?$char_traits@_W@std@@@0@0@Z 005b8310 f i libcpmtd:wlocale.obj
 0001:001b7330       ??$?8_W_W@std@@YA_NABV?$allocator@_W@0@0@Z 005b8330 f i libcpmtd:wlocale.obj
 0001:001b7340       ??$?9GG@std@@YA_NABV?$allocator@G@0@0@Z 005b8340 f i libcpmtd:wlocale.obj
 0001:001b7380       ??$?9GU?$char_traits@G@std@@@std@@YA_NABV?$istreambuf_iterator@GU?$char_traits@G@std@@@0@0@Z 005b8380 f i libcpmtd:wlocale.obj
 0001:001b73c0       ??$?9V?$allocator@G@std@@V01@@std@@YA_NABU?$_Wrap_alloc@V?$allocator@G@std@@@0@0@Z 005b83c0 f i libcpmtd:wlocale.obj
 0001:001b7400       ??$?9V?$allocator@_W@std@@V01@@std@@YA_NABU?$_Wrap_alloc@V?$allocator@_W@std@@@0@0@Z 005b8400 f i libcpmtd:wlocale.obj
 0001:001b7440       ??$?9_WU?$char_traits@_W@std@@@std@@YA_NABV?$istreambuf_iterator@_WU?$char_traits@_W@std@@@0@0@Z 005b8440 f i libcpmtd:wlocale.obj
 0001:001b7480       ??$?9_W_W@std@@YA_NABV?$allocator@_W@0@0@Z 005b8480 f i libcpmtd:wlocale.obj
 0001:001b74c0       ??$_Allocate@G@std@@YAPAGIPAG@Z 005b84c0 f i libcpmtd:wlocale.obj
 0001:001b7500       ??$_Allocate@_W@std@@YAPA_WIPA_W@Z 005b8500 f i libcpmtd:wlocale.obj
 0001:001b7540       ??$_Copy_impl@PA_WV?$ostreambuf_iterator@GU?$char_traits@G@std@@@std@@@std@@YA?AV?$ostreambuf_iterator@GU?$char_traits@G@std@@@0@PA_W0V10@@Z 005b8540 f i libcpmtd:wlocale.obj
 0001:001b7580       ??$_Copy_impl@PA_WV?$ostreambuf_iterator@GU?$char_traits@G@std@@@std@@@std@@YA?AV?$ostreambuf_iterator@GU?$char_traits@G@std@@@0@PA_W0V10@U?$integral_constant@_N$00@0@@Z 005b8580 f i libcpmtd:wlocale.obj
 0001:001b75e0       ??$_Copy_impl@PA_WV?$ostreambuf_iterator@GU?$char_traits@G@std@@@std@@@std@@YA?AV?$ostreambuf_iterator@GU?$char_traits@G@std@@@0@PA_W0V10@U_Nonscalar_ptr_iterator_tag@0@@Z 005b85e0 f i libcpmtd:wlocale.obj
 0001:001b7630       ??$_Copy_impl@PA_WV?$ostreambuf_iterator@GU?$char_traits@G@std@@@std@@@std@@YA?AV?$ostreambuf_iterator@GU?$char_traits@G@std@@@0@PA_W0V10@Uinput_iterator_tag@0@U_Mutable_iterator_tag@0@@Z 005b8630 f i libcpmtd:wlocale.obj
 0001:001b7660       ??$_Copy_impl@PA_WV?$ostreambuf_iterator@_WU?$char_traits@_W@std@@@std@@@std@@YA?AV?$ostreambuf_iterator@_WU?$char_traits@_W@std@@@0@PA_W0V10@@Z 005b8660 f i libcpmtd:wlocale.obj
 0001:001b76a0       ??$_Copy_impl@PA_WV?$ostreambuf_iterator@_WU?$char_traits@_W@std@@@std@@@std@@YA?AV?$ostreambuf_iterator@_WU?$char_traits@_W@std@@@0@PA_W0V10@U?$integral_constant@_N$00@0@@Z 005b86a0 f i libcpmtd:wlocale.obj
 0001:001b7700       ??$_Copy_impl@PA_WV?$ostreambuf_iterator@_WU?$char_traits@_W@std@@@std@@@std@@YA?AV?$ostreambuf_iterator@_WU?$char_traits@_W@std@@@0@PA_W0V10@U_Nonscalar_ptr_iterator_tag@0@@Z 005b8700 f i libcpmtd:wlocale.obj
 0001:001b7750       ??$_Copy_impl@PA_WV?$ostreambuf_iterator@_WU?$char_traits@_W@std@@@std@@@std@@YA?AV?$ostreambuf_iterator@_WU?$char_traits@_W@std@@@0@PA_W0V10@Uinput_iterator_tag@0@U_Mutable_iterator_tag@0@@Z 005b8750 f i libcpmtd:wlocale.obj
 0001:001b7780       ??$_Debug_pointer@F@std@@YAXPAFPB_WI@Z 005b8780 f i libcpmtd:wlocale.obj
 0001:001b77a0       ??$_Debug_pointer@G@std@@YAXPAGPB_WI@Z 005b87a0 f i libcpmtd:wlocale.obj
 0001:001b77c0       ??$_Debug_pointer@G@std@@YAXPBGPB_WI@Z 005b87c0 f i libcpmtd:wlocale.obj
 0001:001b77e0       ??$_Debug_pointer@Utm@@@std@@YAXPAUtm@@PB_WI@Z 005b87e0 f i libcpmtd:wlocale.obj
 0001:001b7800       ??$_Debug_pointer@Utm@@@std@@YAXPBUtm@@PB_WI@Z 005b8800 f i libcpmtd:wlocale.obj
 0001:001b7820       ??$_Debug_pointer@V?$ostreambuf_iterator@GU?$char_traits@G@std@@@std@@@std@@YAXAAV?$ostreambuf_iterator@GU?$char_traits@G@std@@@0@PB_WI@Z 005b8820 f i libcpmtd:wlocale.obj
 0001:001b7830       ??$_Debug_pointer@V?$ostreambuf_iterator@_WU?$char_traits@_W@std@@@std@@@std@@YAXAAV?$ostreambuf_iterator@_WU?$char_traits@_W@std@@@0@PB_WI@Z 005b8830 f i libcpmtd:wlocale.obj
 0001:001b7840       ??$_Debug_pointer@_W@std@@YAXPA_WPB_WI@Z 005b8840 f i libcpmtd:wlocale.obj
 0001:001b7860       ??$_Debug_pointer@_W@std@@YAXPB_W0I@Z 005b8860 f i libcpmtd:wlocale.obj
 0001:001b7880       ??$_Debug_range2@PAD@std@@YAXPAD0PB_WIUrandom_access_iterator_tag@0@@Z 005b8880 f i libcpmtd:wlocale.obj
 0001:001b78e0       ??$_Debug_range2@PAG@std@@YAXPAG0PB_WIUrandom_access_iterator_tag@0@@Z 005b88e0 f i libcpmtd:wlocale.obj
 0001:001b7940       ??$_Debug_range2@PA_W@std@@YAXPA_W0PB_WIUrandom_access_iterator_tag@0@@Z 005b8940 f i libcpmtd:wlocale.obj
 0001:001b79a0       ??$_Debug_range2@PBG@std@@YAXPBG0PB_WIUrandom_access_iterator_tag@0@@Z 005b89a0 f i libcpmtd:wlocale.obj
 0001:001b7a00       ??$_Debug_range2@PB_W@std@@YAXPB_W00IUrandom_access_iterator_tag@0@@Z 005b8a00 f i libcpmtd:wlocale.obj
 0001:001b7a60       ??$_Debug_range2@V?$istreambuf_iterator@GU?$char_traits@G@std@@@std@@@std@@YAXV?$istreambuf_iterator@GU?$char_traits@G@std@@@0@0PB_WIUinput_iterator_tag@0@@Z 005b8a60 f i libcpmtd:wlocale.obj
 0001:001b7a90       ??$_Debug_range2@V?$istreambuf_iterator@_WU?$char_traits@_W@std@@@std@@@std@@YAXV?$istreambuf_iterator@_WU?$char_traits@_W@std@@@0@0PB_WIUinput_iterator_tag@0@@Z 005b8a90 f i libcpmtd:wlocale.obj
 0001:001b7ac0       ??$_Debug_range@PAD@std@@YAXPAD0PB_WI@Z 005b8ac0 f i libcpmtd:wlocale.obj
 0001:001b7b00       ??$_Debug_range@PAG@std@@YAXPAG0PB_WI@Z 005b8b00 f i libcpmtd:wlocale.obj
 0001:001b7b40       ??$_Debug_range@PA_W@std@@YAXPA_W0PB_WI@Z 005b8b40 f i libcpmtd:wlocale.obj
 0001:001b7b80       ??$_Debug_range@PBG@std@@YAXPBG0PB_WI@Z 005b8b80 f i libcpmtd:wlocale.obj
 0001:001b7bc0       ??$_Debug_range@PB_W@std@@YAXPB_W00I@Z 005b8bc0 f i libcpmtd:wlocale.obj
 0001:001b7c00       ??$_Debug_range@V?$istreambuf_iterator@GU?$char_traits@G@std@@@std@@@std@@YAXV?$istreambuf_iterator@GU?$char_traits@G@std@@@0@0PB_WI@Z 005b8c00 f i libcpmtd:wlocale.obj
 0001:001b7c40       ??$_Debug_range@V?$istreambuf_iterator@_WU?$char_traits@_W@std@@@std@@@std@@YAXV?$istreambuf_iterator@_WU?$char_traits@_W@std@@@0@0PB_WI@Z 005b8c40 f i libcpmtd:wlocale.obj
 0001:001b7c80       ??$_Find_elem@G@std@@YAIPAGG@Z 005b8c80 f i libcpmtd:wlocale.obj
 0001:001b7cc0       ??$_Find_elem@_W@std@@YAIPA_W_W@Z 005b8cc0 f i libcpmtd:wlocale.obj
 0001:001b7d00       ??$_Getloctxt@DV?$istreambuf_iterator@GU?$char_traits@G@std@@@std@@@std@@YAHAAV?$istreambuf_iterator@GU?$char_traits@G@std@@@0@0IPBD@Z 005b8d00 f i libcpmtd:wlocale.obj
 0001:001b7f50       ??$_Getloctxt@DV?$istreambuf_iterator@_WU?$char_traits@_W@std@@@std@@@std@@YAHAAV?$istreambuf_iterator@_WU?$char_traits@_W@std@@@0@0IPBD@Z 005b8f50 f i libcpmtd:wlocale.obj
 0001:001b81a0       ??$_Getloctxt@GV?$istreambuf_iterator@GU?$char_traits@G@std@@@std@@@std@@YAHAAV?$istreambuf_iterator@GU?$char_traits@G@std@@@0@0IPBG@Z 005b91a0 f i libcpmtd:wlocale.obj
 0001:001b8400       ??$_Getloctxt@_WV?$istreambuf_iterator@_WU?$char_traits@_W@std@@@std@@@std@@YAHAAV?$istreambuf_iterator@_WU?$char_traits@_W@std@@@0@0IPB_W@Z 005b9400 f i libcpmtd:wlocale.obj
 0001:001b8660       ??$_Getvals@G@?$_Mpunct@G@std@@IAEXGPBUlconv@@@Z 005b9660 f i libcpmtd:wlocale.obj
 0001:001b8780       ??$_Getvals@G@?$numpunct@G@std@@IAEXGPBUlconv@@U_Cvtvec@@@Z 005b9780 f i libcpmtd:wlocale.obj
 0001:001b87e0       ??$_Getvals@G@?$time_get@GV?$istreambuf_iterator@GU?$char_traits@G@std@@@std@@@std@@IAEXGABV_Locinfo@1@@Z 005b97e0 f i libcpmtd:wlocale.obj
 0001:001b8880       ??$_Getvals@_W@?$_Mpunct@_W@std@@IAEX_WPBUlconv@@@Z 005b9880 f i libcpmtd:wlocale.obj
 0001:001b8960       ??$_Getvals@_W@?$numpunct@_W@std@@IAEX_WPBUlconv@@U_Cvtvec@@@Z 005b9960 f i libcpmtd:wlocale.obj
 0001:001b89a0       ??$_Getvals@_W@?$time_get@_WV?$istreambuf_iterator@_WU?$char_traits@_W@std@@@std@@@std@@IAEX_WABV_Locinfo@1@@Z 005b99a0 f i libcpmtd:wlocale.obj
 0001:001b8a30       ??$_Is_checked@V?$ostreambuf_iterator@GU?$char_traits@G@std@@@std@@@std@@YA?AU?$integral_constant@_N$00@0@V?$ostreambuf_iterator@GU?$char_traits@G@std@@@0@@Z 005b9a30 f i libcpmtd:wlocale.obj
 0001:001b8a40       ??$_Is_checked@V?$ostreambuf_iterator@_WU?$char_traits@_W@std@@@std@@@std@@YA?AU?$integral_constant@_N$00@0@V?$ostreambuf_iterator@_WU?$char_traits@_W@std@@@0@@Z 005b9a40 f i libcpmtd:wlocale.obj
 0001:001b8a50       ??$_Iter_cat@PAD@std@@YA?AUrandom_access_iterator_tag@0@ABQAD@Z 005b9a50 f i libcpmtd:wlocale.obj
 0001:001b8a70       ??$_Iter_cat@PAG@std@@YA?AUrandom_access_iterator_tag@0@ABQAG@Z 005b9a70 f i libcpmtd:wlocale.obj
 0001:001b8a90       ??$_Iter_cat@PA_W@std@@YA?AUrandom_access_iterator_tag@0@ABQA_W@Z 005b9a90 f i libcpmtd:wlocale.obj
 0001:001b8ab0       ??$_Iter_cat@PBG@std@@YA?AUrandom_access_iterator_tag@0@ABQBG@Z 005b9ab0 f i libcpmtd:wlocale.obj
 0001:001b8ad0       ??$_Iter_cat@PB_W@std@@YA?AUrandom_access_iterator_tag@0@ABQB_W@Z 005b9ad0 f i libcpmtd:wlocale.obj
 0001:001b8af0       ??$_Iter_cat@V?$istreambuf_iterator@GU?$char_traits@G@std@@@std@@@std@@YA?AUinput_iterator_tag@0@ABV?$istreambuf_iterator@GU?$char_traits@G@std@@@0@@Z 005b9af0 f i libcpmtd:wlocale.obj
 0001:001b8b00       ??$_Iter_cat@V?$istreambuf_iterator@_WU?$char_traits@_W@std@@@std@@@std@@YA?AUinput_iterator_tag@0@ABV?$istreambuf_iterator@_WU?$char_traits@_W@std@@@0@@Z 005b9b00 f i libcpmtd:wlocale.obj
 0001:001b8b10       ??$_Iter_cat@V?$ostreambuf_iterator@GU?$char_traits@G@std@@@std@@@std@@YA?AUoutput_iterator_tag@0@ABV?$ostreambuf_iterator@GU?$char_traits@G@std@@@0@@Z 005b9b10 f i libcpmtd:wlocale.obj
 0001:001b8b20       ??$_Iter_cat@V?$ostreambuf_iterator@_WU?$char_traits@_W@std@@@std@@@std@@YA?AUoutput_iterator_tag@0@ABV?$ostreambuf_iterator@_WU?$char_traits@_W@std@@@0@@Z 005b9b20 f i libcpmtd:wlocale.obj
 0001:001b8b30       ??$_LStrcoll@G@std@@YAHPBG000PBU_Collvec@@@Z 005b9b30 f i libcpmtd:wlocale.obj
 0001:001b8bc0       ??$_LStrcoll@_W@std@@YAHPB_W000PBU_Collvec@@@Z 005b9bc0 f i libcpmtd:wlocale.obj
 0001:001b8bf0       ??$_LStrxfrm@G@std@@YAIPAG0PBG1PBU_Collvec@@@Z 005b9bf0 f i libcpmtd:wlocale.obj
 0001:001b8c40       ??$_LStrxfrm@_W@std@@YAIPA_W0PB_W1PBU_Collvec@@@Z 005b9c40 f i libcpmtd:wlocale.obj
 0001:001b8c70       ??$_Maklocchr@G@std@@YAGDPAGABU_Cvtvec@@@Z 005b9c70 f i libcpmtd:wlocale.obj
 0001:001b8cb0       ??$_Maklocchr@_W@std@@YA_WDPA_WABU_Cvtvec@@@Z 005b9cb0 f i libcpmtd:wlocale.obj
 0001:001b8cf0       ??$_Maklocstr@G@std@@YAPAGPBDPAGABU_Cvtvec@@@Z 005b9cf0 f i libcpmtd:wlocale.obj
 0001:001b8e20       ??$_Maklocstr@_W@std@@YAPA_WPBDPA_WABU_Cvtvec@@@Z 005b9e20 f i libcpmtd:wlocale.obj
 0001:001b8f50       ??$_Ptr_cat@PA_WV?$ostreambuf_iterator@GU?$char_traits@G@std@@@std@@@std@@YA?AU_Nonscalar_ptr_iterator_tag@0@AAPA_WAAV?$ostreambuf_iterator@GU?$char_traits@G@std@@@0@@Z 005b9f50 f i libcpmtd:wlocale.obj
 0001:001b8f60       ??$_Ptr_cat@PA_WV?$ostreambuf_iterator@_WU?$char_traits@_W@std@@@std@@@std@@YA?AU_Nonscalar_ptr_iterator_tag@0@AAPA_WAAV?$ostreambuf_iterator@_WU?$char_traits@_W@std@@@0@@Z 005b9f60 f i libcpmtd:wlocale.obj
 0001:001b8f70       ??$_Unchecked@PA_W@std@@YAPA_WPA_W@Z 005b9f70 f i libcpmtd:wlocale.obj
 0001:001b8f80       ??$addressof@G@std@@YAPAGAAG@Z 005b9f80 f i libcpmtd:wlocale.obj
 0001:001b8f90       ??$addressof@_W@std@@YAPA_WAA_W@Z 005b9f90 f i libcpmtd:wlocale.obj
 0001:001b8fa0       ??$assign@V?$_String_iterator@V?$_String_val@U?$_Simple_types@G@std@@@std@@@std@@@?$basic_string@GU?$char_traits@G@std@@V?$allocator@G@2@@std@@QAEAAV01@V?$_String_iterator@V?$_String_val@U?$_Simple_types@G@std@@@std@@@1@0@Z 005b9fa0 f i libcpmtd:wlocale.obj
 0001:001b90d0       ??$assign@V?$_String_iterator@V?$_String_val@U?$_Simple_types@_W@std@@@std@@@std@@@?$basic_string@_WU?$char_traits@_W@std@@V?$allocator@_W@2@@std@@QAEAAV01@V?$_String_iterator@V?$_String_val@U?$_Simple_types@_W@std@@@std@@@1@0@Z 005ba0d0 f i libcpmtd:wlocale.obj
 0001:001b9200       ??$construct@PAGAAPAG@?$_Wrap_alloc@V?$allocator@G@std@@@std@@QAEXPAPAGAAPAG@Z 005ba200 f i libcpmtd:wlocale.obj
 0001:001b9230       ??$construct@PAGAAPAG@?$allocator@G@std@@QAEXPAPAGAAPAG@Z 005ba230 f i libcpmtd:wlocale.obj
 0001:001b92c0       ??$construct@PAGAAPAG@?$allocator_traits@V?$allocator@G@std@@@std@@SAXAAV?$allocator@G@1@PAPAGAAPAG@Z 005ba2c0 f i libcpmtd:wlocale.obj
 0001:001b92e0       ??$construct@PA_WAAPA_W@?$_Wrap_alloc@V?$allocator@_W@std@@@std@@QAEXPAPA_WAAPA_W@Z 005ba2e0 f i libcpmtd:wlocale.obj
 0001:001b9310       ??$construct@PA_WAAPA_W@?$allocator@_W@std@@QAEXPAPA_WAAPA_W@Z 005ba310 f i libcpmtd:wlocale.obj
 0001:001b93a0       ??$construct@PA_WAAPA_W@?$allocator_traits@V?$allocator@_W@std@@@std@@SAXAAV?$allocator@_W@1@PAPA_WAAPA_W@Z 005ba3a0 f i libcpmtd:wlocale.obj
 0001:001b93c0       ??$copy@PA_WV?$ostreambuf_iterator@GU?$char_traits@G@std@@@std@@@std@@YA?AV?$ostreambuf_iterator@GU?$char_traits@G@std@@@0@PA_W0V10@@Z 005ba3c0 f i libcpmtd:wlocale.obj
 0001:001b9460       ??$copy@PA_WV?$ostreambuf_iterator@_WU?$char_traits@_W@std@@@std@@@std@@YA?AV?$ostreambuf_iterator@_WU?$char_traits@_W@std@@@0@PA_W0V10@@Z 005ba460 f i libcpmtd:wlocale.obj
 0001:001b9500       ??$destroy@PAG@?$_Wrap_alloc@V?$allocator@G@std@@@std@@QAEXPAPAG@Z 005ba500 f i libcpmtd:wlocale.obj
 0001:001b9520       ??$destroy@PAG@?$allocator@G@std@@QAEXPAPAG@Z 005ba520 f i libcpmtd:wlocale.obj
 0001:001b9530       ??$destroy@PAG@?$allocator_traits@V?$allocator@G@std@@@std@@SAXAAV?$allocator@G@1@PAPAG@Z 005ba530 f i libcpmtd:wlocale.obj
 0001:001b9550       ??$destroy@PA_W@?$_Wrap_alloc@V?$allocator@_W@std@@@std@@QAEXPAPA_W@Z 005ba550 f i libcpmtd:wlocale.obj
 0001:001b9570       ??$destroy@PA_W@?$allocator@_W@std@@QAEXPAPA_W@Z 005ba570 f i libcpmtd:wlocale.obj
 0001:001b9580       ??$destroy@PA_W@?$allocator_traits@V?$allocator@_W@std@@@std@@SAXAAV?$allocator@_W@1@PAPA_W@Z 005ba580 f i libcpmtd:wlocale.obj
 0001:001b95a0       ??$forward@AAPAG@std@@YAAAPAGAAPAG@Z 005ba5a0 f i libcpmtd:wlocale.obj
 0001:001b95b0       ??$forward@AAPA_W@std@@YAAAPA_WAAPA_W@Z 005ba5b0 f i libcpmtd:wlocale.obj
 0001:001b95c0       ??$forward@V?$basic_string@GU?$char_traits@G@std@@V?$allocator@G@2@@std@@@std@@YA$$QAV?$basic_string@GU?$char_traits@G@std@@V?$allocator@G@2@@0@AAV10@@Z 005ba5c0 f i libcpmtd:wlocale.obj
 0001:001b95d0       ??$forward@V?$basic_string@_WU?$char_traits@_W@std@@V?$allocator@_W@2@@std@@@std@@YA$$QAV?$basic_string@_WU?$char_traits@_W@std@@V?$allocator@_W@2@@0@AAV10@@Z 005ba5d0 f i libcpmtd:wlocale.obj
 0001:001b95e0       ??$use_facet@V?$codecvt@GDH@std@@@std@@YAABV?$codecvt@GDH@0@ABVlocale@0@@Z 005ba5e0 f i libcpmtd:wlocale.obj
 0001:001b96e0       ??$use_facet@V?$codecvt@_WDH@std@@@std@@YAABV?$codecvt@_WDH@0@ABVlocale@0@@Z 005ba6e0 f i libcpmtd:wlocale.obj
 0001:001b97e0       ??$use_facet@V?$collate@G@std@@@std@@YAABV?$collate@G@0@ABVlocale@0@@Z 005ba7e0 f i libcpmtd:wlocale.obj
 0001:001b98e0       ??$use_facet@V?$collate@_W@std@@@std@@YAABV?$collate@_W@0@ABVlocale@0@@Z 005ba8e0 f i libcpmtd:wlocale.obj
 0001:001b99e0       ??$use_facet@V?$ctype@G@std@@@std@@YAABV?$ctype@G@0@ABVlocale@0@@Z 005ba9e0 f i libcpmtd:wlocale.obj
 0001:001b9ae0       ??$use_facet@V?$ctype@_W@std@@@std@@YAABV?$ctype@_W@0@ABVlocale@0@@Z 005baae0 f i libcpmtd:wlocale.obj
 0001:001b9be0       ??$use_facet@V?$messages@G@std@@@std@@YAABV?$messages@G@0@ABVlocale@0@@Z 005babe0 f i libcpmtd:wlocale.obj
 0001:001b9ce0       ??$use_facet@V?$messages@_W@std@@@std@@YAABV?$messages@_W@0@ABVlocale@0@@Z 005bace0 f i libcpmtd:wlocale.obj
 0001:001b9de0       ??$use_facet@V?$money_get@GV?$istreambuf_iterator@GU?$char_traits@G@std@@@std@@@std@@@std@@YAABV?$money_get@GV?$istreambuf_iterator@GU?$char_traits@G@std@@@std@@@0@ABVlocale@0@@Z 005bade0 f i libcpmtd:wlocale.obj
 0001:001b9ee0       ??$use_facet@V?$money_get@_WV?$istreambuf_iterator@_WU?$char_traits@_W@std@@@std@@@std@@@std@@YAABV?$money_get@_WV?$istreambuf_iterator@_WU?$char_traits@_W@std@@@std@@@0@ABVlocale@0@@Z 005baee0 f i libcpmtd:wlocale.obj
 0001:001b9fe0       ??$use_facet@V?$money_put@GV?$ostreambuf_iterator@GU?$char_traits@G@std@@@std@@@std@@@std@@YAABV?$money_put@GV?$ostreambuf_iterator@GU?$char_traits@G@std@@@std@@@0@ABVlocale@0@@Z 005bafe0 f i libcpmtd:wlocale.obj
 0001:001ba0e0       ??$use_facet@V?$money_put@_WV?$ostreambuf_iterator@_WU?$char_traits@_W@std@@@std@@@std@@@std@@YAABV?$money_put@_WV?$ostreambuf_iterator@_WU?$char_traits@_W@std@@@std@@@0@ABVlocale@0@@Z 005bb0e0 f i libcpmtd:wlocale.obj
 0001:001ba1e0       ??$use_facet@V?$moneypunct@G$00@std@@@std@@YAABV?$moneypunct@G$00@0@ABVlocale@0@@Z 005bb1e0 f i libcpmtd:wlocale.obj
 0001:001ba2e0       ??$use_facet@V?$moneypunct@G$0A@@std@@@std@@YAABV?$moneypunct@G$0A@@0@ABVlocale@0@@Z 005bb2e0 f i libcpmtd:wlocale.obj
 0001:001ba3e0       ??$use_facet@V?$moneypunct@_W$00@std@@@std@@YAABV?$moneypunct@_W$00@0@ABVlocale@0@@Z 005bb3e0 f i libcpmtd:wlocale.obj
 0001:001ba4e0       ??$use_facet@V?$moneypunct@_W$0A@@std@@@std@@YAABV?$moneypunct@_W$0A@@0@ABVlocale@0@@Z 005bb4e0 f i libcpmtd:wlocale.obj
 0001:001ba5e0       ??$use_facet@V?$num_get@GV?$istreambuf_iterator@GU?$char_traits@G@std@@@std@@@std@@@std@@YAABV?$num_get@GV?$istreambuf_iterator@GU?$char_traits@G@std@@@std@@@0@ABVlocale@0@@Z 005bb5e0 f i libcpmtd:wlocale.obj
 0001:001ba6e0       ??$use_facet@V?$num_get@_WV?$istreambuf_iterator@_WU?$char_traits@_W@std@@@std@@@std@@@std@@YAABV?$num_get@_WV?$istreambuf_iterator@_WU?$char_traits@_W@std@@@std@@@0@ABVlocale@0@@Z 005bb6e0 f i libcpmtd:wlocale.obj
 0001:001ba7e0       ??$use_facet@V?$num_put@GV?$ostreambuf_iterator@GU?$char_traits@G@std@@@std@@@std@@@std@@YAABV?$num_put@GV?$ostreambuf_iterator@GU?$char_traits@G@std@@@std@@@0@ABVlocale@0@@Z 005bb7e0 f i libcpmtd:wlocale.obj
 0001:001ba8e0       ??$use_facet@V?$num_put@_WV?$ostreambuf_iterator@_WU?$char_traits@_W@std@@@std@@@std@@@std@@YAABV?$num_put@_WV?$ostreambuf_iterator@_WU?$char_traits@_W@std@@@std@@@0@ABVlocale@0@@Z 005bb8e0 f i libcpmtd:wlocale.obj
 0001:001ba9e0       ??$use_facet@V?$numpunct@G@std@@@std@@YAABV?$numpunct@G@0@ABVlocale@0@@Z 005bb9e0 f i libcpmtd:wlocale.obj
 0001:001baae0       ??$use_facet@V?$numpunct@_W@std@@@std@@YAABV?$numpunct@_W@0@ABVlocale@0@@Z 005bbae0 f i libcpmtd:wlocale.obj
 0001:001babe0       ??$use_facet@V?$time_get@GV?$istreambuf_iterator@GU?$char_traits@G@std@@@std@@@std@@@std@@YAABV?$time_get@GV?$istreambuf_iterator@GU?$char_traits@G@std@@@std@@@0@ABVlocale@0@@Z 005bbbe0 f i libcpmtd:wlocale.obj
 0001:001bace0       ??$use_facet@V?$time_get@_WV?$istreambuf_iterator@_WU?$char_traits@_W@std@@@std@@@std@@@std@@YAABV?$time_get@_WV?$istreambuf_iterator@_WU?$char_traits@_W@std@@@std@@@0@ABVlocale@0@@Z 005bbce0 f i libcpmtd:wlocale.obj
 0001:001bade0       ??$use_facet@V?$time_put@GV?$ostreambuf_iterator@GU?$char_traits@G@std@@@std@@@std@@@std@@YAABV?$time_put@GV?$ostreambuf_iterator@GU?$char_traits@G@std@@@std@@@0@ABVlocale@0@@Z 005bbde0 f i libcpmtd:wlocale.obj
 0001:001baee0       ??$use_facet@V?$time_put@_WV?$ostreambuf_iterator@_WU?$char_traits@_W@std@@@std@@@std@@@std@@YAABV?$time_put@_WV?$ostreambuf_iterator@_WU?$char_traits@_W@std@@@std@@@0@ABVlocale@0@@Z 005bbee0 f i libcpmtd:wlocale.obj
 0001:001bafe0       ??0?$_Iterator012@Urandom_access_iterator_tag@std@@GHPBGABGU_Iterator_base12@2@@std@@QAE@ABU01@@Z 005bbfe0 f i libcpmtd:wlocale.obj
 0001:001bb000       ??0?$_Iterator012@Urandom_access_iterator_tag@std@@GHPBGABGU_Iterator_base12@2@@std@@QAE@XZ 005bc000 f i libcpmtd:wlocale.obj
 0001:001bb020       ??0?$_Iterator012@Urandom_access_iterator_tag@std@@_WHPB_WAB_WU_Iterator_base12@2@@std@@QAE@ABU01@@Z 005bc020 f i libcpmtd:wlocale.obj
 0001:001bb040       ??0?$_Iterator012@Urandom_access_iterator_tag@std@@_WHPB_WAB_WU_Iterator_base12@2@@std@@QAE@XZ 005bc040 f i libcpmtd:wlocale.obj
 0001:001bb060       ??0?$_Mpunct@G@std@@QAE@ABV_Locinfo@1@I_N1@Z 005bc060 f i libcpmtd:wlocale.obj
 0001:001bb0e0       ??0?$_Mpunct@_W@std@@QAE@ABV_Locinfo@1@I_N1@Z 005bc0e0 f i libcpmtd:wlocale.obj
 0001:001bb160       ??0?$_String_alloc@$0A@U?$_String_base_types@GV?$allocator@G@std@@@std@@@std@@QAE@ABV?$allocator@G@1@@Z 005bc160 f i libcpmtd:wlocale.obj
 0001:001bb1c0       ??0?$_String_alloc@$0A@U?$_String_base_types@_WV?$allocator@_W@std@@@std@@@std@@QAE@ABV?$allocator@_W@1@@Z 005bc1c0 f i libcpmtd:wlocale.obj
 0001:001bb220       ??0?$_String_const_iterator@V?$_String_val@U?$_Simple_types@G@std@@@std@@@std@@QAE@ABV01@@Z 005bc220 f i libcpmtd:wlocale.obj
 0001:001bb250       ??0?$_String_const_iterator@V?$_String_val@U?$_Simple_types@G@std@@@std@@@std@@QAE@PBGPBU_Container_base12@1@@Z 005bc250 f i libcpmtd:wlocale.obj
 0001:001bb2c0       ??0?$_String_const_iterator@V?$_String_val@U?$_Simple_types@G@std@@@std@@@std@@QAE@XZ 005bc2c0 f i libcpmtd:wlocale.obj
 0001:001bb2e0       ??0?$_String_const_iterator@V?$_String_val@U?$_Simple_types@_W@std@@@std@@@std@@QAE@ABV01@@Z 005bc2e0 f i libcpmtd:wlocale.obj
 0001:001bb310       ??0?$_String_const_iterator@V?$_String_val@U?$_Simple_types@_W@std@@@std@@@std@@QAE@PB_WPBU_Container_base12@1@@Z 005bc310 f i libcpmtd:wlocale.obj
 0001:001bb380       ??0?$_String_const_iterator@V?$_String_val@U?$_Simple_types@_W@std@@@std@@@std@@QAE@XZ 005bc380 f i libcpmtd:wlocale.obj
 0001:001bb3a0       ??0?$_String_iterator@V?$_String_val@U?$_Simple_types@G@std@@@std@@@std@@QAE@ABV01@@Z 005bc3a0 f i libcpmtd:wlocale.obj
 0001:001bb3c0       ??0?$_String_iterator@V?$_String_val@U?$_Simple_types@G@std@@@std@@@std@@QAE@PAGPBU_Container_base12@1@@Z 005bc3c0 f i libcpmtd:wlocale.obj
 0001:001bb3e0       ??0?$_String_iterator@V?$_String_val@U?$_Simple_types@_W@std@@@std@@@std@@QAE@ABV01@@Z 005bc3e0 f i libcpmtd:wlocale.obj
 0001:001bb400       ??0?$_String_iterator@V?$_String_val@U?$_Simple_types@_W@std@@@std@@@std@@QAE@PA_WPBU_Container_base12@1@@Z 005bc400 f i libcpmtd:wlocale.obj
 0001:001bb420       ??0?$_String_val@U?$_Simple_types@G@std@@@std@@QAE@XZ 005bc420 f i libcpmtd:wlocale.obj
 0001:001bb450       ??0?$_String_val@U?$_Simple_types@_W@std@@@std@@QAE@XZ 005bc450 f i libcpmtd:wlocale.obj
 0001:001bb480       ??0?$_Wrap_alloc@V?$allocator@G@std@@@std@@QAE@ABV?$allocator@G@1@@Z 005bc480 f i libcpmtd:wlocale.obj
 0001:001bb4a0       ??0?$_Wrap_alloc@V?$allocator@G@std@@@std@@QAE@XZ 005bc4a0 f i libcpmtd:wlocale.obj
 0001:001bb4c0       ??0?$_Wrap_alloc@V?$allocator@_W@std@@@std@@QAE@ABV?$allocator@_W@1@@Z 005bc4c0 f i libcpmtd:wlocale.obj
 0001:001bb4e0       ??0?$_Wrap_alloc@V?$allocator@_W@std@@@std@@QAE@XZ 005bc4e0 f i libcpmtd:wlocale.obj
 0001:001bb500       ??0?$allocator@G@std@@QAE@ABV01@@Z 005bc500 f i libcpmtd:wlocale.obj
 0001:001bb510       ??0?$allocator@G@std@@QAE@XZ 005bc510 f i libcpmtd:wlocale.obj
 0001:001bb520       ??0?$allocator@_W@std@@QAE@ABV01@@Z 005bc520 f i libcpmtd:wlocale.obj
 0001:001bb530       ??0?$allocator@_W@std@@QAE@XZ 005bc530 f i libcpmtd:wlocale.obj
 0001:001bb540       ??0?$basic_string@GU?$char_traits@G@std@@V?$allocator@G@2@@std@@QAE@$$QAV01@@Z 005bc540 f i libcpmtd:wlocale.obj
 0001:001bb590       ??0?$basic_string@GU?$char_traits@G@std@@V?$allocator@G@2@@std@@QAE@ABV01@@Z 005bc590 f i libcpmtd:wlocale.obj
 0001:001bb620       ??0?$basic_string@GU?$char_traits@G@std@@V?$allocator@G@2@@std@@QAE@IG@Z 005bc620 f i libcpmtd:wlocale.obj
 0001:001bb6a0       ??0?$basic_string@GU?$char_traits@G@std@@V?$allocator@G@2@@std@@QAE@PBG@Z 005bc6a0 f i libcpmtd:wlocale.obj
 0001:001bb720       ??0?$basic_string@GU?$char_traits@G@std@@V?$allocator@G@2@@std@@QAE@PBGI@Z 005bc720 f i libcpmtd:wlocale.obj
 0001:001bb7a0       ??0?$basic_string@GU?$char_traits@G@std@@V?$allocator@G@2@@std@@QAE@XZ 005bc7a0 f i libcpmtd:wlocale.obj
 0001:001bb810       ??0?$basic_string@_WU?$char_traits@_W@std@@V?$allocator@_W@2@@std@@QAE@$$QAV01@@Z 005bc810 f i libcpmtd:wlocale.obj
 0001:001bb860       ??0?$basic_string@_WU?$char_traits@_W@std@@V?$allocator@_W@2@@std@@QAE@ABV01@@Z 005bc860 f i libcpmtd:wlocale.obj
 0001:001bb8f0       ??0?$basic_string@_WU?$char_traits@_W@std@@V?$allocator@_W@2@@std@@QAE@I_W@Z 005bc8f0 f i libcpmtd:wlocale.obj
 0001:001bb970       ??0?$basic_string@_WU?$char_traits@_W@std@@V?$allocator@_W@2@@std@@QAE@PB_W@Z 005bc970 f i libcpmtd:wlocale.obj
 0001:001bb9f0       ??0?$basic_string@_WU?$char_traits@_W@std@@V?$allocator@_W@2@@std@@QAE@PB_WI@Z 005bc9f0 f i libcpmtd:wlocale.obj
 0001:001bba70       ??0?$basic_string@_WU?$char_traits@_W@std@@V?$allocator@_W@2@@std@@QAE@XZ 005bca70 f i libcpmtd:wlocale.obj
 0001:001bbae0       ??0?$codecvt@GDH@std@@QAE@ABV_Locinfo@1@I@Z 005bcae0 f i libcpmtd:wlocale.obj
 0001:001bbb50       ??0?$codecvt@_WDH@std@@QAE@ABV_Locinfo@1@I@Z 005bcb50 f i libcpmtd:wlocale.obj
 0001:001bbbc0       ??0?$collate@G@std@@QAE@ABV_Locinfo@1@I@Z 005bcbc0 f i libcpmtd:wlocale.obj
 0001:001bbc30       ??0?$collate@_W@std@@QAE@ABV_Locinfo@1@I@Z 005bcc30 f i libcpmtd:wlocale.obj
 0001:001bbca0       ??0?$ctype@G@std@@QAE@ABV_Locinfo@1@I@Z 005bcca0 f i libcpmtd:wlocale.obj
 0001:001bbd10       ??0?$ctype@_W@std@@QAE@ABV_Locinfo@1@I@Z 005bcd10 f i libcpmtd:wlocale.obj
 0001:001bbd80       ??0?$messages@G@std@@QAE@ABV_Locinfo@1@I@Z 005bcd80 f i libcpmtd:wlocale.obj
 0001:001bbdf0       ??0?$messages@_W@std@@QAE@ABV_Locinfo@1@I@Z 005bcdf0 f i libcpmtd:wlocale.obj
 0001:001bbe60       ??0?$money_get@GV?$istreambuf_iterator@GU?$char_traits@G@std@@@std@@@std@@QAE@ABV_Locinfo@1@I@Z 005bce60 f i libcpmtd:wlocale.obj
 0001:001bbed0       ??0?$money_get@_WV?$istreambuf_iterator@_WU?$char_traits@_W@std@@@std@@@std@@QAE@ABV_Locinfo@1@I@Z 005bced0 f i libcpmtd:wlocale.obj
 0001:001bbf40       ??0?$money_put@GV?$ostreambuf_iterator@GU?$char_traits@G@std@@@std@@@std@@QAE@ABV_Locinfo@1@I@Z 005bcf40 f i libcpmtd:wlocale.obj
 0001:001bbfb0       ??0?$money_put@_WV?$ostreambuf_iterator@_WU?$char_traits@_W@std@@@std@@@std@@QAE@ABV_Locinfo@1@I@Z 005bcfb0 f i libcpmtd:wlocale.obj
 0001:001bc020       ??0?$moneypunct@G$00@std@@QAE@ABV_Locinfo@1@I_N@Z 005bd020 f i libcpmtd:wlocale.obj
 0001:001bc050       ??0?$moneypunct@G$0A@@std@@QAE@ABV_Locinfo@1@I_N@Z 005bd050 f i libcpmtd:wlocale.obj
 0001:001bc080       ??0?$moneypunct@_W$00@std@@QAE@ABV_Locinfo@1@I_N@Z 005bd080 f i libcpmtd:wlocale.obj
 0001:001bc0b0       ??0?$moneypunct@_W$0A@@std@@QAE@ABV_Locinfo@1@I_N@Z 005bd0b0 f i libcpmtd:wlocale.obj
 0001:001bc0e0       ??0?$num_get@GV?$istreambuf_iterator@GU?$char_traits@G@std@@@std@@@std@@QAE@ABV_Locinfo@1@I@Z 005bd0e0 f i libcpmtd:wlocale.obj
 0001:001bc150       ??0?$num_get@_WV?$istreambuf_iterator@_WU?$char_traits@_W@std@@@std@@@std@@QAE@ABV_Locinfo@1@I@Z 005bd150 f i libcpmtd:wlocale.obj
 0001:001bc1c0       ??0?$num_put@GV?$ostreambuf_iterator@GU?$char_traits@G@std@@@std@@@std@@QAE@ABV_Locinfo@1@I@Z 005bd1c0 f i libcpmtd:wlocale.obj
 0001:001bc230       ??0?$num_put@_WV?$ostreambuf_iterator@_WU?$char_traits@_W@std@@@std@@@std@@QAE@ABV_Locinfo@1@I@Z 005bd230 f i libcpmtd:wlocale.obj
 0001:001bc2a0       ??0?$numpunct@G@std@@QAE@ABV_Locinfo@1@I_N@Z 005bd2a0 f i libcpmtd:wlocale.obj
 0001:001bc310       ??0?$numpunct@_W@std@@QAE@ABV_Locinfo@1@I_N@Z 005bd310 f i libcpmtd:wlocale.obj
 0001:001bc380       ??0?$time_get@GV?$istreambuf_iterator@GU?$char_traits@G@std@@@std@@@std@@QAE@ABV_Locinfo@1@I@Z 005bd380 f i libcpmtd:wlocale.obj
 0001:001bc3f0       ??0?$time_get@_WV?$istreambuf_iterator@_WU?$char_traits@_W@std@@@std@@@std@@QAE@ABV_Locinfo@1@I@Z 005bd3f0 f i libcpmtd:wlocale.obj
 0001:001bc460       ??0?$time_put@GV?$ostreambuf_iterator@GU?$char_traits@G@std@@@std@@@std@@QAE@ABV_Locinfo@1@I@Z 005bd460 f i libcpmtd:wlocale.obj
 0001:001bc4e0       ??0?$time_put@_WV?$ostreambuf_iterator@_WU?$char_traits@_W@std@@@std@@@std@@QAE@ABV_Locinfo@1@I@Z 005bd4e0 f i libcpmtd:wlocale.obj
 0001:001bc560       ??0_Timevec@std@@QAE@PAX@Z 005bd560 f i libcpmtd:wlocale.obj
 0001:001bc580       ??0messages_base@std@@QAE@I@Z 005bd580 f i libcpmtd:wlocale.obj
 0001:001bc5b0       ??0money_base@std@@QAE@I@Z 005bd5b0 f i libcpmtd:wlocale.obj
 0001:001bc5e0       ??0time_base@std@@QAE@I@Z  005bd5e0 f i libcpmtd:wlocale.obj
 0001:001bc610       ??1?$_Iterator012@Urandom_access_iterator_tag@std@@GHPBGABGU_Iterator_base12@2@@std@@QAE@XZ 005bd610 f i libcpmtd:wlocale.obj
 0001:001bc630       ??1?$_Iterator012@Urandom_access_iterator_tag@std@@_WHPB_WAB_WU_Iterator_base12@2@@std@@QAE@XZ 005bd630 f i libcpmtd:wlocale.obj
 0001:001bc650       ??1?$_Mpunct@G@std@@MAE@XZ 005bd650 f i libcpmtd:wlocale.obj
 0001:001bc680       ??1?$_Mpunct@_W@std@@MAE@XZ 005bd680 f i libcpmtd:wlocale.obj
 0001:001bc6b0       ??1?$_String_alloc@$0A@U?$_String_base_types@GV?$allocator@G@std@@@std@@@std@@QAE@XZ 005bd6b0 f i libcpmtd:wlocale.obj
 0001:001bc6d0       ??1?$_String_alloc@$0A@U?$_String_base_types@_WV?$allocator@_W@std@@@std@@@std@@QAE@XZ 005bd6d0 f i libcpmtd:wlocale.obj
 0001:001bc6f0       ??1?$_String_const_iterator@V?$_String_val@U?$_Simple_types@G@std@@@std@@@std@@QAE@XZ 005bd6f0 f i libcpmtd:wlocale.obj
 0001:001bc710       ??1?$_String_const_iterator@V?$_String_val@U?$_Simple_types@_W@std@@@std@@@std@@QAE@XZ 005bd710 f i libcpmtd:wlocale.obj
 0001:001bc730       ??1?$_String_iterator@V?$_String_val@U?$_Simple_types@G@std@@@std@@@std@@QAE@XZ 005bd730 f i libcpmtd:wlocale.obj
 0001:001bc750       ??1?$_String_iterator@V?$_String_val@U?$_Simple_types@_W@std@@@std@@@std@@QAE@XZ 005bd750 f i libcpmtd:wlocale.obj
 0001:001bc770       ??1?$_String_val@U?$_Simple_types@G@std@@@std@@QAE@XZ 005bd770 f i libcpmtd:wlocale.obj
 0001:001bc790       ??1?$_String_val@U?$_Simple_types@_W@std@@@std@@QAE@XZ 005bd790 f i libcpmtd:wlocale.obj
 0001:001bc7b0       ??1?$basic_string@GU?$char_traits@G@std@@V?$allocator@G@2@@std@@QAE@XZ 005bd7b0 f i libcpmtd:wlocale.obj
 0001:001bc7d0       ??1?$basic_string@_WU?$char_traits@_W@std@@V?$allocator@_W@2@@std@@QAE@XZ 005bd7d0 f i libcpmtd:wlocale.obj
 0001:001bc7f0       ??1?$codecvt@GDH@std@@MAE@XZ 005bd7f0 f i libcpmtd:wlocale.obj
 0001:001bc810       ??1?$codecvt@_WDH@std@@MAE@XZ 005bd810 f i libcpmtd:wlocale.obj
 0001:001bc830       ??1?$collate@G@std@@MAE@XZ 005bd830 f i libcpmtd:wlocale.obj
 0001:001bc860       ??1?$collate@_W@std@@MAE@XZ 005bd860 f i libcpmtd:wlocale.obj
 0001:001bc890       ??1?$ctype@G@std@@MAE@XZ   005bd890 f i libcpmtd:wlocale.obj
 0001:001bc8e0       ??1?$ctype@_W@std@@MAE@XZ  005bd8e0 f i libcpmtd:wlocale.obj
 0001:001bc930       ??1?$messages@G@std@@MAE@XZ 005bd930 f i libcpmtd:wlocale.obj
 0001:001bc950       ??1?$messages@_W@std@@MAE@XZ 005bd950 f i libcpmtd:wlocale.obj
 0001:001bc970       ??1?$money_get@GV?$istreambuf_iterator@GU?$char_traits@G@std@@@std@@@std@@MAE@XZ 005bd970 f i libcpmtd:wlocale.obj
 0001:001bc990       ??1?$money_get@_WV?$istreambuf_iterator@_WU?$char_traits@_W@std@@@std@@@std@@MAE@XZ 005bd990 f i libcpmtd:wlocale.obj
 0001:001bc9b0       ??1?$money_put@GV?$ostreambuf_iterator@GU?$char_traits@G@std@@@std@@@std@@MAE@XZ 005bd9b0 f i libcpmtd:wlocale.obj
 0001:001bc9d0       ??1?$money_put@_WV?$ostreambuf_iterator@_WU?$char_traits@_W@std@@@std@@@std@@MAE@XZ 005bd9d0 f i libcpmtd:wlocale.obj
 0001:001bc9f0       ??1?$moneypunct@G$00@std@@MAE@XZ 005bd9f0 f i libcpmtd:wlocale.obj
 0001:001bca10       ??1?$moneypunct@G$0A@@std@@MAE@XZ 005bda10 f i libcpmtd:wlocale.obj
 0001:001bca30       ??1?$moneypunct@_W$00@std@@MAE@XZ 005bda30 f i libcpmtd:wlocale.obj
 0001:001bca50       ??1?$moneypunct@_W$0A@@std@@MAE@XZ 005bda50 f i libcpmtd:wlocale.obj
 0001:001bca70       ??1?$num_get@GV?$istreambuf_iterator@GU?$char_traits@G@std@@@std@@@std@@MAE@XZ 005bda70 f i libcpmtd:wlocale.obj
 0001:001bca90       ??1?$num_get@_WV?$istreambuf_iterator@_WU?$char_traits@_W@std@@@std@@@std@@MAE@XZ 005bda90 f i libcpmtd:wlocale.obj
 0001:001bcab0       ??1?$num_put@GV?$ostreambuf_iterator@GU?$char_traits@G@std@@@std@@@std@@MAE@XZ 005bdab0 f i libcpmtd:wlocale.obj
 0001:001bcad0       ??1?$num_put@_WV?$ostreambuf_iterator@_WU?$char_traits@_W@std@@@std@@@std@@MAE@XZ 005bdad0 f i libcpmtd:wlocale.obj
 0001:001bcaf0       ??1?$numpunct@G@std@@MAE@XZ 005bdaf0 f i libcpmtd:wlocale.obj
 0001:001bcb20       ??1?$numpunct@_W@std@@MAE@XZ 005bdb20 f i libcpmtd:wlocale.obj
 0001:001bcb50       ??1?$time_get@GV?$istreambuf_iterator@GU?$char_traits@G@std@@@std@@@std@@MAE@XZ 005bdb50 f i libcpmtd:wlocale.obj
 0001:001bcb80       ??1?$time_get@_WV?$istreambuf_iterator@_WU?$char_traits@_W@std@@@std@@@std@@MAE@XZ 005bdb80 f i libcpmtd:wlocale.obj
 0001:001bcbb0       ??1?$time_put@GV?$ostreambuf_iterator@GU?$char_traits@G@std@@@std@@@std@@MAE@XZ 005bdbb0 f i libcpmtd:wlocale.obj
 0001:001bcbe0       ??1?$time_put@_WV?$ostreambuf_iterator@_WU?$char_traits@_W@std@@@std@@@std@@MAE@XZ 005bdbe0 f i libcpmtd:wlocale.obj
 0001:001bcc10       ??1_Timevec@std@@QAE@XZ    005bdc10 f i libcpmtd:wlocale.obj
 0001:001bcc30       ??1messages_base@std@@UAE@XZ 005bdc30 f i libcpmtd:wlocale.obj
 0001:001bcc50       ??1money_base@std@@UAE@XZ  005bdc50 f i libcpmtd:wlocale.obj
 0001:001bcc70       ??1time_base@std@@UAE@XZ   005bdc70 f i libcpmtd:wlocale.obj
 0001:001bcc90       ??4?$_Iterator012@Urandom_access_iterator_tag@std@@GHPBGABGU_Iterator_base12@2@@std@@QAEAAU01@ABU01@@Z 005bdc90 f i libcpmtd:wlocale.obj
 0001:001bccb0       ??4?$_Iterator012@Urandom_access_iterator_tag@std@@_WHPB_WAB_WU_Iterator_base12@2@@std@@QAEAAU01@ABU01@@Z 005bdcb0 f i libcpmtd:wlocale.obj
 0001:001bccd0       ??4?$_String_const_iterator@V?$_String_val@U?$_Simple_types@G@std@@@std@@@std@@QAEAAV01@ABV01@@Z 005bdcd0 f i libcpmtd:wlocale.obj
 0001:001bcd00       ??4?$_String_const_iterator@V?$_String_val@U?$_Simple_types@_W@std@@@std@@@std@@QAEAAV01@ABV01@@Z 005bdd00 f i libcpmtd:wlocale.obj
 0001:001bcd30       ??4?$_Yarn@_W@std@@QAEAAV01@PB_W@Z 005bdd30 f i libcpmtd:wlocale.obj
 0001:001bcdd0       ??4?$basic_string@GU?$char_traits@G@std@@V?$allocator@G@2@@std@@QAEAAV01@$$QAV01@@Z 005bddd0 f i libcpmtd:wlocale.obj
 0001:001bce80       ??4?$basic_string@GU?$char_traits@G@std@@V?$allocator@G@2@@std@@QAEAAV01@ABV01@@Z 005bde80 f i libcpmtd:wlocale.obj
 0001:001bcf00       ??4?$basic_string@_WU?$char_traits@_W@std@@V?$allocator@_W@2@@std@@QAEAAV01@$$QAV01@@Z 005bdf00 f i libcpmtd:wlocale.obj
 0001:001bcfb0       ??4?$basic_string@_WU?$char_traits@_W@std@@V?$allocator@_W@2@@std@@QAEAAV01@ABV01@@Z 005bdfb0 f i libcpmtd:wlocale.obj
 0001:001bd030       ??4?$ostreambuf_iterator@GU?$char_traits@G@std@@@std@@QAEAAV01@G@Z 005be030 f i libcpmtd:wlocale.obj
 0001:001bd090       ??4?$ostreambuf_iterator@_WU?$char_traits@_W@std@@@std@@QAEAAV01@_W@Z 005be090 f i libcpmtd:wlocale.obj
 0001:001bd0f0       ??4_Timevec@std@@QAEAAV01@ABV01@@Z 005be0f0 f i libcpmtd:wlocale.obj
 0001:001bd120       ??8?$_String_const_iterator@V?$_String_val@U?$_Simple_types@G@std@@@std@@@std@@QBE_NABV01@@Z 005be120 f i libcpmtd:wlocale.obj
 0001:001bd160       ??8?$_String_const_iterator@V?$_String_val@U?$_Simple_types@_W@std@@@std@@@std@@QBE_NABV01@@Z 005be160 f i libcpmtd:wlocale.obj
 0001:001bd1a0       ??9?$_String_const_iterator@V?$_String_val@U?$_Simple_types@G@std@@@std@@@std@@QBE_NABV01@@Z 005be1a0 f i libcpmtd:wlocale.obj
 0001:001bd1e0       ??9?$_String_const_iterator@V?$_String_val@U?$_Simple_types@_W@std@@@std@@@std@@QBE_NABV01@@Z 005be1e0 f i libcpmtd:wlocale.obj
 0001:001bd220       ??A?$basic_string@GU?$char_traits@G@std@@V?$allocator@G@2@@std@@QAEAAGI@Z 005be220 f i libcpmtd:wlocale.obj
 0001:001bd260       ??A?$basic_string@GU?$char_traits@G@std@@V?$allocator@G@2@@std@@QBEABGI@Z 005be260 f i libcpmtd:wlocale.obj
 0001:001bd2a0       ??A?$basic_string@_WU?$char_traits@_W@std@@V?$allocator@_W@2@@std@@QAEAA_WI@Z 005be2a0 f i libcpmtd:wlocale.obj
 0001:001bd2e0       ??A?$basic_string@_WU?$char_traits@_W@std@@V?$allocator@_W@2@@std@@QBEAB_WI@Z 005be2e0 f i libcpmtd:wlocale.obj
 0001:001bd320       ??D?$_String_const_iterator@V?$_String_val@U?$_Simple_types@G@std@@@std@@@std@@QBEABGXZ 005be320 f i libcpmtd:wlocale.obj
 0001:001bd3f0       ??D?$_String_const_iterator@V?$_String_val@U?$_Simple_types@_W@std@@@std@@@std@@QBEAB_WXZ 005be3f0 f i libcpmtd:wlocale.obj
 0001:001bd4c0       ??D?$_String_iterator@V?$_String_val@U?$_Simple_types@G@std@@@std@@@std@@QBEAAGXZ 005be4c0 f i libcpmtd:wlocale.obj
 0001:001bd4e0       ??D?$_String_iterator@V?$_String_val@U?$_Simple_types@_W@std@@@std@@@std@@QBEAA_WXZ 005be4e0 f i libcpmtd:wlocale.obj
 0001:001bd500       ??D?$istreambuf_iterator@GU?$char_traits@G@std@@@std@@QBEGXZ 005be500 f i libcpmtd:wlocale.obj
 0001:001bd550       ??D?$istreambuf_iterator@_WU?$char_traits@_W@std@@@std@@QBE_WXZ 005be550 f i libcpmtd:wlocale.obj
 0001:001bd5a0       ??D?$ostreambuf_iterator@GU?$char_traits@G@std@@@std@@QAEAAV01@XZ 005be5a0 f i libcpmtd:wlocale.obj
 0001:001bd5b0       ??D?$ostreambuf_iterator@_WU?$char_traits@_W@std@@@std@@QAEAAV01@XZ 005be5b0 f i libcpmtd:wlocale.obj
 0001:001bd5c0       ??E?$_String_const_iterator@V?$_String_val@U?$_Simple_types@G@std@@@std@@@std@@QAEAAV01@XZ 005be5c0 f i libcpmtd:wlocale.obj
 0001:001bd680       ??E?$_String_const_iterator@V?$_String_val@U?$_Simple_types@_W@std@@@std@@@std@@QAEAAV01@XZ 005be680 f i libcpmtd:wlocale.obj
 0001:001bd740       ??E?$istreambuf_iterator@GU?$char_traits@G@std@@@std@@QAEAAV01@XZ 005be740 f i libcpmtd:wlocale.obj
 0001:001bd780       ??E?$istreambuf_iterator@_WU?$char_traits@_W@std@@@std@@QAEAAV01@XZ 005be780 f i libcpmtd:wlocale.obj
 0001:001bd7c0       ??E?$ostreambuf_iterator@GU?$char_traits@G@std@@@std@@QAEAAV01@H@Z 005be7c0 f i libcpmtd:wlocale.obj
 0001:001bd7d0       ??E?$ostreambuf_iterator@GU?$char_traits@G@std@@@std@@QAEAAV01@XZ 005be7d0 f i libcpmtd:wlocale.obj
 0001:001bd7e0       ??E?$ostreambuf_iterator@_WU?$char_traits@_W@std@@@std@@QAEAAV01@H@Z 005be7e0 f i libcpmtd:wlocale.obj
 0001:001bd7f0       ??E?$ostreambuf_iterator@_WU?$char_traits@_W@std@@@std@@QAEAAV01@XZ 005be7f0 f i libcpmtd:wlocale.obj
 0001:001bd800       ??G?$_String_const_iterator@V?$_String_val@U?$_Simple_types@G@std@@@std@@@std@@QBEHABV01@@Z 005be800 f i libcpmtd:wlocale.obj
 0001:001bd830       ??G?$_String_const_iterator@V?$_String_val@U?$_Simple_types@_W@std@@@std@@@std@@QBEHABV01@@Z 005be830 f i libcpmtd:wlocale.obj
 0001:001bd860       ??G?$_String_iterator@V?$_String_val@U?$_Simple_types@G@std@@@std@@@std@@QBE?AV01@H@Z 005be860 f i libcpmtd:wlocale.obj
 0001:001bd8f0       ??G?$_String_iterator@V?$_String_val@U?$_Simple_types@G@std@@@std@@@std@@QBEHABV?$_String_const_iterator@V?$_String_val@U?$_Simple_types@G@std@@@std@@@1@@Z 005be8f0 f i libcpmtd:wlocale.obj
 0001:001bd970       ??G?$_String_iterator@V?$_String_val@U?$_Simple_types@_W@std@@@std@@@std@@QBE?AV01@H@Z 005be970 f i libcpmtd:wlocale.obj
 0001:001bda00       ??G?$_String_iterator@V?$_String_val@U?$_Simple_types@_W@std@@@std@@@std@@QBEHABV?$_String_const_iterator@V?$_String_val@U?$_Simple_types@_W@std@@@std@@@1@@Z 005bea00 f i libcpmtd:wlocale.obj
 0001:001bda80       ??H?$_String_iterator@V?$_String_val@U?$_Simple_types@G@std@@@std@@@std@@QBE?AV01@H@Z 005bea80 f i libcpmtd:wlocale.obj
 0001:001bdb10       ??H?$_String_iterator@V?$_String_val@U?$_Simple_types@_W@std@@@std@@@std@@QBE?AV01@H@Z 005beb10 f i libcpmtd:wlocale.obj
 0001:001bdba0       ??Y?$_String_const_iterator@V?$_String_val@U?$_Simple_types@G@std@@@std@@@std@@QAEAAV01@H@Z 005beba0 f i libcpmtd:wlocale.obj
 0001:001bdc90       ??Y?$_String_const_iterator@V?$_String_val@U?$_Simple_types@_W@std@@@std@@@std@@QAEAAV01@H@Z 005bec90 f i libcpmtd:wlocale.obj
 0001:001bdd80       ??Y?$_String_iterator@V?$_String_val@U?$_Simple_types@G@std@@@std@@@std@@QAEAAV01@H@Z 005bed80 f i libcpmtd:wlocale.obj
 0001:001bdda0       ??Y?$_String_iterator@V?$_String_val@U?$_Simple_types@_W@std@@@std@@@std@@QAEAAV01@H@Z 005beda0 f i libcpmtd:wlocale.obj
 0001:001bddc0       ??Y?$basic_string@GU?$char_traits@G@std@@V?$allocator@G@2@@std@@QAEAAV01@ABV01@@Z 005bedc0 f i libcpmtd:wlocale.obj
 0001:001bdde0       ??Y?$basic_string@GU?$char_traits@G@std@@V?$allocator@G@2@@std@@QAEAAV01@G@Z 005bede0 f i libcpmtd:wlocale.obj
 0001:001bde00       ??Y?$basic_string@_WU?$char_traits@_W@std@@V?$allocator@_W@2@@std@@QAEAAV01@ABV01@@Z 005bee00 f i libcpmtd:wlocale.obj
 0001:001bde20       ??Y?$basic_string@_WU?$char_traits@_W@std@@V?$allocator@_W@2@@std@@QAEAAV01@_W@Z 005bee20 f i libcpmtd:wlocale.obj
 0001:001bde40       ??Z?$_String_iterator@V?$_String_val@U?$_Simple_types@G@std@@@std@@@std@@QAEAAV01@H@Z 005bee40 f i libcpmtd:wlocale.obj
 0001:001bde60       ??Z?$_String_iterator@V?$_String_val@U?$_Simple_types@_W@std@@@std@@@std@@QAEAAV01@H@Z 005bee60 f i libcpmtd:wlocale.obj
 0001:001bde80       ??_E?$_Mpunct@G@std@@MAEPAXI@Z 005bee80 f i libcpmtd:wlocale.obj
 0001:001bde80       ??_G?$_Mpunct@G@std@@MAEPAXI@Z 005bee80 f i libcpmtd:wlocale.obj
 0001:001bdeb0       ??_E?$_Mpunct@_W@std@@MAEPAXI@Z 005beeb0 f i libcpmtd:wlocale.obj
 0001:001bdeb0       ??_G?$_Mpunct@_W@std@@MAEPAXI@Z 005beeb0 f i libcpmtd:wlocale.obj
 0001:001bdee0       ??_G?$codecvt@GDH@std@@MAEPAXI@Z 005beee0 f i libcpmtd:wlocale.obj
 0001:001bdee0       ??_E?$codecvt@GDH@std@@MAEPAXI@Z 005beee0 f i libcpmtd:wlocale.obj
 0001:001bdf10       ??_G?$codecvt@_WDH@std@@MAEPAXI@Z 005bef10 f i libcpmtd:wlocale.obj
 0001:001bdf10       ??_E?$codecvt@_WDH@std@@MAEPAXI@Z 005bef10 f i libcpmtd:wlocale.obj
 0001:001bdf40       ??_E?$collate@G@std@@MAEPAXI@Z 005bef40 f i libcpmtd:wlocale.obj
 0001:001bdf40       ??_G?$collate@G@std@@MAEPAXI@Z 005bef40 f i libcpmtd:wlocale.obj
 0001:001bdf70       ??_G?$collate@_W@std@@MAEPAXI@Z 005bef70 f i libcpmtd:wlocale.obj
 0001:001bdf70       ??_E?$collate@_W@std@@MAEPAXI@Z 005bef70 f i libcpmtd:wlocale.obj
 0001:001bdfa0       ??_E?$ctype@G@std@@MAEPAXI@Z 005befa0 f i libcpmtd:wlocale.obj
 0001:001bdfa0       ??_G?$ctype@G@std@@MAEPAXI@Z 005befa0 f i libcpmtd:wlocale.obj
 0001:001bdfd0       ??_E?$ctype@_W@std@@MAEPAXI@Z 005befd0 f i libcpmtd:wlocale.obj
 0001:001bdfd0       ??_G?$ctype@_W@std@@MAEPAXI@Z 005befd0 f i libcpmtd:wlocale.obj
 0001:001be000       ??_G?$messages@G@std@@MAEPAXI@Z 005bf000 f i libcpmtd:wlocale.obj
 0001:001be000       ??_E?$messages@G@std@@MAEPAXI@Z 005bf000 f i libcpmtd:wlocale.obj
 0001:001be030       ??_E?$messages@_W@std@@MAEPAXI@Z 005bf030 f i libcpmtd:wlocale.obj
 0001:001be030       ??_G?$messages@_W@std@@MAEPAXI@Z 005bf030 f i libcpmtd:wlocale.obj
 0001:001be060       ??_E?$money_get@GV?$istreambuf_iterator@GU?$char_traits@G@std@@@std@@@std@@MAEPAXI@Z 005bf060 f i libcpmtd:wlocale.obj
 0001:001be060       ??_G?$money_get@GV?$istreambuf_iterator@GU?$char_traits@G@std@@@std@@@std@@MAEPAXI@Z 005bf060 f i libcpmtd:wlocale.obj
 0001:001be090       ??_E?$money_get@_WV?$istreambuf_iterator@_WU?$char_traits@_W@std@@@std@@@std@@MAEPAXI@Z 005bf090 f i libcpmtd:wlocale.obj
 0001:001be090       ??_G?$money_get@_WV?$istreambuf_iterator@_WU?$char_traits@_W@std@@@std@@@std@@MAEPAXI@Z 005bf090 f i libcpmtd:wlocale.obj
 0001:001be0c0       ??_E?$money_put@GV?$ostreambuf_iterator@GU?$char_traits@G@std@@@std@@@std@@MAEPAXI@Z 005bf0c0 f i libcpmtd:wlocale.obj
 0001:001be0c0       ??_G?$money_put@GV?$ostreambuf_iterator@GU?$char_traits@G@std@@@std@@@std@@MAEPAXI@Z 005bf0c0 f i libcpmtd:wlocale.obj
 0001:001be0f0       ??_G?$money_put@_WV?$ostreambuf_iterator@_WU?$char_traits@_W@std@@@std@@@std@@MAEPAXI@Z 005bf0f0 f i libcpmtd:wlocale.obj
 0001:001be0f0       ??_E?$money_put@_WV?$ostreambuf_iterator@_WU?$char_traits@_W@std@@@std@@@std@@MAEPAXI@Z 005bf0f0 f i libcpmtd:wlocale.obj
 0001:001be120       ??_G?$moneypunct@G$00@std@@MAEPAXI@Z 005bf120 f i libcpmtd:wlocale.obj
 0001:001be120       ??_E?$moneypunct@G$00@std@@MAEPAXI@Z 005bf120 f i libcpmtd:wlocale.obj
 0001:001be150       ??_G?$moneypunct@G$0A@@std@@MAEPAXI@Z 005bf150 f i libcpmtd:wlocale.obj
 0001:001be150       ??_E?$moneypunct@G$0A@@std@@MAEPAXI@Z 005bf150 f i libcpmtd:wlocale.obj
 0001:001be180       ??_G?$moneypunct@_W$00@std@@MAEPAXI@Z 005bf180 f i libcpmtd:wlocale.obj
 0001:001be180       ??_E?$moneypunct@_W$00@std@@MAEPAXI@Z 005bf180 f i libcpmtd:wlocale.obj
 0001:001be1b0       ??_G?$moneypunct@_W$0A@@std@@MAEPAXI@Z 005bf1b0 f i libcpmtd:wlocale.obj
 0001:001be1b0       ??_E?$moneypunct@_W$0A@@std@@MAEPAXI@Z 005bf1b0 f i libcpmtd:wlocale.obj
 0001:001be1e0       ??_G?$num_get@GV?$istreambuf_iterator@GU?$char_traits@G@std@@@std@@@std@@MAEPAXI@Z 005bf1e0 f i libcpmtd:wlocale.obj
 0001:001be1e0       ??_E?$num_get@GV?$istreambuf_iterator@GU?$char_traits@G@std@@@std@@@std@@MAEPAXI@Z 005bf1e0 f i libcpmtd:wlocale.obj
 0001:001be210       ??_E?$num_get@_WV?$istreambuf_iterator@_WU?$char_traits@_W@std@@@std@@@std@@MAEPAXI@Z 005bf210 f i libcpmtd:wlocale.obj
 0001:001be210       ??_G?$num_get@_WV?$istreambuf_iterator@_WU?$char_traits@_W@std@@@std@@@std@@MAEPAXI@Z 005bf210 f i libcpmtd:wlocale.obj
 0001:001be240       ??_G?$num_put@GV?$ostreambuf_iterator@GU?$char_traits@G@std@@@std@@@std@@MAEPAXI@Z 005bf240 f i libcpmtd:wlocale.obj
 0001:001be240       ??_E?$num_put@GV?$ostreambuf_iterator@GU?$char_traits@G@std@@@std@@@std@@MAEPAXI@Z 005bf240 f i libcpmtd:wlocale.obj
 0001:001be270       ??_E?$num_put@_WV?$ostreambuf_iterator@_WU?$char_traits@_W@std@@@std@@@std@@MAEPAXI@Z 005bf270 f i libcpmtd:wlocale.obj
 0001:001be270       ??_G?$num_put@_WV?$ostreambuf_iterator@_WU?$char_traits@_W@std@@@std@@@std@@MAEPAXI@Z 005bf270 f i libcpmtd:wlocale.obj
 0001:001be2a0       ??_G?$numpunct@G@std@@MAEPAXI@Z 005bf2a0 f i libcpmtd:wlocale.obj
 0001:001be2a0       ??_E?$numpunct@G@std@@MAEPAXI@Z 005bf2a0 f i libcpmtd:wlocale.obj
 0001:001be2d0       ??_G?$numpunct@_W@std@@MAEPAXI@Z 005bf2d0 f i libcpmtd:wlocale.obj
 0001:001be2d0       ??_E?$numpunct@_W@std@@MAEPAXI@Z 005bf2d0 f i libcpmtd:wlocale.obj
 0001:001be300       ??_E?$time_get@GV?$istreambuf_iterator@GU?$char_traits@G@std@@@std@@@std@@MAEPAXI@Z 005bf300 f i libcpmtd:wlocale.obj
 0001:001be300       ??_G?$time_get@GV?$istreambuf_iterator@GU?$char_traits@G@std@@@std@@@std@@MAEPAXI@Z 005bf300 f i libcpmtd:wlocale.obj
 0001:001be330       ??_G?$time_get@_WV?$istreambuf_iterator@_WU?$char_traits@_W@std@@@std@@@std@@MAEPAXI@Z 005bf330 f i libcpmtd:wlocale.obj
 0001:001be330       ??_E?$time_get@_WV?$istreambuf_iterator@_WU?$char_traits@_W@std@@@std@@@std@@MAEPAXI@Z 005bf330 f i libcpmtd:wlocale.obj
 0001:001be360       ??_E?$time_put@GV?$ostreambuf_iterator@GU?$char_traits@G@std@@@std@@@std@@MAEPAXI@Z 005bf360 f i libcpmtd:wlocale.obj
 0001:001be360       ??_G?$time_put@GV?$ostreambuf_iterator@GU?$char_traits@G@std@@@std@@@std@@MAEPAXI@Z 005bf360 f i libcpmtd:wlocale.obj
 0001:001be390       ??_E?$time_put@_WV?$ostreambuf_iterator@_WU?$char_traits@_W@std@@@std@@@std@@MAEPAXI@Z 005bf390 f i libcpmtd:wlocale.obj
 0001:001be390       ??_G?$time_put@_WV?$ostreambuf_iterator@_WU?$char_traits@_W@std@@@std@@@std@@MAEPAXI@Z 005bf390 f i libcpmtd:wlocale.obj
 0001:001be3c0       ??_Gmessages_base@std@@UAEPAXI@Z 005bf3c0 f i libcpmtd:wlocale.obj
 0001:001be3c0       ??_Emessages_base@std@@UAEPAXI@Z 005bf3c0 f i libcpmtd:wlocale.obj
 0001:001be3f0       ??_Emoney_base@std@@UAEPAXI@Z 005bf3f0 f i libcpmtd:wlocale.obj
 0001:001be3f0       ??_Gmoney_base@std@@UAEPAXI@Z 005bf3f0 f i libcpmtd:wlocale.obj
 0001:001be420       ??_Gtime_base@std@@UAEPAXI@Z 005bf420 f i libcpmtd:wlocale.obj
 0001:001be420       ??_Etime_base@std@@UAEPAXI@Z 005bf420 f i libcpmtd:wlocale.obj
 0001:001be450       ?_Alloc_proxy@?$_String_alloc@$0A@U?$_String_base_types@GV?$allocator@G@std@@@std@@@std@@QAEXXZ 005bf450 f i libcpmtd:wlocale.obj
 0001:001be4a0       ?_Alloc_proxy@?$_String_alloc@$0A@U?$_String_base_types@_WV?$allocator@_W@std@@@std@@@std@@QAEXXZ 005bf4a0 f i libcpmtd:wlocale.obj
 0001:001be4f0       ?_Assign_rv@?$basic_string@GU?$char_traits@G@std@@V?$allocator@G@2@@std@@QAEX$$QAV12@@Z 005bf4f0 f i libcpmtd:wlocale.obj
 0001:001be580       ?_Assign_rv@?$basic_string@_WU?$char_traits@_W@std@@V?$allocator@_W@2@@std@@QAEX$$QAV12@@Z 005bf580 f i libcpmtd:wlocale.obj
 0001:001be610       ?_C_str@?$_Yarn@_W@std@@QBEPB_WXZ 005bf610 f i libcpmtd:wlocale.obj
 0001:001be640       ?_Change_alloc@?$_String_alloc@$0A@U?$_String_base_types@GV?$allocator@G@std@@@std@@@std@@QAEXABU?$_Wrap_alloc@V?$allocator@G@std@@@2@@Z 005bf640 f i libcpmtd:wlocale.obj
 0001:001be650       ?_Change_alloc@?$_String_alloc@$0A@U?$_String_base_types@_WV?$allocator@_W@std@@@std@@@std@@QAEXABU?$_Wrap_alloc@V?$allocator@_W@std@@@2@@Z 005bf650 f i libcpmtd:wlocale.obj
 0001:001be660       ?_Chassign@?$basic_string@GU?$char_traits@G@std@@V?$allocator@G@2@@std@@QAEXIIG@Z 005bf660 f i libcpmtd:wlocale.obj
 0001:001be6b0       ?_Chassign@?$basic_string@_WU?$char_traits@_W@std@@V?$allocator@_W@2@@std@@QAEXII_W@Z 005bf6b0 f i libcpmtd:wlocale.obj
 0001:001be700       ?_Compat@?$_String_const_iterator@V?$_String_val@U?$_Simple_types@G@std@@@std@@@std@@QBEXABV12@@Z 005bf700 f i libcpmtd:wlocale.obj
 0001:001be7a0       ?_Compat@?$_String_const_iterator@V?$_String_val@U?$_Simple_types@_W@std@@@std@@@std@@QBEXABV12@@Z 005bf7a0 f i libcpmtd:wlocale.obj
 0001:001be840       ?_Copy@?$basic_string@GU?$char_traits@G@std@@V?$allocator@G@2@@std@@QAEXII@Z 005bf840 f i libcpmtd:wlocale.obj
 0001:001bea00       ?_Copy@?$basic_string@_WU?$char_traits@_W@std@@V?$allocator@_W@2@@std@@QAEXII@Z 005bfa00 f i libcpmtd:wlocale.obj
 0001:001bebc0       ?_Donarrow@?$ctype@G@std@@IBEDGD@Z 005bfbc0 f i libcpmtd:wlocale.obj
 0001:001bec30       ?_Donarrow@?$ctype@_W@std@@IBED_WD@Z 005bfc30 f i libcpmtd:wlocale.obj
 0001:001beca0       ?_Dowiden@?$ctype@G@std@@IBEGD@Z 005bfca0 f i libcpmtd:wlocale.obj
 0001:001becf0       ?_Dowiden@?$ctype@_W@std@@IBE_WD@Z 005bfcf0 f i libcpmtd:wlocale.obj
 0001:001bed40       ?_Empty@?$_Yarn@_W@std@@QBE_NXZ 005bfd40 f i libcpmtd:wlocale.obj
 0001:001bed70       ?_Eos@?$basic_string@GU?$char_traits@G@std@@V?$allocator@G@2@@std@@QAEXI@Z 005bfd70 f i libcpmtd:wlocale.obj
 0001:001bedb0       ?_Eos@?$basic_string@_WU?$char_traits@_W@std@@V?$allocator@_W@2@@std@@QAEXI@Z 005bfdb0 f i libcpmtd:wlocale.obj
 0001:001bedf0       ?_Ffmt@?$num_put@GV?$ostreambuf_iterator@GU?$char_traits@G@std@@@std@@@std@@ABAPADPADDH@Z 005bfdf0 f i libcpmtd:wlocale.obj
 0001:001bef30       ?_Ffmt@?$num_put@_WV?$ostreambuf_iterator@_WU?$char_traits@_W@std@@@std@@@std@@ABAPADPADDH@Z 005bff30 f i libcpmtd:wlocale.obj
 0001:001bf070       ?_Fput@?$num_put@GV?$ostreambuf_iterator@GU?$char_traits@G@std@@@std@@@std@@ABA?AV?$ostreambuf_iterator@GU?$char_traits@G@std@@@2@V32@AAVios_base@2@GPBDIIII@Z 005c0070 f i libcpmtd:wlocale.obj
 0001:001bf5f0       ?_Fput@?$num_put@_WV?$ostreambuf_iterator@_WU?$char_traits@_W@std@@@std@@@std@@ABA?AV?$ostreambuf_iterator@_WU?$char_traits@_W@std@@@2@V32@AAVios_base@2@_WPBDIIII@Z 005c05f0 f i libcpmtd:wlocale.obj
 0001:001bfb70       ?_Free_proxy@?$_String_alloc@$0A@U?$_String_base_types@GV?$allocator@G@std@@@std@@@std@@QAEXXZ 005c0b70 f i libcpmtd:wlocale.obj
 0001:001bfbc0       ?_Free_proxy@?$_String_alloc@$0A@U?$_String_base_types@_WV?$allocator@_W@std@@@std@@@std@@QAEXXZ 005c0bc0 f i libcpmtd:wlocale.obj
 0001:001bfc10       ?_Getal@?$_String_alloc@$0A@U?$_String_base_types@GV?$allocator@G@std@@@std@@@std@@QBE?AU?$_Wrap_alloc@V?$allocator@G@std@@@2@XZ 005c0c10 f i libcpmtd:wlocale.obj
 0001:001bfc30       ?_Getal@?$_String_alloc@$0A@U?$_String_base_types@_WV?$allocator@_W@std@@@std@@@std@@QBE?AU?$_Wrap_alloc@V?$allocator@_W@std@@@2@XZ 005c0c30 f i libcpmtd:wlocale.obj
 0001:001bfc50       ?_Getcat@?$codecvt@GDH@std@@SAIPAPBVfacet@locale@2@PBV42@@Z 005c0c50 f i libcpmtd:wlocale.obj
 0001:001bfd50       ?_Getcat@?$codecvt@_WDH@std@@SAIPAPBVfacet@locale@2@PBV42@@Z 005c0d50 f i libcpmtd:wlocale.obj
 0001:001bfe50       ?_Getcat@?$collate@G@std@@SAIPAPBVfacet@locale@2@PBV42@@Z 005c0e50 f i libcpmtd:wlocale.obj
 0001:001bffa0       ?_Getcat@?$collate@_W@std@@SAIPAPBVfacet@locale@2@PBV42@@Z 005c0fa0 f i libcpmtd:wlocale.obj
 0001:001c00f0       ?_Getcat@?$ctype@G@std@@SAIPAPBVfacet@locale@2@PBV42@@Z 005c10f0 f i libcpmtd:wlocale.obj
 0001:001c01f0       ?_Getcat@?$ctype@_W@std@@SAIPAPBVfacet@locale@2@PBV42@@Z 005c11f0 f i libcpmtd:wlocale.obj
 0001:001c02f0       ?_Getcat@?$messages@G@std@@SAIPAPBVfacet@locale@2@PBV42@@Z 005c12f0 f i libcpmtd:wlocale.obj
 0001:001c03f0       ?_Getcat@?$messages@_W@std@@SAIPAPBVfacet@locale@2@PBV42@@Z 005c13f0 f i libcpmtd:wlocale.obj
 0001:001c04f0       ?_Getcat@?$money_get@GV?$istreambuf_iterator@GU?$char_traits@G@std@@@std@@@std@@SAIPAPBVfacet@locale@2@PBV42@@Z 005c14f0 f i libcpmtd:wlocale.obj
 0001:001c05f0       ?_Getcat@?$money_get@_WV?$istreambuf_iterator@_WU?$char_traits@_W@std@@@std@@@std@@SAIPAPBVfacet@locale@2@PBV42@@Z 005c15f0 f i libcpmtd:wlocale.obj
 0001:001c06f0       ?_Getcat@?$money_put@GV?$ostreambuf_iterator@GU?$char_traits@G@std@@@std@@@std@@SAIPAPBVfacet@locale@2@PBV42@@Z 005c16f0 f i libcpmtd:wlocale.obj
 0001:001c07f0       ?_Getcat@?$money_put@_WV?$ostreambuf_iterator@_WU?$char_traits@_W@std@@@std@@@std@@SAIPAPBVfacet@locale@2@PBV42@@Z 005c17f0 f i libcpmtd:wlocale.obj
 0001:001c08f0       ?_Getcat@?$moneypunct@G$00@std@@SAIPAPBVfacet@locale@2@PBV42@@Z 005c18f0 f i libcpmtd:wlocale.obj
 0001:001c09f0       ?_Getcat@?$moneypunct@G$0A@@std@@SAIPAPBVfacet@locale@2@PBV42@@Z 005c19f0 f i libcpmtd:wlocale.obj
 0001:001c0af0       ?_Getcat@?$moneypunct@_W$00@std@@SAIPAPBVfacet@locale@2@PBV42@@Z 005c1af0 f i libcpmtd:wlocale.obj
 0001:001c0bf0       ?_Getcat@?$moneypunct@_W$0A@@std@@SAIPAPBVfacet@locale@2@PBV42@@Z 005c1bf0 f i libcpmtd:wlocale.obj
 0001:001c0cf0       ?_Getcat@?$num_get@GV?$istreambuf_iterator@GU?$char_traits@G@std@@@std@@@std@@SAIPAPBVfacet@locale@2@PBV42@@Z 005c1cf0 f i libcpmtd:wlocale.obj
 0001:001c0df0       ?_Getcat@?$num_get@_WV?$istreambuf_iterator@_WU?$char_traits@_W@std@@@std@@@std@@SAIPAPBVfacet@locale@2@PBV42@@Z 005c1df0 f i libcpmtd:wlocale.obj
 0001:001c0ef0       ?_Getcat@?$num_put@GV?$ostreambuf_iterator@GU?$char_traits@G@std@@@std@@@std@@SAIPAPBVfacet@locale@2@PBV42@@Z 005c1ef0 f i libcpmtd:wlocale.obj
 0001:001c0ff0       ?_Getcat@?$num_put@_WV?$ostreambuf_iterator@_WU?$char_traits@_W@std@@@std@@@std@@SAIPAPBVfacet@locale@2@PBV42@@Z 005c1ff0 f i libcpmtd:wlocale.obj
 0001:001c10f0       ?_Getcat@?$numpunct@G@std@@SAIPAPBVfacet@locale@2@PBV42@@Z 005c20f0 f i libcpmtd:wlocale.obj
 0001:001c11f0       ?_Getcat@?$numpunct@_W@std@@SAIPAPBVfacet@locale@2@PBV42@@Z 005c21f0 f i libcpmtd:wlocale.obj
 0001:001c12f0       ?_Getcat@?$time_get@GV?$istreambuf_iterator@GU?$char_traits@G@std@@@std@@@std@@SAIPAPBVfacet@locale@2@PBV42@@Z 005c22f0 f i libcpmtd:wlocale.obj
 0001:001c13f0       ?_Getcat@?$time_get@_WV?$istreambuf_iterator@_WU?$char_traits@_W@std@@@std@@@std@@SAIPAPBVfacet@locale@2@PBV42@@Z 005c23f0 f i libcpmtd:wlocale.obj
 0001:001c14f0       ?_Getcat@?$time_put@GV?$ostreambuf_iterator@GU?$char_traits@G@std@@@std@@@std@@SAIPAPBVfacet@locale@2@PBV42@@Z 005c24f0 f i libcpmtd:wlocale.obj
 0001:001c15f0       ?_Getcat@?$time_put@_WV?$ostreambuf_iterator@_WU?$char_traits@_W@std@@@std@@@std@@SAIPAPBVfacet@locale@2@PBV42@@Z 005c25f0 f i libcpmtd:wlocale.obj
 0001:001c16f0       ?_Getcoll@_Locinfo@std@@QBE?AU_Collvec@@XZ 005c26f0 f i libcpmtd:wlocale.obj
 0001:001c1720       ?_Getdateorder@_Locinfo@std@@QBEHXZ 005c2720 f i libcpmtd:wlocale.obj
 0001:001c1730       ?_Getdays@_Locinfo@std@@QBEPBDXZ 005c2730 f i libcpmtd:wlocale.obj
 0001:001c17a0       ?_Getffld@?$num_get@GV?$istreambuf_iterator@GU?$char_traits@G@std@@@std@@@std@@ABAHPADAAV?$istreambuf_iterator@GU?$char_traits@G@std@@@2@1AAVios_base@2@PAH@Z 005c27a0 f i libcpmtd:wlocale.obj
 0001:001c1ff0       ?_Getffld@?$num_get@_WV?$istreambuf_iterator@_WU?$char_traits@_W@std@@@std@@@std@@ABAHPADAAV?$istreambuf_iterator@_WU?$char_traits@_W@std@@@2@1AAVios_base@2@PAH@Z 005c2ff0 f i libcpmtd:wlocale.obj
 0001:001c2840       ?_Getffldx@?$num_get@GV?$istreambuf_iterator@GU?$char_traits@G@std@@@std@@@std@@ABAHPADAAV?$istreambuf_iterator@GU?$char_traits@G@std@@@2@1AAVios_base@2@PAH@Z 005c3840 f i libcpmtd:wlocale.obj
 0001:001c32a0       ?_Getffldx@?$num_get@_WV?$istreambuf_iterator@_WU?$char_traits@_W@std@@@std@@@std@@ABAHPADAAV?$istreambuf_iterator@_WU?$char_traits@_W@std@@@2@1AAVios_base@2@PAH@Z 005c42a0 f i libcpmtd:wlocale.obj
 0001:001c3d00       ?_Getfmt@?$time_get@GV?$istreambuf_iterator@GU?$char_traits@G@std@@@std@@@std@@IBE?AV?$istreambuf_iterator@GU?$char_traits@G@std@@@2@V32@0AAVios_base@2@AAHPAUtm@@PBD@Z 005c4d00 f i libcpmtd:wlocale.obj
 0001:001c3eb0       ?_Getfmt@?$time_get@_WV?$istreambuf_iterator@_WU?$char_traits@_W@std@@@std@@@std@@IBE?AV?$istreambuf_iterator@_WU?$char_traits@_W@std@@@2@V32@0AAVios_base@2@AAHPAUtm@@PBD@Z 005c4eb0 f i libcpmtd:wlocale.obj
 0001:001c4060       ?_Getifld@?$num_get@GV?$istreambuf_iterator@GU?$char_traits@G@std@@@std@@@std@@ABAHPADAAV?$istreambuf_iterator@GU?$char_traits@G@std@@@2@1HABVlocale@2@@Z 005c5060 f i libcpmtd:wlocale.obj
 0001:001c4670       ?_Getifld@?$num_get@_WV?$istreambuf_iterator@_WU?$char_traits@_W@std@@@std@@@std@@ABAHPADAAV?$istreambuf_iterator@_WU?$char_traits@_W@std@@@2@1HABVlocale@2@@Z 005c5670 f i libcpmtd:wlocale.obj
 0001:001c4c80       ?_Getint@?$time_get@GV?$istreambuf_iterator@GU?$char_traits@G@std@@@std@@@std@@ABAHAAV?$istreambuf_iterator@GU?$char_traits@G@std@@@2@0HHAAHABV?$ctype@G@2@@Z 005c5c80 f i libcpmtd:wlocale.obj
 0001:001c4e80       ?_Getint@?$time_get@_WV?$istreambuf_iterator@_WU?$char_traits@_W@std@@@std@@@std@@ABAHAAV?$istreambuf_iterator@_WU?$char_traits@_W@std@@@2@0HHAAHABV?$ctype@_W@2@@Z 005c5e80 f i libcpmtd:wlocale.obj
 0001:001c5080       ?_Getmfld@?$money_get@GV?$istreambuf_iterator@GU?$char_traits@G@std@@@std@@@std@@ABE?AV?$basic_string@DU?$char_traits@D@std@@V?$allocator@D@2@@2@AAV?$istreambuf_iterator@GU?$char_traits@G@std@@@2@0_NAAVios_base@2@PAG@Z 005c6080 f i libcpmtd:wlocale.obj
 0001:001c6070       ?_Getmfld@?$money_get@_WV?$istreambuf_iterator@_WU?$char_traits@_W@std@@@std@@@std@@ABE?AV?$basic_string@DU?$char_traits@D@std@@V?$allocator@D@2@@2@AAV?$istreambuf_iterator@_WU?$char_traits@_W@std@@@2@0_NAAVios_base@2@PA_W@Z 005c7070 f i libcpmtd:wlocale.obj
 0001:001c7060       ?_Getmonths@_Locinfo@std@@QBEPBDXZ 005c8060 f i libcpmtd:wlocale.obj
 0001:001c70d0       ?_Getptr@_Timevec@std@@QBEPAXXZ 005c80d0 f i libcpmtd:wlocale.obj
 0001:001c70e0       ?_Gnavail@?$basic_streambuf@GU?$char_traits@G@std@@@std@@IBE_JXZ 005c80e0 f i libcpmtd:wlocale.obj
 0001:001c7110       ?_Gnavail@?$basic_streambuf@_WU?$char_traits@_W@std@@@std@@IBE_JXZ 005c8110 f i libcpmtd:wlocale.obj
 0001:001c7140       ?_Gninc@?$basic_streambuf@GU?$char_traits@G@std@@@std@@IAEPAGXZ 005c8140 f i libcpmtd:wlocale.obj
 0001:001c7190       ?_Gninc@?$basic_streambuf@_WU?$char_traits@_W@std@@@std@@IAEPA_WXZ 005c8190 f i libcpmtd:wlocale.obj
 0001:001c71e0       ?_Grow@?$basic_string@GU?$char_traits@G@std@@V?$allocator@G@2@@std@@QAE_NI_N@Z 005c81e0 f i libcpmtd:wlocale.obj
 0001:001c7290       ?_Grow@?$basic_string@_WU?$char_traits@_W@std@@V?$allocator@_W@2@@std@@QAE_NI_N@Z 005c8290 f i libcpmtd:wlocale.obj
 0001:001c7340       ?_Hash_seq@std@@YAIPBEI@Z  005c8340 f i libcpmtd:wlocale.obj
 0001:001c73a0       ?_Ifmt@?$num_put@GV?$ostreambuf_iterator@GU?$char_traits@G@std@@@std@@@std@@ABAPADPADPBDH@Z 005c83a0 f i libcpmtd:wlocale.obj
 0001:001c74c0       ?_Ifmt@?$num_put@_WV?$ostreambuf_iterator@_WU?$char_traits@_W@std@@@std@@@std@@ABAPADPADPBDH@Z 005c84c0 f i libcpmtd:wlocale.obj
 0001:001c75e0       ?_Inc@?$istreambuf_iterator@GU?$char_traits@G@std@@@std@@AAEXXZ 005c85e0 f i libcpmtd:wlocale.obj
 0001:001c7640       ?_Inc@?$istreambuf_iterator@_WU?$char_traits@_W@std@@@std@@AAEXXZ 005c8640 f i libcpmtd:wlocale.obj
 0001:001c76a0       ?_Init@?$_Mpunct@G@std@@IAEXABV_Locinfo@2@_N@Z 005c86a0 f i libcpmtd:wlocale.obj
 0001:001c7870       ?_Init@?$_Mpunct@_W@std@@IAEXABV_Locinfo@2@_N@Z 005c8870 f i libcpmtd:wlocale.obj
 0001:001c7a40       ?_Init@?$codecvt@GDH@std@@IAEXABV_Locinfo@2@@Z 005c8a40 f i libcpmtd:wlocale.obj
 0001:001c7a90       ?_Init@?$codecvt@_WDH@std@@IAEXABV_Locinfo@2@@Z 005c8a90 f i libcpmtd:wlocale.obj
 0001:001c7ae0       ?_Init@?$collate@G@std@@IAEXABV_Locinfo@2@@Z 005c8ae0 f i libcpmtd:wlocale.obj
 0001:001c7b10       ?_Init@?$collate@_W@std@@IAEXABV_Locinfo@2@@Z 005c8b10 f i libcpmtd:wlocale.obj
 0001:001c7b40       ?_Init@?$ctype@G@std@@IAEXABV_Locinfo@2@@Z 005c8b40 f i libcpmtd:wlocale.obj
 0001:001c7bb0       ?_Init@?$ctype@_W@std@@IAEXABV_Locinfo@2@@Z 005c8bb0 f i libcpmtd:wlocale.obj
 0001:001c7c20       ?_Init@?$messages@G@std@@IAEXABV_Locinfo@2@@Z 005c8c20 f i libcpmtd:wlocale.obj
 0001:001c7c30       ?_Init@?$messages@_W@std@@IAEXABV_Locinfo@2@@Z 005c8c30 f i libcpmtd:wlocale.obj
 0001:001c7c40       ?_Init@?$money_get@GV?$istreambuf_iterator@GU?$char_traits@G@std@@@std@@@std@@IAEXABV_Locinfo@2@@Z 005c8c40 f i libcpmtd:wlocale.obj
 0001:001c7c50       ?_Init@?$money_get@_WV?$istreambuf_iterator@_WU?$char_traits@_W@std@@@std@@@std@@IAEXABV_Locinfo@2@@Z 005c8c50 f i libcpmtd:wlocale.obj
 0001:001c7c60       ?_Init@?$money_put@GV?$ostreambuf_iterator@GU?$char_traits@G@std@@@std@@@std@@IAEXABV_Locinfo@2@@Z 005c8c60 f i libcpmtd:wlocale.obj
 0001:001c7c70       ?_Init@?$money_put@_WV?$ostreambuf_iterator@_WU?$char_traits@_W@std@@@std@@@std@@IAEXABV_Locinfo@2@@Z 005c8c70 f i libcpmtd:wlocale.obj
 0001:001c7c80       ?_Init@?$num_get@GV?$istreambuf_iterator@GU?$char_traits@G@std@@@std@@@std@@IAEXABV_Locinfo@2@@Z 005c8c80 f i libcpmtd:wlocale.obj
 0001:001c7c90       ?_Init@?$num_get@_WV?$istreambuf_iterator@_WU?$char_traits@_W@std@@@std@@@std@@IAEXABV_Locinfo@2@@Z 005c8c90 f i libcpmtd:wlocale.obj
 0001:001c7ca0       ?_Init@?$num_put@GV?$ostreambuf_iterator@GU?$char_traits@G@std@@@std@@@std@@IAEXABV_Locinfo@2@@Z 005c8ca0 f i libcpmtd:wlocale.obj
 0001:001c7cb0       ?_Init@?$num_put@_WV?$ostreambuf_iterator@_WU?$char_traits@_W@std@@@std@@@std@@IAEXABV_Locinfo@2@@Z 005c8cb0 f i libcpmtd:wlocale.obj
 0001:001c7cc0       ?_Init@?$numpunct@G@std@@IAEXABV_Locinfo@2@_N@Z 005c8cc0 f i libcpmtd:wlocale.obj
 0001:001c7e80       ?_Init@?$numpunct@_W@std@@IAEXABV_Locinfo@2@_N@Z 005c8e80 f i libcpmtd:wlocale.obj
 0001:001c8040       ?_Init@?$time_get@GV?$istreambuf_iterator@GU?$char_traits@G@std@@@std@@@std@@IAEXABV_Locinfo@2@@Z 005c9040 f i libcpmtd:wlocale.obj
 0001:001c8100       ?_Init@?$time_get@_WV?$istreambuf_iterator@_WU?$char_traits@_W@std@@@std@@@std@@IAEXABV_Locinfo@2@@Z 005c9100 f i libcpmtd:wlocale.obj
 0001:001c81c0       ?_Init@?$time_put@GV?$ostreambuf_iterator@GU?$char_traits@G@std@@@std@@@std@@IAEXABV_Locinfo@2@@Z 005c91c0 f i libcpmtd:wlocale.obj
 0001:001c8240       ?_Init@?$time_put@_WV?$ostreambuf_iterator@_WU?$char_traits@_W@std@@@std@@@std@@IAEXABV_Locinfo@2@@Z 005c9240 f i libcpmtd:wlocale.obj
 0001:001c82c0       ?_Inside@?$basic_string@GU?$char_traits@G@std@@V?$allocator@G@2@@std@@QAE_NPBG@Z 005c92c0 f i libcpmtd:wlocale.obj
 0001:001c8300       ?_Inside@?$basic_string@_WU?$char_traits@_W@std@@V?$allocator@_W@2@@std@@QAE_NPB_W@Z 005c9300 f i libcpmtd:wlocale.obj
 0001:001c8340       ?_Iput@?$num_put@GV?$ostreambuf_iterator@GU?$char_traits@G@std@@@std@@@std@@ABA?AV?$ostreambuf_iterator@GU?$char_traits@G@std@@@2@V32@AAVios_base@2@GPADI@Z 005c9340 f i libcpmtd:wlocale.obj
 0001:001c8790       ?_Iput@?$num_put@_WV?$ostreambuf_iterator@_WU?$char_traits@_W@std@@@std@@@std@@ABA?AV?$ostreambuf_iterator@_WU?$char_traits@_W@std@@@2@V32@AAVios_base@2@_WPADI@Z 005c9790 f i libcpmtd:wlocale.obj
 0001:001c8be0       ?_Makeushloc@_Locimp@locale@std@@CAXABV_Locinfo@3@HPAV123@PBV23@@Z 005c9be0 f   libcpmtd:wlocale.obj
 0001:001c95d0       ?_Makewloc@_Locimp@locale@std@@CAXABV_Locinfo@3@HPAV123@PBV23@@Z 005ca5d0 f   libcpmtd:wlocale.obj
 0001:001c9fc0       ?_Maklocwcs@std@@YAPA_WPB_W@Z 005cafc0 f i libcpmtd:wlocale.obj
 0001:001ca030       ?_Makpat@?$_Mpunct@G@std@@AAEXAAUpattern@money_base@2@III@Z 005cb030 f i libcpmtd:wlocale.obj
 0001:001ca0a0       ?_Makpat@?$_Mpunct@_W@std@@AAEXAAUpattern@money_base@2@III@Z 005cb0a0 f i libcpmtd:wlocale.obj
 0001:001ca110       ?_Myptr@?$_String_val@U?$_Simple_types@G@std@@@std@@QAEPAGXZ 005cb110 f i libcpmtd:wlocale.obj
 0001:001ca150       ?_Myptr@?$_String_val@U?$_Simple_types@G@std@@@std@@QBEPBGXZ 005cb150 f i libcpmtd:wlocale.obj
 0001:001ca190       ?_Myptr@?$_String_val@U?$_Simple_types@_W@std@@@std@@QAEPA_WXZ 005cb190 f i libcpmtd:wlocale.obj
 0001:001ca1d0       ?_Myptr@?$_String_val@U?$_Simple_types@_W@std@@@std@@QBEPB_WXZ 005cb1d0 f i libcpmtd:wlocale.obj
 0001:001ca210       ?_Pdif@?$basic_string@GU?$char_traits@G@std@@V?$allocator@G@2@@std@@SAIV?$_String_const_iterator@V?$_String_val@U?$_Simple_types@G@std@@@std@@@2@0@Z 005cb210 f i libcpmtd:wlocale.obj
 0001:001ca290       ?_Pdif@?$basic_string@_WU?$char_traits@_W@std@@V?$allocator@_W@2@@std@@SAIV?$_String_const_iterator@V?$_String_val@U?$_Simple_types@_W@std@@@std@@@2@0@Z 005cb290 f i libcpmtd:wlocale.obj
 0001:001ca310       ?_Peek@?$istreambuf_iterator@GU?$char_traits@G@std@@@std@@ABEGXZ 005cb310 f i libcpmtd:wlocale.obj
 0001:001ca380       ?_Peek@?$istreambuf_iterator@_WU?$char_traits@_W@std@@@std@@ABE_WXZ 005cb380 f i libcpmtd:wlocale.obj
 0001:001ca3f0       ?_Pnavail@?$basic_streambuf@GU?$char_traits@G@std@@@std@@IBE_JXZ 005cb3f0 f i libcpmtd:wlocale.obj
 0001:001ca420       ?_Pnavail@?$basic_streambuf@_WU?$char_traits@_W@std@@@std@@IBE_JXZ 005cb420 f i libcpmtd:wlocale.obj
 0001:001ca450       ?_Pninc@?$basic_streambuf@GU?$char_traits@G@std@@@std@@IAEPAGXZ 005cb450 f i libcpmtd:wlocale.obj
 0001:001ca4a0       ?_Pninc@?$basic_streambuf@_WU?$char_traits@_W@std@@@std@@IAEPA_WXZ 005cb4a0 f i libcpmtd:wlocale.obj
 0001:001ca4f0       ?_Put@?$money_put@GV?$ostreambuf_iterator@GU?$char_traits@G@std@@@std@@@std@@CA?AV?$ostreambuf_iterator@GU?$char_traits@G@std@@@2@V32@V?$_String_const_iterator@V?$_String_val@U?$_Simple_types@G@std@@@std@@@2@I@Z 005cb4f0 f i libcpmtd:wlocale.obj
 0001:001ca590       ?_Put@?$money_put@_WV?$ostreambuf_iterator@_WU?$char_traits@_W@std@@@std@@@std@@CA?AV?$ostreambuf_iterator@_WU?$char_traits@_W@std@@@2@V32@V?$_String_const_iterator@V?$_String_val@U?$_Simple_types@_W@std@@@std@@@2@I@Z 005cb590 f i libcpmtd:wlocale.obj
 0001:001ca630       ?_Put@?$num_put@GV?$ostreambuf_iterator@GU?$char_traits@G@std@@@std@@@std@@ABA?AV?$ostreambuf_iterator@GU?$char_traits@G@std@@@2@V32@PBGI@Z 005cb630 f i libcpmtd:wlocale.obj
 0001:001ca680       ?_Put@?$num_put@_WV?$ostreambuf_iterator@_WU?$char_traits@_W@std@@@std@@@std@@ABA?AV?$ostreambuf_iterator@_WU?$char_traits@_W@std@@@2@V32@PB_WI@Z 005cb680 f i libcpmtd:wlocale.obj
 0001:001ca6d0       ?_Putmfld@?$money_put@GV?$ostreambuf_iterator@GU?$char_traits@G@std@@@std@@@std@@ABE?AV?$ostreambuf_iterator@GU?$char_traits@G@std@@@2@V32@_NAAVios_base@2@G1V?$basic_string@GU?$char_traits@G@std@@V?$allocator@G@2@@2@G@Z 005cb6d0 f i libcpmtd:wlocale.obj
 0001:001cb3a0       ?_Putmfld@?$money_put@_WV?$ostreambuf_iterator@_WU?$char_traits@_W@std@@@std@@@std@@ABE?AV?$ostreambuf_iterator@_WU?$char_traits@_W@std@@@2@V32@_NAAVios_base@2@_W1V?$basic_string@_WU?$char_traits@_W@std@@V?$allocator@_W@2@@2@3@Z 005cc3a0 f i libcpmtd:wlocale.obj
 0001:001cc070       ?_Rep@?$money_put@GV?$ostreambuf_iterator@GU?$char_traits@G@std@@@std@@@std@@CA?AV?$ostreambuf_iterator@GU?$char_traits@G@std@@@2@V32@GI@Z 005cd070 f i libcpmtd:wlocale.obj
 0001:001cc0c0       ?_Rep@?$money_put@_WV?$ostreambuf_iterator@_WU?$char_traits@_W@std@@@std@@@std@@CA?AV?$ostreambuf_iterator@_WU?$char_traits@_W@std@@@2@V32@_WI@Z 005cd0c0 f i libcpmtd:wlocale.obj
 0001:001cc110       ?_Rep@?$num_put@GV?$ostreambuf_iterator@GU?$char_traits@G@std@@@std@@@std@@ABA?AV?$ostreambuf_iterator@GU?$char_traits@G@std@@@2@V32@GI@Z 005cd110 f i libcpmtd:wlocale.obj
 0001:001cc160       ?_Rep@?$num_put@_WV?$ostreambuf_iterator@_WU?$char_traits@_W@std@@@std@@@std@@ABA?AV?$ostreambuf_iterator@_WU?$char_traits@_W@std@@@2@V32@_WI@Z 005cd160 f i libcpmtd:wlocale.obj
 0001:001cc1b0       ?_Tidy@?$_Mpunct@G@std@@AAEXXZ 005cd1b0 f i libcpmtd:wlocale.obj
 0001:001cc200       ?_Tidy@?$_Mpunct@_W@std@@AAEXXZ 005cd200 f i libcpmtd:wlocale.obj
 0001:001cc250       ?_Tidy@?$basic_string@GU?$char_traits@G@std@@V?$allocator@G@2@@std@@QAEX_NI@Z 005cd250 f i libcpmtd:wlocale.obj
 0001:001cc300       ?_Tidy@?$basic_string@_WU?$char_traits@_W@std@@V?$allocator@_W@2@@std@@QAEX_NI@Z 005cd300 f i libcpmtd:wlocale.obj
 0001:001cc3b0       ?_Tidy@?$numpunct@G@std@@AAEXXZ 005cd3b0 f i libcpmtd:wlocale.obj
 0001:001cc3f0       ?_Tidy@?$numpunct@_W@std@@AAEXXZ 005cd3f0 f i libcpmtd:wlocale.obj
 0001:001cc430       ?_Tidy@?$time_get@GV?$istreambuf_iterator@GU?$char_traits@G@std@@@std@@@std@@AAEXXZ 005cd430 f i libcpmtd:wlocale.obj
 0001:001cc470       ?_Tidy@?$time_get@_WV?$istreambuf_iterator@_WU?$char_traits@_W@std@@@std@@@std@@AAEXXZ 005cd470 f i libcpmtd:wlocale.obj
 0001:001cc4b0       ?_W_Getdays@_Locinfo@std@@QBEPBGXZ 005cd4b0 f i libcpmtd:wlocale.obj
 0001:001cc520       ?_W_Getmonths@_Locinfo@std@@QBEPBGXZ 005cd520 f i libcpmtd:wlocale.obj
 0001:001cc590       ?_W_Gettnames@_Locinfo@std@@QBE?AV_Timevec@2@XZ 005cd590 f i libcpmtd:wlocale.obj
 0001:001cc5c0       ?_Xlen@?$basic_string@GU?$char_traits@G@std@@V?$allocator@G@2@@std@@QBEXXZ 005cd5c0 f i libcpmtd:wlocale.obj
 0001:001cc5e0       ?_Xlen@?$basic_string@_WU?$char_traits@_W@std@@V?$allocator@_W@2@@std@@QBEXXZ 005cd5e0 f i libcpmtd:wlocale.obj
 0001:001cc600       ?_Xran@?$basic_string@GU?$char_traits@G@std@@V?$allocator@G@2@@std@@QBEXXZ 005cd600 f i libcpmtd:wlocale.obj
 0001:001cc620       ?_Xran@?$basic_string@_WU?$char_traits@_W@std@@V?$allocator@_W@2@@std@@QBEXXZ 005cd620 f i libcpmtd:wlocale.obj
 0001:001cc640       ?allocate@?$_Wrap_alloc@V?$allocator@G@std@@@std@@QAEPAGI@Z 005cd640 f i libcpmtd:wlocale.obj
 0001:001cc660       ?allocate@?$_Wrap_alloc@V?$allocator@_W@std@@@std@@QAEPA_WI@Z 005cd660 f i libcpmtd:wlocale.obj
 0001:001cc680       ?allocate@?$allocator@G@std@@QAEPAGI@Z 005cd680 f i libcpmtd:wlocale.obj
 0001:001cc6a0       ?allocate@?$allocator@_W@std@@QAEPA_WI@Z 005cd6a0 f i libcpmtd:wlocale.obj
 0001:001cc6c0       ?append@?$basic_string@GU?$char_traits@G@std@@V?$allocator@G@2@@std@@QAEAAV12@ABV12@@Z 005cd6c0 f i libcpmtd:wlocale.obj
 0001:001cc6f0       ?append@?$basic_string@GU?$char_traits@G@std@@V?$allocator@G@2@@std@@QAEAAV12@ABV12@II@Z 005cd6f0 f i libcpmtd:wlocale.obj
 0001:001cc7b0       ?append@?$basic_string@GU?$char_traits@G@std@@V?$allocator@G@2@@std@@QAEAAV12@IG@Z 005cd7b0 f i libcpmtd:wlocale.obj
 0001:001cc830       ?append@?$basic_string@_WU?$char_traits@_W@std@@V?$allocator@_W@2@@std@@QAEAAV12@ABV12@@Z 005cd830 f i libcpmtd:wlocale.obj
 0001:001cc860       ?append@?$basic_string@_WU?$char_traits@_W@std@@V?$allocator@_W@2@@std@@QAEAAV12@ABV12@II@Z 005cd860 f i libcpmtd:wlocale.obj
 0001:001cc920       ?append@?$basic_string@_WU?$char_traits@_W@std@@V?$allocator@_W@2@@std@@QAEAAV12@I_W@Z 005cd920 f i libcpmtd:wlocale.obj
 0001:001cc9a0       ?assign@?$basic_string@GU?$char_traits@G@std@@V?$allocator@G@2@@std@@QAEAAV12@$$QAV12@@Z 005cd9a0 f i libcpmtd:wlocale.obj
 0001:001cca20       ?assign@?$basic_string@GU?$char_traits@G@std@@V?$allocator@G@2@@std@@QAEAAV12@ABV12@@Z 005cda20 f i libcpmtd:wlocale.obj
 0001:001cca50       ?assign@?$basic_string@GU?$char_traits@G@std@@V?$allocator@G@2@@std@@QAEAAV12@ABV12@II@Z 005cda50 f i libcpmtd:wlocale.obj
 0001:001ccb00       ?assign@?$basic_string@GU?$char_traits@G@std@@V?$allocator@G@2@@std@@QAEAAV12@IG@Z 005cdb00 f i libcpmtd:wlocale.obj
 0001:001ccb60       ?assign@?$basic_string@GU?$char_traits@G@std@@V?$allocator@G@2@@std@@QAEAAV12@PBG@Z 005cdb60 f i libcpmtd:wlocale.obj
 0001:001ccba0       ?assign@?$basic_string@GU?$char_traits@G@std@@V?$allocator@G@2@@std@@QAEAAV12@PBGI@Z 005cdba0 f i libcpmtd:wlocale.obj
 0001:001ccc40       ?assign@?$basic_string@_WU?$char_traits@_W@std@@V?$allocator@_W@2@@std@@QAEAAV12@$$QAV12@@Z 005cdc40 f i libcpmtd:wlocale.obj
 0001:001cccc0       ?assign@?$basic_string@_WU?$char_traits@_W@std@@V?$allocator@_W@2@@std@@QAEAAV12@ABV12@@Z 005cdcc0 f i libcpmtd:wlocale.obj
 0001:001cccf0       ?assign@?$basic_string@_WU?$char_traits@_W@std@@V?$allocator@_W@2@@std@@QAEAAV12@ABV12@II@Z 005cdcf0 f i libcpmtd:wlocale.obj
 0001:001ccda0       ?assign@?$basic_string@_WU?$char_traits@_W@std@@V?$allocator@_W@2@@std@@QAEAAV12@I_W@Z 005cdda0 f i libcpmtd:wlocale.obj
 0001:001cce00       ?assign@?$basic_string@_WU?$char_traits@_W@std@@V?$allocator@_W@2@@std@@QAEAAV12@PB_W@Z 005cde00 f i libcpmtd:wlocale.obj
 0001:001cce40       ?assign@?$basic_string@_WU?$char_traits@_W@std@@V?$allocator@_W@2@@std@@QAEAAV12@PB_WI@Z 005cde40 f i libcpmtd:wlocale.obj
 0001:001ccee0       ?assign@?$char_traits@G@std@@SAPAGPAGIG@Z 005cdee0 f i libcpmtd:wlocale.obj
 0001:001ccf00       ?assign@?$char_traits@G@std@@SAXAAGABG@Z 005cdf00 f i libcpmtd:wlocale.obj
 0001:001ccf20       ?assign@?$char_traits@_W@std@@SAPA_WPA_WI_W@Z 005cdf20 f i libcpmtd:wlocale.obj
 0001:001ccf40       ?assign@?$char_traits@_W@std@@SAXAA_WAB_W@Z 005cdf40 f i libcpmtd:wlocale.obj
 0001:001ccf60       ?begin@?$basic_string@GU?$char_traits@G@std@@V?$allocator@G@2@@std@@QAE?AV?$_String_iterator@V?$_String_val@U?$_Simple_types@G@std@@@std@@@2@XZ 005cdf60 f i libcpmtd:wlocale.obj
 0001:001ccf90       ?begin@?$basic_string@_WU?$char_traits@_W@std@@V?$allocator@_W@2@@std@@QAE?AV?$_String_iterator@V?$_String_val@U?$_Simple_types@_W@std@@@std@@@2@XZ 005cdf90 f i libcpmtd:wlocale.obj
 0001:001ccfc0       ?c_str@?$basic_string@GU?$char_traits@G@std@@V?$allocator@G@2@@std@@QBEPBGXZ 005cdfc0 f i libcpmtd:wlocale.obj
 0001:001ccfe0       ?c_str@?$basic_string@_WU?$char_traits@_W@std@@V?$allocator@_W@2@@std@@QBEPB_WXZ 005cdfe0 f i libcpmtd:wlocale.obj
 0001:001cd000       ?copy@?$char_traits@G@std@@SAPAGPAGPBGI@Z 005ce000 f i libcpmtd:wlocale.obj
 0001:001cd030       ?copy@?$char_traits@_W@std@@SAPA_WPA_WPB_WI@Z 005ce030 f i libcpmtd:wlocale.obj
 0001:001cd060       ?curr_symbol@?$_Mpunct@G@std@@QBE?AV?$basic_string@GU?$char_traits@G@std@@V?$allocator@G@2@@2@XZ 005ce060 f i libcpmtd:wlocale.obj
 0001:001cd0a0       ?curr_symbol@?$_Mpunct@_W@std@@QBE?AV?$basic_string@_WU?$char_traits@_W@std@@V?$allocator@_W@2@@2@XZ 005ce0a0 f i libcpmtd:wlocale.obj
 0001:001cd0e0       ?date_order@?$time_get@GV?$istreambuf_iterator@GU?$char_traits@G@std@@@std@@@std@@QBE?AW4dateorder@time_base@2@XZ 005ce0e0 f i libcpmtd:wlocale.obj
 0001:001cd100       ?date_order@?$time_get@_WV?$istreambuf_iterator@_WU?$char_traits@_W@std@@@std@@@std@@QBE?AW4dateorder@time_base@2@XZ 005ce100 f i libcpmtd:wlocale.obj
 0001:001cd120       ?deallocate@?$_Wrap_alloc@V?$allocator@G@std@@@std@@QAEXPAGI@Z 005ce120 f i libcpmtd:wlocale.obj
 0001:001cd140       ?deallocate@?$_Wrap_alloc@V?$allocator@_W@std@@@std@@QAEXPA_WI@Z 005ce140 f i libcpmtd:wlocale.obj
 0001:001cd160       ?deallocate@?$allocator@G@std@@QAEXPAGI@Z 005ce160 f i libcpmtd:wlocale.obj
 0001:001cd180       ?deallocate@?$allocator@_W@std@@QAEXPA_WI@Z 005ce180 f i libcpmtd:wlocale.obj
 0001:001cd1a0       ?decimal_point@?$_Mpunct@G@std@@QBEGXZ 005ce1a0 f i libcpmtd:wlocale.obj
 0001:001cd1c0       ?decimal_point@?$_Mpunct@_W@std@@QBE_WXZ 005ce1c0 f i libcpmtd:wlocale.obj
 0001:001cd1e0       ?decimal_point@?$numpunct@G@std@@QBEGXZ 005ce1e0 f i libcpmtd:wlocale.obj
 0001:001cd200       ?decimal_point@?$numpunct@_W@std@@QBE_WXZ 005ce200 f i libcpmtd:wlocale.obj
 0001:001cd220       ?do_always_noconv@?$codecvt@GDH@std@@MBE_NXZ 005ce220 f i libcpmtd:wlocale.obj
 0001:001cd230       ?do_always_noconv@?$codecvt@_WDH@std@@MBE_NXZ 005ce230 f i libcpmtd:wlocale.obj
 0001:001cd240       ?do_close@?$messages@G@std@@MBEXH@Z 005ce240 f i libcpmtd:wlocale.obj
 0001:001cd250       ?do_close@?$messages@_W@std@@MBEXH@Z 005ce250 f i libcpmtd:wlocale.obj
 0001:001cd260       ?do_compare@?$collate@G@std@@MBEHPBG000@Z 005ce260 f i libcpmtd:wlocale.obj
 0001:001cd2f0       ?do_compare@?$collate@_W@std@@MBEHPB_W000@Z 005ce2f0 f i libcpmtd:wlocale.obj
 0001:001cd380       ?do_curr_symbol@?$_Mpunct@G@std@@MBE?AV?$basic_string@GU?$char_traits@G@std@@V?$allocator@G@2@@2@XZ 005ce380 f i libcpmtd:wlocale.obj
 0001:001cd3c0       ?do_curr_symbol@?$_Mpunct@_W@std@@MBE?AV?$basic_string@_WU?$char_traits@_W@std@@V?$allocator@_W@2@@2@XZ 005ce3c0 f i libcpmtd:wlocale.obj
 0001:001cd400       ?do_date_order@?$time_get@GV?$istreambuf_iterator@GU?$char_traits@G@std@@@std@@@std@@MBE?AW4dateorder@time_base@2@XZ 005ce400 f i libcpmtd:wlocale.obj
 0001:001cd420       ?do_date_order@?$time_get@_WV?$istreambuf_iterator@_WU?$char_traits@_W@std@@@std@@@std@@MBE?AW4dateorder@time_base@2@XZ 005ce420 f i libcpmtd:wlocale.obj
 0001:001cd440       ?do_decimal_point@?$_Mpunct@G@std@@MBEGXZ 005ce440 f i libcpmtd:wlocale.obj
 0001:001cd460       ?do_decimal_point@?$_Mpunct@_W@std@@MBE_WXZ 005ce460 f i libcpmtd:wlocale.obj
 0001:001cd480       ?do_decimal_point@?$numpunct@G@std@@MBEGXZ 005ce480 f i libcpmtd:wlocale.obj
 0001:001cd4a0       ?do_decimal_point@?$numpunct@_W@std@@MBE_WXZ 005ce4a0 f i libcpmtd:wlocale.obj
 0001:001cd4c0       ?do_encoding@?$codecvt@GDH@std@@MBEHXZ 005ce4c0 f i libcpmtd:wlocale.obj
 0001:001cd4d0       ?do_encoding@?$codecvt@_WDH@std@@MBEHXZ 005ce4d0 f i libcpmtd:wlocale.obj
 0001:001cd4e0       ?do_falsename@?$numpunct@G@std@@MBE?AV?$basic_string@GU?$char_traits@G@std@@V?$allocator@G@2@@2@XZ 005ce4e0 f i libcpmtd:wlocale.obj
 0001:001cd520       ?do_falsename@?$numpunct@_W@std@@MBE?AV?$basic_string@_WU?$char_traits@_W@std@@V?$allocator@_W@2@@2@XZ 005ce520 f i libcpmtd:wlocale.obj
 0001:001cd560       ?do_frac_digits@?$_Mpunct@G@std@@MBEHXZ 005ce560 f i libcpmtd:wlocale.obj
 0001:001cd580       ?do_frac_digits@?$_Mpunct@_W@std@@MBEHXZ 005ce580 f i libcpmtd:wlocale.obj
 0001:001cd5a0       ?do_get@?$messages@G@std@@MBE?AV?$basic_string@GU?$char_traits@G@std@@V?$allocator@G@2@@2@HHHABV32@@Z 005ce5a0 f i libcpmtd:wlocale.obj
 0001:001cd5d0       ?do_get@?$messages@_W@std@@MBE?AV?$basic_string@_WU?$char_traits@_W@std@@V?$allocator@_W@2@@2@HHHABV32@@Z 005ce5d0 f i libcpmtd:wlocale.obj
 0001:001cd600       ?do_get@?$money_get@GV?$istreambuf_iterator@GU?$char_traits@G@std@@@std@@@std@@MBE?AV?$istreambuf_iterator@GU?$char_traits@G@std@@@2@V32@0_NAAVios_base@2@AAHAAO@Z 005ce600 f i libcpmtd:wlocale.obj
 0001:001cd720       ?do_get@?$money_get@GV?$istreambuf_iterator@GU?$char_traits@G@std@@@std@@@std@@MBE?AV?$istreambuf_iterator@GU?$char_traits@G@std@@@2@V32@0_NAAVios_base@2@AAHAAV?$basic_string@GU?$char_traits@G@std@@V?$allocator@G@2@@2@@Z 005ce720 f i libcpmtd:wlocale.obj
 0001:001cd890       ?do_get@?$money_get@_WV?$istreambuf_iterator@_WU?$char_traits@_W@std@@@std@@@std@@MBE?AV?$istreambuf_iterator@_WU?$char_traits@_W@std@@@2@V32@0_NAAVios_base@2@AAHAAO@Z 005ce890 f i libcpmtd:wlocale.obj
 0001:001cd9b0       ?do_get@?$money_get@_WV?$istreambuf_iterator@_WU?$char_traits@_W@std@@@std@@@std@@MBE?AV?$istreambuf_iterator@_WU?$char_traits@_W@std@@@2@V32@0_NAAVios_base@2@AAHAAV?$basic_string@_WU?$char_traits@_W@std@@V?$allocator@_W@2@@2@@Z 005ce9b0 f i libcpmtd:wlocale.obj
 0001:001cdb20       ?do_get@?$num_get@GV?$istreambuf_iterator@GU?$char_traits@G@std@@@std@@@std@@MBE?AV?$istreambuf_iterator@GU?$char_traits@G@std@@@2@V32@0AAVios_base@2@AAHAAG@Z 005ceb20 f i libcpmtd:wlocale.obj
 0001:001cdcb0       ?do_get@?$num_get@GV?$istreambuf_iterator@GU?$char_traits@G@std@@@std@@@std@@MBE?AV?$istreambuf_iterator@GU?$char_traits@G@std@@@2@V32@0AAVios_base@2@AAHAAI@Z 005cecb0 f i libcpmtd:wlocale.obj
 0001:001cde40       ?do_get@?$num_get@GV?$istreambuf_iterator@GU?$char_traits@G@std@@@std@@@std@@MBE?AV?$istreambuf_iterator@GU?$char_traits@G@std@@@2@V32@0AAVios_base@2@AAHAAJ@Z 005cee40 f i libcpmtd:wlocale.obj
 0001:001cdf80       ?do_get@?$num_get@GV?$istreambuf_iterator@GU?$char_traits@G@std@@@std@@@std@@MBE?AV?$istreambuf_iterator@GU?$char_traits@G@std@@@2@V32@0AAVios_base@2@AAHAAK@Z 005cef80 f i libcpmtd:wlocale.obj
 0001:001ce0c0       ?do_get@?$num_get@GV?$istreambuf_iterator@GU?$char_traits@G@std@@@std@@@std@@MBE?AV?$istreambuf_iterator@GU?$char_traits@G@std@@@2@V32@0AAVios_base@2@AAHAAM@Z 005cf0c0 f i libcpmtd:wlocale.obj
 0001:001ce1d0       ?do_get@?$num_get@GV?$istreambuf_iterator@GU?$char_traits@G@std@@@std@@@std@@MBE?AV?$istreambuf_iterator@GU?$char_traits@G@std@@@2@V32@0AAVios_base@2@AAHAAN@Z 005cf1d0 f i libcpmtd:wlocale.obj
 0001:001ce2e0       ?do_get@?$num_get@GV?$istreambuf_iterator@GU?$char_traits@G@std@@@std@@@std@@MBE?AV?$istreambuf_iterator@GU?$char_traits@G@std@@@2@V32@0AAVios_base@2@AAHAAO@Z 005cf2e0 f i libcpmtd:wlocale.obj
 0001:001ce3f0       ?do_get@?$num_get@GV?$istreambuf_iterator@GU?$char_traits@G@std@@@std@@@std@@MBE?AV?$istreambuf_iterator@GU?$char_traits@G@std@@@2@V32@0AAVios_base@2@AAHAAPAX@Z 005cf3f0 f i libcpmtd:wlocale.obj
 0001:001ce560       ?do_get@?$num_get@GV?$istreambuf_iterator@GU?$char_traits@G@std@@@std@@@std@@MBE?AV?$istreambuf_iterator@GU?$char_traits@G@std@@@2@V32@0AAVios_base@2@AAHAA_J@Z 005cf560 f i libcpmtd:wlocale.obj
 0001:001ce6a0       ?do_get@?$num_get@GV?$istreambuf_iterator@GU?$char_traits@G@std@@@std@@@std@@MBE?AV?$istreambuf_iterator@GU?$char_traits@G@std@@@2@V32@0AAVios_base@2@AAHAA_K@Z 005cf6a0 f i libcpmtd:wlocale.obj
 0001:001ce7e0       ?do_get@?$num_get@GV?$istreambuf_iterator@GU?$char_traits@G@std@@@std@@@std@@MBE?AV?$istreambuf_iterator@GU?$char_traits@G@std@@@2@V32@0AAVios_base@2@AAHAA_N@Z 005cf7e0 f i libcpmtd:wlocale.obj
 0001:001cead0       ?do_get@?$num_get@_WV?$istreambuf_iterator@_WU?$char_traits@_W@std@@@std@@@std@@MBE?AV?$istreambuf_iterator@_WU?$char_traits@_W@std@@@2@V32@0AAVios_base@2@AAHAAG@Z 005cfad0 f i libcpmtd:wlocale.obj
 0001:001cec60       ?do_get@?$num_get@_WV?$istreambuf_iterator@_WU?$char_traits@_W@std@@@std@@@std@@MBE?AV?$istreambuf_iterator@_WU?$char_traits@_W@std@@@2@V32@0AAVios_base@2@AAHAAI@Z 005cfc60 f i libcpmtd:wlocale.obj
 0001:001cedf0       ?do_get@?$num_get@_WV?$istreambuf_iterator@_WU?$char_traits@_W@std@@@std@@@std@@MBE?AV?$istreambuf_iterator@_WU?$char_traits@_W@std@@@2@V32@0AAVios_base@2@AAHAAJ@Z 005cfdf0 f i libcpmtd:wlocale.obj
 0001:001cef30       ?do_get@?$num_get@_WV?$istreambuf_iterator@_WU?$char_traits@_W@std@@@std@@@std@@MBE?AV?$istreambuf_iterator@_WU?$char_traits@_W@std@@@2@V32@0AAVios_base@2@AAHAAK@Z 005cff30 f i libcpmtd:wlocale.obj
 0001:001cf070       ?do_get@?$num_get@_WV?$istreambuf_iterator@_WU?$char_traits@_W@std@@@std@@@std@@MBE?AV?$istreambuf_iterator@_WU?$char_traits@_W@std@@@2@V32@0AAVios_base@2@AAHAAM@Z 005d0070 f i libcpmtd:wlocale.obj
 0001:001cf180       ?do_get@?$num_get@_WV?$istreambuf_iterator@_WU?$char_traits@_W@std@@@std@@@std@@MBE?AV?$istreambuf_iterator@_WU?$char_traits@_W@std@@@2@V32@0AAVios_base@2@AAHAAN@Z 005d0180 f i libcpmtd:wlocale.obj
 0001:001cf290       ?do_get@?$num_get@_WV?$istreambuf_iterator@_WU?$char_traits@_W@std@@@std@@@std@@MBE?AV?$istreambuf_iterator@_WU?$char_traits@_W@std@@@2@V32@0AAVios_base@2@AAHAAO@Z 005d0290 f i libcpmtd:wlocale.obj
 0001:001cf3a0       ?do_get@?$num_get@_WV?$istreambuf_iterator@_WU?$char_traits@_W@std@@@std@@@std@@MBE?AV?$istreambuf_iterator@_WU?$char_traits@_W@std@@@2@V32@0AAVios_base@2@AAHAAPAX@Z 005d03a0 f i libcpmtd:wlocale.obj
 0001:001cf510       ?do_get@?$num_get@_WV?$istreambuf_iterator@_WU?$char_traits@_W@std@@@std@@@std@@MBE?AV?$istreambuf_iterator@_WU?$char_traits@_W@std@@@2@V32@0AAVios_base@2@AAHAA_J@Z 005d0510 f i libcpmtd:wlocale.obj
 0001:001cf650       ?do_get@?$num_get@_WV?$istreambuf_iterator@_WU?$char_traits@_W@std@@@std@@@std@@MBE?AV?$istreambuf_iterator@_WU?$char_traits@_W@std@@@2@V32@0AAVios_base@2@AAHAA_K@Z 005d0650 f i libcpmtd:wlocale.obj
 0001:001cf790       ?do_get@?$num_get@_WV?$istreambuf_iterator@_WU?$char_traits@_W@std@@@std@@@std@@MBE?AV?$istreambuf_iterator@_WU?$char_traits@_W@std@@@2@V32@0AAVios_base@2@AAHAA_N@Z 005d0790 f i libcpmtd:wlocale.obj
 0001:001cfa80       ?do_get@?$time_get@GV?$istreambuf_iterator@GU?$char_traits@G@std@@@std@@@std@@MBE?AV?$istreambuf_iterator@GU?$char_traits@G@std@@@2@V32@0AAVios_base@2@AAHPAUtm@@DD@Z 005d0a80 f i libcpmtd:wlocale.obj
 0001:001d0140       ?do_get@?$time_get@_WV?$istreambuf_iterator@_WU?$char_traits@_W@std@@@std@@@std@@MBE?AV?$istreambuf_iterator@_WU?$char_traits@_W@std@@@2@V32@0AAVios_base@2@AAHPAUtm@@DD@Z 005d1140 f i libcpmtd:wlocale.obj
 0001:001d0800       ?do_get_date@?$time_get@GV?$istreambuf_iterator@GU?$char_traits@G@std@@@std@@@std@@MBE?AV?$istreambuf_iterator@GU?$char_traits@G@std@@@2@V32@0AAVios_base@2@AAHPAUtm@@@Z 005d1800 f i libcpmtd:wlocale.obj
 0001:001d0e00       ?do_get_date@?$time_get@_WV?$istreambuf_iterator@_WU?$char_traits@_W@std@@@std@@@std@@MBE?AV?$istreambuf_iterator@_WU?$char_traits@_W@std@@@2@V32@0AAVios_base@2@AAHPAUtm@@@Z 005d1e00 f i libcpmtd:wlocale.obj
 0001:001d1400       ?do_get_monthname@?$time_get@GV?$istreambuf_iterator@GU?$char_traits@G@std@@@std@@@std@@MBE?AV?$istreambuf_iterator@GU?$char_traits@G@std@@@2@V32@0AAVios_base@2@AAHPAUtm@@@Z 005d2400 f i libcpmtd:wlocale.obj
 0001:001d14a0       ?do_get_monthname@?$time_get@_WV?$istreambuf_iterator@_WU?$char_traits@_W@std@@@std@@@std@@MBE?AV?$istreambuf_iterator@_WU?$char_traits@_W@std@@@2@V32@0AAVios_base@2@AAHPAUtm@@@Z 005d24a0 f i libcpmtd:wlocale.obj
 0001:001d1540       ?do_get_time@?$time_get@GV?$istreambuf_iterator@GU?$char_traits@G@std@@@std@@@std@@MBE?AV?$istreambuf_iterator@GU?$char_traits@G@std@@@2@V32@0AAVios_base@2@AAHPAUtm@@@Z 005d2540 f i libcpmtd:wlocale.obj
 0001:001d1700       ?do_get_time@?$time_get@_WV?$istreambuf_iterator@_WU?$char_traits@_W@std@@@std@@@std@@MBE?AV?$istreambuf_iterator@_WU?$char_traits@_W@std@@@2@V32@0AAVios_base@2@AAHPAUtm@@@Z 005d2700 f i libcpmtd:wlocale.obj
 0001:001d18c0       ?do_get_weekday@?$time_get@GV?$istreambuf_iterator@GU?$char_traits@G@std@@@std@@@std@@MBE?AV?$istreambuf_iterator@GU?$char_traits@G@std@@@2@V32@0AAVios_base@2@AAHPAUtm@@@Z 005d28c0 f i libcpmtd:wlocale.obj
 0001:001d1960       ?do_get_weekday@?$time_get@_WV?$istreambuf_iterator@_WU?$char_traits@_W@std@@@std@@@std@@MBE?AV?$istreambuf_iterator@_WU?$char_traits@_W@std@@@2@V32@0AAVios_base@2@AAHPAUtm@@@Z 005d2960 f i libcpmtd:wlocale.obj
 0001:001d1a00       ?do_get_year@?$time_get@GV?$istreambuf_iterator@GU?$char_traits@G@std@@@std@@@std@@MBE?AV?$istreambuf_iterator@GU?$char_traits@G@std@@@2@V32@0AAVios_base@2@AAHPAUtm@@@Z 005d2a00 f i libcpmtd:wlocale.obj
 0001:001d1b30       ?do_get_year@?$time_get@_WV?$istreambuf_iterator@_WU?$char_traits@_W@std@@@std@@@std@@MBE?AV?$istreambuf_iterator@_WU?$char_traits@_W@std@@@2@V32@0AAVios_base@2@AAHPAUtm@@@Z 005d2b30 f i libcpmtd:wlocale.obj
 0001:001d1c60       ?do_grouping@?$_Mpunct@G@std@@MBE?AV?$basic_string@DU?$char_traits@D@std@@V?$allocator@D@2@@2@XZ 005d2c60 f i libcpmtd:wlocale.obj
 0001:001d1ca0       ?do_grouping@?$_Mpunct@_W@std@@MBE?AV?$basic_string@DU?$char_traits@D@std@@V?$allocator@D@2@@2@XZ 005d2ca0 f i libcpmtd:wlocale.obj
 0001:001d1ce0       ?do_grouping@?$numpunct@G@std@@MBE?AV?$basic_string@DU?$char_traits@D@std@@V?$allocator@D@2@@2@XZ 005d2ce0 f i libcpmtd:wlocale.obj
 0001:001d1d20       ?do_grouping@?$numpunct@_W@std@@MBE?AV?$basic_string@DU?$char_traits@D@std@@V?$allocator@D@2@@2@XZ 005d2d20 f i libcpmtd:wlocale.obj
 0001:001d1d60       ?do_hash@?$collate@G@std@@MBEJPBG0@Z 005d2d60 f i libcpmtd:wlocale.obj
 0001:001d1da0       ?do_hash@?$collate@_W@std@@MBEJPB_W0@Z 005d2da0 f i libcpmtd:wlocale.obj
 0001:001d1de0       ?do_in@?$codecvt@GDH@std@@MBEHAAHPBD1AAPBDPAG3AAPAG@Z 005d2de0 f i libcpmtd:wlocale.obj
 0001:001d1f20       ?do_in@?$codecvt@_WDH@std@@MBEHAAHPBD1AAPBDPA_W3AAPA_W@Z 005d2f20 f i libcpmtd:wlocale.obj
 0001:001d2060       ?do_is@?$ctype@G@std@@MBEPBGPBG0PAF@Z 005d3060 f i libcpmtd:wlocale.obj
 0001:001d20c0       ?do_is@?$ctype@G@std@@MBE_NFG@Z 005d30c0 f i libcpmtd:wlocale.obj
 0001:001d2110       ?do_is@?$ctype@_W@std@@MBEPB_WPB_W0PAF@Z 005d3110 f i libcpmtd:wlocale.obj
 0001:001d2170       ?do_is@?$ctype@_W@std@@MBE_NF_W@Z 005d3170 f i libcpmtd:wlocale.obj
 0001:001d21c0       ?do_length@?$codecvt@GDH@std@@MBEHAAHPBD1I@Z 005d31c0 f i libcpmtd:wlocale.obj
 0001:001d22a0       ?do_length@?$codecvt@_WDH@std@@MBEHAAHPBD1I@Z 005d32a0 f i libcpmtd:wlocale.obj
 0001:001d2380       ?do_max_length@?$codecvt@GDH@std@@MBEHXZ 005d3380 f i libcpmtd:wlocale.obj
 0001:001d2390       ?do_max_length@?$codecvt@_WDH@std@@MBEHXZ 005d3390 f i libcpmtd:wlocale.obj
 0001:001d23a0       ?do_narrow@?$ctype@G@std@@MBEDGD@Z 005d33a0 f i libcpmtd:wlocale.obj
 0001:001d23c0       ?do_narrow@?$ctype@G@std@@MBEPBGPBG0DPAD@Z 005d33c0 f i libcpmtd:wlocale.obj
 0001:001d2440       ?do_narrow@?$ctype@_W@std@@MBED_WD@Z 005d3440 f i libcpmtd:wlocale.obj
 0001:001d2460       ?do_narrow@?$ctype@_W@std@@MBEPB_WPB_W0DPAD@Z 005d3460 f i libcpmtd:wlocale.obj
 0001:001d24e0       ?do_neg_format@?$_Mpunct@G@std@@MBE?AUpattern@money_base@2@XZ 005d34e0 f i libcpmtd:wlocale.obj
 0001:001d2500       ?do_neg_format@?$_Mpunct@_W@std@@MBE?AUpattern@money_base@2@XZ 005d3500 f i libcpmtd:wlocale.obj
 0001:001d2520       ?do_negative_sign@?$_Mpunct@G@std@@MBE?AV?$basic_string@GU?$char_traits@G@std@@V?$allocator@G@2@@2@XZ 005d3520 f i libcpmtd:wlocale.obj
 0001:001d2560       ?do_negative_sign@?$_Mpunct@_W@std@@MBE?AV?$basic_string@_WU?$char_traits@_W@std@@V?$allocator@_W@2@@2@XZ 005d3560 f i libcpmtd:wlocale.obj
 0001:001d25a0       ?do_open@?$messages@G@std@@MBEHABV?$basic_string@DU?$char_traits@D@std@@V?$allocator@D@2@@2@ABVlocale@2@@Z 005d35a0 f i libcpmtd:wlocale.obj
 0001:001d25b0       ?do_open@?$messages@_W@std@@MBEHABV?$basic_string@DU?$char_traits@D@std@@V?$allocator@D@2@@2@ABVlocale@2@@Z 005d35b0 f i libcpmtd:wlocale.obj
 0001:001d25c0       ?do_out@?$codecvt@GDH@std@@MBEHAAHPBG1AAPBGPAD3AAPAD@Z 005d35c0 f i libcpmtd:wlocale.obj
 0001:001d2770       ?do_out@?$codecvt@_WDH@std@@MBEHAAHPB_W1AAPB_WPAD3AAPAD@Z 005d3770 f i libcpmtd:wlocale.obj
 0001:001d2920       ?do_pos_format@?$_Mpunct@G@std@@MBE?AUpattern@money_base@2@XZ 005d3920 f i libcpmtd:wlocale.obj
 0001:001d2940       ?do_pos_format@?$_Mpunct@_W@std@@MBE?AUpattern@money_base@2@XZ 005d3940 f i libcpmtd:wlocale.obj
 0001:001d2960       ?do_positive_sign@?$_Mpunct@G@std@@MBE?AV?$basic_string@GU?$char_traits@G@std@@V?$allocator@G@2@@2@XZ 005d3960 f i libcpmtd:wlocale.obj
 0001:001d29a0       ?do_positive_sign@?$_Mpunct@_W@std@@MBE?AV?$basic_string@_WU?$char_traits@_W@std@@V?$allocator@_W@2@@2@XZ 005d39a0 f i libcpmtd:wlocale.obj
 0001:001d29e0       ?do_put@?$money_put@GV?$ostreambuf_iterator@GU?$char_traits@G@std@@@std@@@std@@MBE?AV?$ostreambuf_iterator@GU?$char_traits@G@std@@@2@V32@_NAAVios_base@2@GABV?$basic_string@GU?$char_traits@G@std@@V?$allocator@G@2@@2@@Z 005d39e0 f i libcpmtd:wlocale.obj
 0001:001d2bc0       ?do_put@?$money_put@GV?$ostreambuf_iterator@GU?$char_traits@G@std@@@std@@@std@@MBE?AV?$ostreambuf_iterator@GU?$char_traits@G@std@@@2@V32@_NAAVios_base@2@GO@Z 005d3bc0 f i libcpmtd:wlocale.obj
 0001:001d2d80       ?do_put@?$money_put@_WV?$ostreambuf_iterator@_WU?$char_traits@_W@std@@@std@@@std@@MBE?AV?$ostreambuf_iterator@_WU?$char_traits@_W@std@@@2@V32@_NAAVios_base@2@_WABV?$basic_string@_WU?$char_traits@_W@std@@V?$allocator@_W@2@@2@@Z 005d3d80 f i libcpmtd:wlocale.obj
 0001:001d2f60       ?do_put@?$money_put@_WV?$ostreambuf_iterator@_WU?$char_traits@_W@std@@@std@@@std@@MBE?AV?$ostreambuf_iterator@_WU?$char_traits@_W@std@@@2@V32@_NAAVios_base@2@_WO@Z 005d3f60 f i libcpmtd:wlocale.obj
 0001:001d3120       ?do_put@?$num_put@GV?$ostreambuf_iterator@GU?$char_traits@G@std@@@std@@@std@@MBE?AV?$ostreambuf_iterator@GU?$char_traits@G@std@@@2@V32@AAVios_base@2@GJ@Z 005d4120 f i libcpmtd:wlocale.obj
 0001:001d31a0       ?do_put@?$num_put@GV?$ostreambuf_iterator@GU?$char_traits@G@std@@@std@@@std@@MBE?AV?$ostreambuf_iterator@GU?$char_traits@G@std@@@2@V32@AAVios_base@2@GK@Z 005d41a0 f i libcpmtd:wlocale.obj
 0001:001d3220       ?do_put@?$num_put@GV?$ostreambuf_iterator@GU?$char_traits@G@std@@@std@@@std@@MBE?AV?$ostreambuf_iterator@GU?$char_traits@G@std@@@2@V32@AAVios_base@2@GN@Z 005d4220 f i libcpmtd:wlocale.obj
 0001:001d34d0       ?do_put@?$num_put@GV?$ostreambuf_iterator@GU?$char_traits@G@std@@@std@@@std@@MBE?AV?$ostreambuf_iterator@GU?$char_traits@G@std@@@2@V32@AAVios_base@2@GO@Z 005d44d0 f i libcpmtd:wlocale.obj
 0001:001d3770       ?do_put@?$num_put@GV?$ostreambuf_iterator@GU?$char_traits@G@std@@@std@@@std@@MBE?AV?$ostreambuf_iterator@GU?$char_traits@G@std@@@2@V32@AAVios_base@2@GPBX@Z 005d4770 f i libcpmtd:wlocale.obj
 0001:001d37e0       ?do_put@?$num_put@GV?$ostreambuf_iterator@GU?$char_traits@G@std@@@std@@@std@@MBE?AV?$ostreambuf_iterator@GU?$char_traits@G@std@@@2@V32@AAVios_base@2@G_J@Z 005d47e0 f i libcpmtd:wlocale.obj
 0001:001d3870       ?do_put@?$num_put@GV?$ostreambuf_iterator@GU?$char_traits@G@std@@@std@@@std@@MBE?AV?$ostreambuf_iterator@GU?$char_traits@G@std@@@2@V32@AAVios_base@2@G_K@Z 005d4870 f i libcpmtd:wlocale.obj
 0001:001d3900       ?do_put@?$num_put@GV?$ostreambuf_iterator@GU?$char_traits@G@std@@@std@@@std@@MBE?AV?$ostreambuf_iterator@GU?$char_traits@G@std@@@2@V32@AAVios_base@2@G_N@Z 005d4900 f i libcpmtd:wlocale.obj
 0001:001d3b70       ?do_put@?$num_put@_WV?$ostreambuf_iterator@_WU?$char_traits@_W@std@@@std@@@std@@MBE?AV?$ostreambuf_iterator@_WU?$char_traits@_W@std@@@2@V32@AAVios_base@2@_WJ@Z 005d4b70 f i libcpmtd:wlocale.obj
 0001:001d3bf0       ?do_put@?$num_put@_WV?$ostreambuf_iterator@_WU?$char_traits@_W@std@@@std@@@std@@MBE?AV?$ostreambuf_iterator@_WU?$char_traits@_W@std@@@2@V32@AAVios_base@2@_WK@Z 005d4bf0 f i libcpmtd:wlocale.obj
 0001:001d3c70       ?do_put@?$num_put@_WV?$ostreambuf_iterator@_WU?$char_traits@_W@std@@@std@@@std@@MBE?AV?$ostreambuf_iterator@_WU?$char_traits@_W@std@@@2@V32@AAVios_base@2@_WN@Z 005d4c70 f i libcpmtd:wlocale.obj
 0001:001d3f20       ?do_put@?$num_put@_WV?$ostreambuf_iterator@_WU?$char_traits@_W@std@@@std@@@std@@MBE?AV?$ostreambuf_iterator@_WU?$char_traits@_W@std@@@2@V32@AAVios_base@2@_WO@Z 005d4f20 f i libcpmtd:wlocale.obj
 0001:001d41c0       ?do_put@?$num_put@_WV?$ostreambuf_iterator@_WU?$char_traits@_W@std@@@std@@@std@@MBE?AV?$ostreambuf_iterator@_WU?$char_traits@_W@std@@@2@V32@AAVios_base@2@_WPBX@Z 005d51c0 f i libcpmtd:wlocale.obj
 0001:001d4230       ?do_put@?$num_put@_WV?$ostreambuf_iterator@_WU?$char_traits@_W@std@@@std@@@std@@MBE?AV?$ostreambuf_iterator@_WU?$char_traits@_W@std@@@2@V32@AAVios_base@2@_W_J@Z 005d5230 f i libcpmtd:wlocale.obj
 0001:001d42c0       ?do_put@?$num_put@_WV?$ostreambuf_iterator@_WU?$char_traits@_W@std@@@std@@@std@@MBE?AV?$ostreambuf_iterator@_WU?$char_traits@_W@std@@@2@V32@AAVios_base@2@_W_K@Z 005d52c0 f i libcpmtd:wlocale.obj
 0001:001d4350       ?do_put@?$num_put@_WV?$ostreambuf_iterator@_WU?$char_traits@_W@std@@@std@@@std@@MBE?AV?$ostreambuf_iterator@_WU?$char_traits@_W@std@@@2@V32@AAVios_base@2@_W_N@Z 005d5350 f i libcpmtd:wlocale.obj
 0001:001d45c0       ?do_put@?$time_put@GV?$ostreambuf_iterator@GU?$char_traits@G@std@@@std@@@std@@MBE?AV?$ostreambuf_iterator@GU?$char_traits@G@std@@@2@V32@AAVios_base@2@GPBUtm@@DD@Z 005d55c0 f i libcpmtd:wlocale.obj
 0001:001d4780       ?do_put@?$time_put@_WV?$ostreambuf_iterator@_WU?$char_traits@_W@std@@@std@@@std@@MBE?AV?$ostreambuf_iterator@_WU?$char_traits@_W@std@@@2@V32@AAVios_base@2@_WPBUtm@@DD@Z 005d5780 f i libcpmtd:wlocale.obj
 0001:001d4940       ?do_scan_is@?$ctype@G@std@@MBEPBGFPBG0@Z 005d5940 f i libcpmtd:wlocale.obj
 0001:001d49a0       ?do_scan_is@?$ctype@_W@std@@MBEPB_WFPB_W0@Z 005d59a0 f i libcpmtd:wlocale.obj
 0001:001d4a00       ?do_scan_not@?$ctype@G@std@@MBEPBGFPBG0@Z 005d5a00 f i libcpmtd:wlocale.obj
 0001:001d4a60       ?do_scan_not@?$ctype@_W@std@@MBEPB_WFPB_W0@Z 005d5a60 f i libcpmtd:wlocale.obj
 0001:001d4ac0       ?do_thousands_sep@?$_Mpunct@G@std@@MBEGXZ 005d5ac0 f i libcpmtd:wlocale.obj
 0001:001d4ae0       ?do_thousands_sep@?$_Mpunct@_W@std@@MBE_WXZ 005d5ae0 f i libcpmtd:wlocale.obj
 0001:001d4b00       ?do_thousands_sep@?$numpunct@G@std@@MBEGXZ 005d5b00 f i libcpmtd:wlocale.obj
 0001:001d4b20       ?do_thousands_sep@?$numpunct@_W@std@@MBE_WXZ 005d5b20 f i libcpmtd:wlocale.obj
 0001:001d4b40       ?do_tolower@?$ctype@G@std@@MBEGG@Z 005d5b40 f i libcpmtd:wlocale.obj
 0001:001d4b70       ?do_tolower@?$ctype@G@std@@MBEPBGPAGPBG@Z 005d5b70 f i libcpmtd:wlocale.obj
 0001:001d4bd0       ?do_tolower@?$ctype@_W@std@@MBEPB_WPA_WPB_W@Z 005d5bd0 f i libcpmtd:wlocale.obj
 0001:001d4c30       ?do_tolower@?$ctype@_W@std@@MBE_W_W@Z 005d5c30 f i libcpmtd:wlocale.obj
 0001:001d4c60       ?do_toupper@?$ctype@G@std@@MBEGG@Z 005d5c60 f i libcpmtd:wlocale.obj
 0001:001d4c90       ?do_toupper@?$ctype@G@std@@MBEPBGPAGPBG@Z 005d5c90 f i libcpmtd:wlocale.obj
 0001:001d4cf0       ?do_toupper@?$ctype@_W@std@@MBEPB_WPA_WPB_W@Z 005d5cf0 f i libcpmtd:wlocale.obj
 0001:001d4d50       ?do_toupper@?$ctype@_W@std@@MBE_W_W@Z 005d5d50 f i libcpmtd:wlocale.obj
 0001:001d4d80       ?do_transform@?$collate@G@std@@MBE?AV?$basic_string@GU?$char_traits@G@std@@V?$allocator@G@2@@2@PBG0@Z 005d5d80 f i libcpmtd:wlocale.obj
 0001:001d4f00       ?do_transform@?$collate@_W@std@@MBE?AV?$basic_string@_WU?$char_traits@_W@std@@V?$allocator@_W@2@@2@PB_W0@Z 005d5f00 f i libcpmtd:wlocale.obj
 0001:001d5080       ?do_truename@?$numpunct@G@std@@MBE?AV?$basic_string@GU?$char_traits@G@std@@V?$allocator@G@2@@2@XZ 005d6080 f i libcpmtd:wlocale.obj
 0001:001d50c0       ?do_truename@?$numpunct@_W@std@@MBE?AV?$basic_string@_WU?$char_traits@_W@std@@V?$allocator@_W@2@@2@XZ 005d60c0 f i libcpmtd:wlocale.obj
 0001:001d5100       ?do_unshift@?$codecvt@GDH@std@@MBEHAAHPAD1AAPAD@Z 005d6100 f i libcpmtd:wlocale.obj
 0001:001d51e0       ?do_unshift@?$codecvt@_WDH@std@@MBEHAAHPAD1AAPAD@Z 005d61e0 f i libcpmtd:wlocale.obj
 0001:001d52c0       ?do_widen@?$ctype@G@std@@MBEGD@Z 005d62c0 f i libcpmtd:wlocale.obj
 0001:001d52e0       ?do_widen@?$ctype@G@std@@MBEPBDPBD0PAG@Z 005d62e0 f i libcpmtd:wlocale.obj
 0001:001d5360       ?do_widen@?$ctype@_W@std@@MBEPBDPBD0PA_W@Z 005d6360 f i libcpmtd:wlocale.obj
 0001:001d53e0       ?do_widen@?$ctype@_W@std@@MBE_WD@Z 005d63e0 f i libcpmtd:wlocale.obj
 0001:001d5400       ?empty@?$basic_string@GU?$char_traits@G@std@@V?$allocator@G@2@@std@@QBE_NXZ 005d6400 f i libcpmtd:wlocale.obj
 0001:001d5430       ?empty@?$basic_string@_WU?$char_traits@_W@std@@V?$allocator@_W@2@@std@@QBE_NXZ 005d6430 f i libcpmtd:wlocale.obj
 0001:001d5460       ?end@?$basic_string@GU?$char_traits@G@std@@V?$allocator@G@2@@std@@QAE?AV?$_String_iterator@V?$_String_val@U?$_Simple_types@G@std@@@std@@@2@XZ 005d6460 f i libcpmtd:wlocale.obj
 0001:001d5490       ?end@?$basic_string@_WU?$char_traits@_W@std@@V?$allocator@_W@2@@std@@QAE?AV?$_String_iterator@V?$_String_val@U?$_Simple_types@_W@std@@@std@@@2@XZ 005d6490 f i libcpmtd:wlocale.obj
 0001:001d54c0       ?eof@?$char_traits@G@std@@SAGXZ 005d64c0 f i libcpmtd:wlocale.obj
 0001:001d54d0       ?eof@?$char_traits@_W@std@@SAGXZ 005d64d0 f i libcpmtd:wlocale.obj
 0001:001d54e0       ?eq_int_type@?$char_traits@G@std@@SA_NABG0@Z 005d64e0 f i libcpmtd:wlocale.obj
 0001:001d5510       ?eq_int_type@?$char_traits@_W@std@@SA_NABG0@Z 005d6510 f i libcpmtd:wlocale.obj
 0001:001d5540       ?equal@?$istreambuf_iterator@GU?$char_traits@G@std@@@std@@QBE_NABV12@@Z 005d6540 f i libcpmtd:wlocale.obj
 0001:001d55b0       ?equal@?$istreambuf_iterator@_WU?$char_traits@_W@std@@@std@@QBE_NABV12@@Z 005d65b0 f i libcpmtd:wlocale.obj
 0001:001d5620       ?erase@?$basic_string@GU?$char_traits@G@std@@V?$allocator@G@2@@std@@QAEAAV12@I@Z 005d6620 f i libcpmtd:wlocale.obj
 0001:001d5650       ?erase@?$basic_string@GU?$char_traits@G@std@@V?$allocator@G@2@@std@@QAEAAV12@II@Z 005d6650 f i libcpmtd:wlocale.obj
 0001:001d56e0       ?erase@?$basic_string@_WU?$char_traits@_W@std@@V?$allocator@_W@2@@std@@QAEAAV12@I@Z 005d66e0 f i libcpmtd:wlocale.obj
 0001:001d5710       ?erase@?$basic_string@_WU?$char_traits@_W@std@@V?$allocator@_W@2@@std@@QAEAAV12@II@Z 005d6710 f i libcpmtd:wlocale.obj
 0001:001d57a0       ?falsename@?$numpunct@G@std@@QBE?AV?$basic_string@GU?$char_traits@G@std@@V?$allocator@G@2@@2@XZ 005d67a0 f i libcpmtd:wlocale.obj
 0001:001d57e0       ?falsename@?$numpunct@_W@std@@QBE?AV?$basic_string@_WU?$char_traits@_W@std@@V?$allocator@_W@2@@2@XZ 005d67e0 f i libcpmtd:wlocale.obj
 0001:001d5820       ?frac_digits@?$_Mpunct@G@std@@QBEHXZ 005d6820 f i libcpmtd:wlocale.obj
 0001:001d5840       ?frac_digits@?$_Mpunct@_W@std@@QBEHXZ 005d6840 f i libcpmtd:wlocale.obj
 0001:001d5860       ?get_allocator@?$basic_string@GU?$char_traits@G@std@@V?$allocator@G@2@@std@@QBE?AV?$allocator@G@2@XZ 005d6860 f i libcpmtd:wlocale.obj
 0001:001d5890       ?get_allocator@?$basic_string@_WU?$char_traits@_W@std@@V?$allocator@_W@2@@std@@QBE?AV?$allocator@_W@2@XZ 005d6890 f i libcpmtd:wlocale.obj
 0001:001d58c0       ?get_monthname@?$time_get@GV?$istreambuf_iterator@GU?$char_traits@G@std@@@std@@@std@@QBE?AV?$istreambuf_iterator@GU?$char_traits@G@std@@@2@V32@0AAVios_base@2@AAHPAUtm@@@Z 005d68c0 f i libcpmtd:wlocale.obj
 0001:001d5900       ?get_monthname@?$time_get@_WV?$istreambuf_iterator@_WU?$char_traits@_W@std@@@std@@@std@@QBE?AV?$istreambuf_iterator@_WU?$char_traits@_W@std@@@2@V32@0AAVios_base@2@AAHPAUtm@@@Z 005d6900 f i libcpmtd:wlocale.obj
 0001:001d5940       ?get_weekday@?$time_get@GV?$istreambuf_iterator@GU?$char_traits@G@std@@@std@@@std@@QBE?AV?$istreambuf_iterator@GU?$char_traits@G@std@@@2@V32@0AAVios_base@2@AAHPAUtm@@@Z 005d6940 f i libcpmtd:wlocale.obj
 0001:001d5980       ?get_weekday@?$time_get@_WV?$istreambuf_iterator@_WU?$char_traits@_W@std@@@std@@@std@@QBE?AV?$istreambuf_iterator@_WU?$char_traits@_W@std@@@2@V32@0AAVios_base@2@AAHPAUtm@@@Z 005d6980 f i libcpmtd:wlocale.obj
 0001:001d59c0       ?get_year@?$time_get@GV?$istreambuf_iterator@GU?$char_traits@G@std@@@std@@@std@@QBE?AV?$istreambuf_iterator@GU?$char_traits@G@std@@@2@V32@0AAVios_base@2@AAHPAUtm@@@Z 005d69c0 f i libcpmtd:wlocale.obj
 0001:001d5a00       ?get_year@?$time_get@_WV?$istreambuf_iterator@_WU?$char_traits@_W@std@@@std@@@std@@QBE?AV?$istreambuf_iterator@_WU?$char_traits@_W@std@@@2@V32@0AAVios_base@2@AAHPAUtm@@@Z 005d6a00 f i libcpmtd:wlocale.obj
 0001:001d5a40       ?gptr@?$basic_streambuf@GU?$char_traits@G@std@@@std@@IBEPAGXZ 005d6a40 f i libcpmtd:wlocale.obj
 0001:001d5a60       ?gptr@?$basic_streambuf@_WU?$char_traits@_W@std@@@std@@IBEPA_WXZ 005d6a60 f i libcpmtd:wlocale.obj
 0001:001d5a80       ?grouping@?$_Mpunct@G@std@@QBE?AV?$basic_string@DU?$char_traits@D@std@@V?$allocator@D@2@@2@XZ 005d6a80 f i libcpmtd:wlocale.obj
 0001:001d5ac0       ?grouping@?$_Mpunct@_W@std@@QBE?AV?$basic_string@DU?$char_traits@D@std@@V?$allocator@D@2@@2@XZ 005d6ac0 f i libcpmtd:wlocale.obj
 0001:001d5b00       ?grouping@?$numpunct@G@std@@QBE?AV?$basic_string@DU?$char_traits@D@std@@V?$allocator@D@2@@2@XZ 005d6b00 f i libcpmtd:wlocale.obj
 0001:001d5b40       ?grouping@?$numpunct@_W@std@@QBE?AV?$basic_string@DU?$char_traits@D@std@@V?$allocator@D@2@@2@XZ 005d6b40 f i libcpmtd:wlocale.obj
 0001:001d5b80       ?insert@?$basic_string@GU?$char_traits@G@std@@V?$allocator@G@2@@std@@QAEAAV12@IIG@Z 005d6b80 f i libcpmtd:wlocale.obj
 0001:001d5c40       ?insert@?$basic_string@_WU?$char_traits@_W@std@@V?$allocator@_W@2@@std@@QAEAAV12@II_W@Z 005d6c40 f i libcpmtd:wlocale.obj
 0001:001d5d00       ?is@?$ctype@G@std@@QBE_NFG@Z 005d6d00 f i libcpmtd:wlocale.obj
 0001:001d5d30       ?is@?$ctype@_W@std@@QBE_NF_W@Z 005d6d30 f i libcpmtd:wlocale.obj
 0001:001d5d60       ?length@?$char_traits@G@std@@SAIPBG@Z 005d6d60 f i libcpmtd:wlocale.obj
 0001:001d5d90       ?length@?$char_traits@_W@std@@SAIPB_W@Z 005d6d90 f i libcpmtd:wlocale.obj
 0001:001d5dc0       ?max_size@?$_Wrap_alloc@V?$allocator@G@std@@@std@@QBEIXZ 005d6dc0 f i libcpmtd:wlocale.obj
 0001:001d5de0       ?max_size@?$_Wrap_alloc@V?$allocator@_W@std@@@std@@QBEIXZ 005d6de0 f i libcpmtd:wlocale.obj
 0001:001d5e00       ?max_size@?$allocator@G@std@@QBEIXZ 005d6e00 f i libcpmtd:wlocale.obj
 0001:001d5e10       ?max_size@?$allocator@_W@std@@QBEIXZ 005d6e10 f i libcpmtd:wlocale.obj
 0001:001d5e20       ?max_size@?$allocator_traits@V?$allocator@G@std@@@std@@SAIABV?$allocator@G@2@@Z 005d6e20 f i libcpmtd:wlocale.obj
 0001:001d5e30       ?max_size@?$allocator_traits@V?$allocator@_W@std@@@std@@SAIABV?$allocator@_W@2@@Z 005d6e30 f i libcpmtd:wlocale.obj
 0001:001d5e40       ?max_size@?$basic_string@GU?$char_traits@G@std@@V?$allocator@G@2@@std@@QBEIXZ 005d6e40 f i libcpmtd:wlocale.obj
 0001:001d5e80       ?max_size@?$basic_string@_WU?$char_traits@_W@std@@V?$allocator@_W@2@@std@@QBEIXZ 005d6e80 f i libcpmtd:wlocale.obj
 0001:001d5ec0       ?move@?$char_traits@G@std@@SAPAGPAGPBGI@Z 005d6ec0 f i libcpmtd:wlocale.obj
 0001:001d5ef0       ?move@?$char_traits@_W@std@@SAPA_WPA_WPB_WI@Z 005d6ef0 f i libcpmtd:wlocale.obj
 0001:001d5f20       ?name@locale@std@@QBE?AV?$basic_string@DU?$char_traits@D@std@@V?$allocator@D@2@@2@XZ 005d6f20 f i libcpmtd:wlocale.obj
 0001:001d6020       ?narrow@?$ctype@G@std@@QBEDGD@Z 005d7020 f i libcpmtd:wlocale.obj
 0001:001d6050       ?narrow@?$ctype@_W@std@@QBED_WD@Z 005d7050 f i libcpmtd:wlocale.obj
 0001:001d6080       ?neg_format@?$_Mpunct@G@std@@QBE?AUpattern@money_base@2@XZ 005d7080 f i libcpmtd:wlocale.obj
 0001:001d60b0       ?neg_format@?$_Mpunct@_W@std@@QBE?AUpattern@money_base@2@XZ 005d70b0 f i libcpmtd:wlocale.obj
 0001:001d60e0       ?negative_sign@?$_Mpunct@G@std@@QBE?AV?$basic_string@GU?$char_traits@G@std@@V?$allocator@G@2@@2@XZ 005d70e0 f i libcpmtd:wlocale.obj
 0001:001d6120       ?negative_sign@?$_Mpunct@_W@std@@QBE?AV?$basic_string@_WU?$char_traits@_W@std@@V?$allocator@_W@2@@2@XZ 005d7120 f i libcpmtd:wlocale.obj
 0001:001d6160       ?pos_format@?$_Mpunct@G@std@@QBE?AUpattern@money_base@2@XZ 005d7160 f i libcpmtd:wlocale.obj
 0001:001d6190       ?pos_format@?$_Mpunct@_W@std@@QBE?AUpattern@money_base@2@XZ 005d7190 f i libcpmtd:wlocale.obj
 0001:001d61c0       ?positive_sign@?$_Mpunct@G@std@@QBE?AV?$basic_string@GU?$char_traits@G@std@@V?$allocator@G@2@@2@XZ 005d71c0 f i libcpmtd:wlocale.obj
 0001:001d6200       ?positive_sign@?$_Mpunct@_W@std@@QBE?AV?$basic_string@_WU?$char_traits@_W@std@@V?$allocator@_W@2@@2@XZ 005d7200 f i libcpmtd:wlocale.obj
 0001:001d6240       ?replace@?$basic_string@GU?$char_traits@G@std@@V?$allocator@G@2@@std@@QAEAAV12@IIABV12@II@Z 005d7240 f i libcpmtd:wlocale.obj
 0001:001d6560       ?replace@?$basic_string@GU?$char_traits@G@std@@V?$allocator@G@2@@std@@QAEAAV12@IIPBGI@Z 005d7560 f i libcpmtd:wlocale.obj
 0001:001d6700       ?replace@?$basic_string@GU?$char_traits@G@std@@V?$allocator@G@2@@std@@QAEAAV12@V?$_String_const_iterator@V?$_String_val@U?$_Simple_types@G@std@@@std@@@2@0V?$_String_iterator@V?$_String_val@U?$_Simple_types@G@std@@@std@@@2@1@Z 005d7700 f i libcpmtd:wlocale.obj
 0001:001d6930       ?replace@?$basic_string@_WU?$char_traits@_W@std@@V?$allocator@_W@2@@std@@QAEAAV12@IIABV12@II@Z 005d7930 f i libcpmtd:wlocale.obj
 0001:001d6c50       ?replace@?$basic_string@_WU?$char_traits@_W@std@@V?$allocator@_W@2@@std@@QAEAAV12@IIPB_WI@Z 005d7c50 f i libcpmtd:wlocale.obj
 0001:001d6df0       ?replace@?$basic_string@_WU?$char_traits@_W@std@@V?$allocator@_W@2@@std@@QAEAAV12@V?$_String_const_iterator@V?$_String_val@U?$_Simple_types@_W@std@@@std@@@2@0V?$_String_iterator@V?$_String_val@U?$_Simple_types@_W@std@@@std@@@2@1@Z 005d7df0 f i libcpmtd:wlocale.obj
 0001:001d7020       ?resize@?$basic_string@GU?$char_traits@G@std@@V?$allocator@G@2@@std@@QAEXI@Z 005d8020 f i libcpmtd:wlocale.obj
 0001:001d7040       ?resize@?$basic_string@GU?$char_traits@G@std@@V?$allocator@G@2@@std@@QAEXIG@Z 005d8040 f i libcpmtd:wlocale.obj
 0001:001d7080       ?resize@?$basic_string@_WU?$char_traits@_W@std@@V?$allocator@_W@2@@std@@QAEXI@Z 005d8080 f i libcpmtd:wlocale.obj
 0001:001d70a0       ?resize@?$basic_string@_WU?$char_traits@_W@std@@V?$allocator@_W@2@@std@@QAEXI_W@Z 005d80a0 f i libcpmtd:wlocale.obj
 0001:001d70e0       ?sbumpc@?$basic_streambuf@GU?$char_traits@G@std@@@std@@QAEGXZ 005d80e0 f i libcpmtd:wlocale.obj
 0001:001d7140       ?sbumpc@?$basic_streambuf@_WU?$char_traits@_W@std@@@std@@QAEGXZ 005d8140 f i libcpmtd:wlocale.obj
 0001:001d71a0       ?select_on_container_copy_construction@?$_Wrap_alloc@V?$allocator@G@std@@@std@@QBE?AU12@XZ 005d81a0 f i libcpmtd:wlocale.obj
 0001:001d71d0       ?select_on_container_copy_construction@?$_Wrap_alloc@V?$allocator@_W@std@@@std@@QBE?AU12@XZ 005d81d0 f i libcpmtd:wlocale.obj
 0001:001d7200       ?select_on_container_copy_construction@?$allocator@G@std@@QBE?AV12@XZ 005d8200 f i libcpmtd:wlocale.obj
 0001:001d7220       ?select_on_container_copy_construction@?$allocator@_W@std@@QBE?AV12@XZ 005d8220 f i libcpmtd:wlocale.obj
 0001:001d7240       ?select_on_container_copy_construction@?$allocator_traits@V?$allocator@G@std@@@std@@SA?AV?$allocator@G@2@ABV32@@Z 005d8240 f i libcpmtd:wlocale.obj
 0001:001d7260       ?select_on_container_copy_construction@?$allocator_traits@V?$allocator@_W@std@@@std@@SA?AV?$allocator@_W@2@ABV32@@Z 005d8260 f i libcpmtd:wlocale.obj
 0001:001d7280       ?sgetc@?$basic_streambuf@GU?$char_traits@G@std@@@std@@QAEGXZ 005d8280 f i libcpmtd:wlocale.obj
 0001:001d72e0       ?sgetc@?$basic_streambuf@_WU?$char_traits@_W@std@@@std@@QAEGXZ 005d82e0 f i libcpmtd:wlocale.obj
 0001:001d7340       ?size@?$basic_string@GU?$char_traits@G@std@@V?$allocator@G@2@@std@@QBEIXZ 005d8340 f i libcpmtd:wlocale.obj
 0001:001d7360       ?size@?$basic_string@_WU?$char_traits@_W@std@@V?$allocator@_W@2@@std@@QBEIXZ 005d8360 f i libcpmtd:wlocale.obj
 0001:001d7380       ?sputc@?$basic_streambuf@GU?$char_traits@G@std@@@std@@QAEGG@Z 005d8380 f i libcpmtd:wlocale.obj
 0001:001d7400       ?sputc@?$basic_streambuf@_WU?$char_traits@_W@std@@@std@@QAEG_W@Z 005d8400 f i libcpmtd:wlocale.obj
 0001:001d7480       ?thousands_sep@?$_Mpunct@G@std@@QBEGXZ 005d8480 f i libcpmtd:wlocale.obj
 0001:001d74a0       ?thousands_sep@?$_Mpunct@_W@std@@QBE_WXZ 005d84a0 f i libcpmtd:wlocale.obj
 0001:001d74c0       ?thousands_sep@?$numpunct@G@std@@QBEGXZ 005d84c0 f i libcpmtd:wlocale.obj
 0001:001d74e0       ?thousands_sep@?$numpunct@_W@std@@QBE_WXZ 005d84e0 f i libcpmtd:wlocale.obj
 0001:001d7500       ?to_char_type@?$char_traits@G@std@@SAGABG@Z 005d8500 f i libcpmtd:wlocale.obj
 0001:001d7510       ?to_char_type@?$char_traits@_W@std@@SA_WABG@Z 005d8510 f i libcpmtd:wlocale.obj
 0001:001d7520       ?to_int_type@?$char_traits@G@std@@SAGABG@Z 005d8520 f i libcpmtd:wlocale.obj
 0001:001d7530       ?to_int_type@?$char_traits@_W@std@@SAGAB_W@Z 005d8530 f i libcpmtd:wlocale.obj
 0001:001d7540       ?truename@?$numpunct@G@std@@QBE?AV?$basic_string@GU?$char_traits@G@std@@V?$allocator@G@2@@2@XZ 005d8540 f i libcpmtd:wlocale.obj
 0001:001d7580       ?truename@?$numpunct@_W@std@@QBE?AV?$basic_string@_WU?$char_traits@_W@std@@V?$allocator@_W@2@@2@XZ 005d8580 f i libcpmtd:wlocale.obj
 0001:001d75c0       ?widen@?$ctype@G@std@@QBEGD@Z 005d85c0 f i libcpmtd:wlocale.obj
 0001:001d75e0       ?widen@?$ctype@G@std@@QBEPBDPBD0PAG@Z 005d85e0 f i libcpmtd:wlocale.obj
 0001:001d7610       ?widen@?$ctype@_W@std@@QBEPBDPBD0PA_W@Z 005d8610 f i libcpmtd:wlocale.obj
 0001:001d7640       ?widen@?$ctype@_W@std@@QBE_WD@Z 005d8640 f i libcpmtd:wlocale.obj
 0001:001d7660       _wmemcpy                   005d8660 f i libcpmtd:wlocale.obj
 0001:001d7680       _wmemmove                  005d8680 f i libcpmtd:wlocale.obj
 0001:001d76a0       _wmemset                   005d86a0 f i libcpmtd:wlocale.obj
 0001:001d76e0       ??$_Copy_impl@PADV?$ostreambuf_iterator@DU?$char_traits@D@std@@@std@@@std@@YA?AV?$ostreambuf_iterator@DU?$char_traits@D@std@@@0@PAD0V10@@Z 005d86e0 f i libcpmtd:xlocale.obj
 0001:001d7720       ??$_Copy_impl@PADV?$ostreambuf_iterator@DU?$char_traits@D@std@@@std@@@std@@YA?AV?$ostreambuf_iterator@DU?$char_traits@D@std@@@0@PAD0V10@U?$integral_constant@_N$00@0@@Z 005d8720 f i libcpmtd:xlocale.obj
 0001:001d7780       ??$_Copy_impl@PADV?$ostreambuf_iterator@DU?$char_traits@D@std@@@std@@@std@@YA?AV?$ostreambuf_iterator@DU?$char_traits@D@std@@@0@PAD0V10@U_Nonscalar_ptr_iterator_tag@0@@Z 005d8780 f i libcpmtd:xlocale.obj
 0001:001d77d0       ??$_Copy_impl@PADV?$ostreambuf_iterator@DU?$char_traits@D@std@@@std@@@std@@YA?AV?$ostreambuf_iterator@DU?$char_traits@D@std@@@0@PAD0V10@Uinput_iterator_tag@0@U_Mutable_iterator_tag@0@@Z 005d87d0 f i libcpmtd:xlocale.obj
 0001:001d7800       ??$_Getvals@D@?$_Mpunct@D@std@@IAEXDPBUlconv@@@Z 005d8800 f i libcpmtd:xlocale.obj
 0001:001d7910       ??$_Getvals@D@?$time_get@DV?$istreambuf_iterator@DU?$char_traits@D@std@@@std@@@std@@IAEXDABV_Locinfo@1@@Z 005d8910 f i libcpmtd:xlocale.obj
 0001:001d79b0       ??$_Is_checked@V?$ostreambuf_iterator@DU?$char_traits@D@std@@@std@@@std@@YA?AU?$integral_constant@_N$00@0@V?$ostreambuf_iterator@DU?$char_traits@D@std@@@0@@Z 005d89b0 f i libcpmtd:xlocale.obj
 0001:001d79c0       ??$_Iter_cat@V?$ostreambuf_iterator@DU?$char_traits@D@std@@@std@@@std@@YA?AUoutput_iterator_tag@0@ABV?$ostreambuf_iterator@DU?$char_traits@D@std@@@0@@Z 005d89c0 f i libcpmtd:xlocale.obj
 0001:001d79d0       ??$_LStrcoll@D@std@@YAHPBD000PBU_Collvec@@@Z 005d89d0 f i libcpmtd:xlocale.obj
 0001:001d7a00       ??$_LStrxfrm@D@std@@YAIPAD0PBD1PBU_Collvec@@@Z 005d8a00 f i libcpmtd:xlocale.obj
 0001:001d7a30       ??$_Ptr_cat@PADV?$ostreambuf_iterator@DU?$char_traits@D@std@@@std@@@std@@YA?AU_Nonscalar_ptr_iterator_tag@0@AAPADAAV?$ostreambuf_iterator@DU?$char_traits@D@std@@@0@@Z 005d8a30 f i libcpmtd:xlocale.obj
 0001:001d7a40       ??$_Unchecked@PAD@std@@YAPADPAD@Z 005d8a40 f i libcpmtd:xlocale.obj
 0001:001d7a50       ??$copy@PADV?$ostreambuf_iterator@DU?$char_traits@D@std@@@std@@@std@@YA?AV?$ostreambuf_iterator@DU?$char_traits@D@std@@@0@PAD0V10@@Z 005d8a50 f i libcpmtd:xlocale.obj
 0001:001d7af0       ??$use_facet@V?$collate@D@std@@@std@@YAABV?$collate@D@0@ABVlocale@0@@Z 005d8af0 f i libcpmtd:xlocale.obj
 0001:001d7bf0       ??$use_facet@V?$messages@D@std@@@std@@YAABV?$messages@D@0@ABVlocale@0@@Z 005d8bf0 f i libcpmtd:xlocale.obj
 0001:001d7cf0       ??$use_facet@V?$money_get@DV?$istreambuf_iterator@DU?$char_traits@D@std@@@std@@@std@@@std@@YAABV?$money_get@DV?$istreambuf_iterator@DU?$char_traits@D@std@@@std@@@0@ABVlocale@0@@Z 005d8cf0 f i libcpmtd:xlocale.obj
 0001:001d7df0       ??$use_facet@V?$money_put@DV?$ostreambuf_iterator@DU?$char_traits@D@std@@@std@@@std@@@std@@YAABV?$money_put@DV?$ostreambuf_iterator@DU?$char_traits@D@std@@@std@@@0@ABVlocale@0@@Z 005d8df0 f i libcpmtd:xlocale.obj
 0001:001d7ef0       ??$use_facet@V?$moneypunct@D$00@std@@@std@@YAABV?$moneypunct@D$00@0@ABVlocale@0@@Z 005d8ef0 f i libcpmtd:xlocale.obj
 0001:001d7ff0       ??$use_facet@V?$moneypunct@D$0A@@std@@@std@@YAABV?$moneypunct@D$0A@@0@ABVlocale@0@@Z 005d8ff0 f i libcpmtd:xlocale.obj
 0001:001d80f0       ??$use_facet@V?$time_get@DV?$istreambuf_iterator@DU?$char_traits@D@std@@@std@@@std@@@std@@YAABV?$time_get@DV?$istreambuf_iterator@DU?$char_traits@D@std@@@std@@@0@ABVlocale@0@@Z 005d90f0 f i libcpmtd:xlocale.obj
 0001:001d81f0       ??$use_facet@V?$time_put@DV?$ostreambuf_iterator@DU?$char_traits@D@std@@@std@@@std@@@std@@YAABV?$time_put@DV?$ostreambuf_iterator@DU?$char_traits@D@std@@@std@@@0@ABVlocale@0@@Z 005d91f0 f i libcpmtd:xlocale.obj
 0001:001d82f0       ??0?$_Mpunct@D@std@@QAE@ABV_Locinfo@1@I_N1@Z 005d92f0 f i libcpmtd:xlocale.obj
 0001:001d8370       ??0?$_String_const_iterator@V?$_String_val@U?$_Simple_types@D@std@@@std@@@std@@QAE@XZ 005d9370 f i libcpmtd:xlocale.obj
 0001:001d8390       ??0?$basic_string@DU?$char_traits@D@std@@V?$allocator@D@2@@std@@QAE@PBDI@Z 005d9390 f i libcpmtd:xlocale.obj
 0001:001d8410       ??0?$collate@D@std@@QAE@ABV_Locinfo@1@I@Z 005d9410 f i libcpmtd:xlocale.obj
 0001:001d8480       ??0?$messages@D@std@@QAE@ABV_Locinfo@1@I@Z 005d9480 f i libcpmtd:xlocale.obj
 0001:001d84f0       ??0?$money_get@DV?$istreambuf_iterator@DU?$char_traits@D@std@@@std@@@std@@QAE@ABV_Locinfo@1@I@Z 005d94f0 f i libcpmtd:xlocale.obj
 0001:001d8560       ??0?$money_put@DV?$ostreambuf_iterator@DU?$char_traits@D@std@@@std@@@std@@QAE@ABV_Locinfo@1@I@Z 005d9560 f i libcpmtd:xlocale.obj
 0001:001d85d0       ??0?$moneypunct@D$00@std@@QAE@ABV_Locinfo@1@I_N@Z 005d95d0 f i libcpmtd:xlocale.obj
 0001:001d8600       ??0?$moneypunct@D$0A@@std@@QAE@ABV_Locinfo@1@I_N@Z 005d9600 f i libcpmtd:xlocale.obj
 0001:001d8630       ??0?$time_get@DV?$istreambuf_iterator@DU?$char_traits@D@std@@@std@@@std@@QAE@ABV_Locinfo@1@I@Z 005d9630 f i libcpmtd:xlocale.obj
 0001:001d86a0       ??0?$time_put@DV?$ostreambuf_iterator@DU?$char_traits@D@std@@@std@@@std@@QAE@ABV_Locinfo@1@I@Z 005d96a0 f i libcpmtd:xlocale.obj
 0001:001d8720       ??1?$_Mpunct@D@std@@MAE@XZ 005d9720 f i libcpmtd:xlocale.obj
 0001:001d8750       ??1?$collate@D@std@@MAE@XZ 005d9750 f i libcpmtd:xlocale.obj
 0001:001d8780       ??1?$messages@D@std@@MAE@XZ 005d9780 f i libcpmtd:xlocale.obj
 0001:001d87a0       ??1?$money_get@DV?$istreambuf_iterator@DU?$char_traits@D@std@@@std@@@std@@MAE@XZ 005d97a0 f i libcpmtd:xlocale.obj
 0001:001d87c0       ??1?$money_put@DV?$ostreambuf_iterator@DU?$char_traits@D@std@@@std@@@std@@MAE@XZ 005d97c0 f i libcpmtd:xlocale.obj
 0001:001d87e0       ??1?$moneypunct@D$00@std@@MAE@XZ 005d97e0 f i libcpmtd:xlocale.obj
 0001:001d8800       ??1?$moneypunct@D$0A@@std@@MAE@XZ 005d9800 f i libcpmtd:xlocale.obj
 0001:001d8820       ??1?$time_get@DV?$istreambuf_iterator@DU?$char_traits@D@std@@@std@@@std@@MAE@XZ 005d9820 f i libcpmtd:xlocale.obj
 0001:001d8850       ??1?$time_put@DV?$ostreambuf_iterator@DU?$char_traits@D@std@@@std@@@std@@MAE@XZ 005d9850 f i libcpmtd:xlocale.obj
 0001:001d8880       ??4?$_Iterator012@Urandom_access_iterator_tag@std@@DHPBDABDU_Iterator_base12@2@@std@@QAEAAU01@ABU01@@Z 005d9880 f i libcpmtd:xlocale.obj
 0001:001d88a0       ??4?$_String_const_iterator@V?$_String_val@U?$_Simple_types@D@std@@@std@@@std@@QAEAAV01@ABV01@@Z 005d98a0 f i libcpmtd:xlocale.obj
 0001:001d88d0       ??9?$_String_const_iterator@V?$_String_val@U?$_Simple_types@D@std@@@std@@@std@@QBE_NABV01@@Z 005d98d0 f i libcpmtd:xlocale.obj
 0001:001d8910       ??E?$_String_const_iterator@V?$_String_val@U?$_Simple_types@D@std@@@std@@@std@@QAEAAV01@XZ 005d9910 f i libcpmtd:xlocale.obj
 0001:001d89d0       ??E?$ostreambuf_iterator@DU?$char_traits@D@std@@@std@@QAEAAV01@H@Z 005d99d0 f i libcpmtd:xlocale.obj
 0001:001d89e0       ??G?$_String_iterator@V?$_String_val@U?$_Simple_types@D@std@@@std@@@std@@QBE?AV01@H@Z 005d99e0 f i libcpmtd:xlocale.obj
 0001:001d8a70       ??H?$_String_iterator@V?$_String_val@U?$_Simple_types@D@std@@@std@@@std@@QBE?AV01@H@Z 005d9a70 f i libcpmtd:xlocale.obj
 0001:001d8b00       ??Y?$_String_const_iterator@V?$_String_val@U?$_Simple_types@D@std@@@std@@@std@@QAEAAV01@H@Z 005d9b00 f i libcpmtd:xlocale.obj
 0001:001d8bf0       ??Y?$_String_iterator@V?$_String_val@U?$_Simple_types@D@std@@@std@@@std@@QAEAAV01@H@Z 005d9bf0 f i libcpmtd:xlocale.obj
 0001:001d8c10       ??Z?$_String_iterator@V?$_String_val@U?$_Simple_types@D@std@@@std@@@std@@QAEAAV01@H@Z 005d9c10 f i libcpmtd:xlocale.obj
 0001:001d8c30       ??_G?$_Mpunct@D@std@@MAEPAXI@Z 005d9c30 f i libcpmtd:xlocale.obj
 0001:001d8c30       ??_E?$_Mpunct@D@std@@MAEPAXI@Z 005d9c30 f i libcpmtd:xlocale.obj
 0001:001d8c60       ??_E?$collate@D@std@@MAEPAXI@Z 005d9c60 f i libcpmtd:xlocale.obj
 0001:001d8c60       ??_G?$collate@D@std@@MAEPAXI@Z 005d9c60 f i libcpmtd:xlocale.obj
 0001:001d8c90       ??_E?$messages@D@std@@MAEPAXI@Z 005d9c90 f i libcpmtd:xlocale.obj
 0001:001d8c90       ??_G?$messages@D@std@@MAEPAXI@Z 005d9c90 f i libcpmtd:xlocale.obj
 0001:001d8cc0       ??_E?$money_get@DV?$istreambuf_iterator@DU?$char_traits@D@std@@@std@@@std@@MAEPAXI@Z 005d9cc0 f i libcpmtd:xlocale.obj
 0001:001d8cc0       ??_G?$money_get@DV?$istreambuf_iterator@DU?$char_traits@D@std@@@std@@@std@@MAEPAXI@Z 005d9cc0 f i libcpmtd:xlocale.obj
 0001:001d8cf0       ??_E?$money_put@DV?$ostreambuf_iterator@DU?$char_traits@D@std@@@std@@@std@@MAEPAXI@Z 005d9cf0 f i libcpmtd:xlocale.obj
 0001:001d8cf0       ??_G?$money_put@DV?$ostreambuf_iterator@DU?$char_traits@D@std@@@std@@@std@@MAEPAXI@Z 005d9cf0 f i libcpmtd:xlocale.obj
 0001:001d8d20       ??_G?$moneypunct@D$00@std@@MAEPAXI@Z 005d9d20 f i libcpmtd:xlocale.obj
 0001:001d8d20       ??_E?$moneypunct@D$00@std@@MAEPAXI@Z 005d9d20 f i libcpmtd:xlocale.obj
 0001:001d8d50       ??_G?$moneypunct@D$0A@@std@@MAEPAXI@Z 005d9d50 f i libcpmtd:xlocale.obj
 0001:001d8d50       ??_E?$moneypunct@D$0A@@std@@MAEPAXI@Z 005d9d50 f i libcpmtd:xlocale.obj
 0001:001d8d80       ??_E?$time_get@DV?$istreambuf_iterator@DU?$char_traits@D@std@@@std@@@std@@MAEPAXI@Z 005d9d80 f i libcpmtd:xlocale.obj
 0001:001d8d80       ??_G?$time_get@DV?$istreambuf_iterator@DU?$char_traits@D@std@@@std@@@std@@MAEPAXI@Z 005d9d80 f i libcpmtd:xlocale.obj
 0001:001d8db0       ??_G?$time_put@DV?$ostreambuf_iterator@DU?$char_traits@D@std@@@std@@@std@@MAEPAXI@Z 005d9db0 f i libcpmtd:xlocale.obj
 0001:001d8db0       ??_E?$time_put@DV?$ostreambuf_iterator@DU?$char_traits@D@std@@@std@@@std@@MAEPAXI@Z 005d9db0 f i libcpmtd:xlocale.obj
 0001:001d8de0       ?_Getcat@?$collate@D@std@@SAIPAPBVfacet@locale@2@PBV42@@Z 005d9de0 f i libcpmtd:xlocale.obj
 0001:001d8f30       ?_Getcat@?$messages@D@std@@SAIPAPBVfacet@locale@2@PBV42@@Z 005d9f30 f i libcpmtd:xlocale.obj
 0001:001d9030       ?_Getcat@?$money_get@DV?$istreambuf_iterator@DU?$char_traits@D@std@@@std@@@std@@SAIPAPBVfacet@locale@2@PBV42@@Z 005da030 f i libcpmtd:xlocale.obj
 0001:001d9130       ?_Getcat@?$money_put@DV?$ostreambuf_iterator@DU?$char_traits@D@std@@@std@@@std@@SAIPAPBVfacet@locale@2@PBV42@@Z 005da130 f i libcpmtd:xlocale.obj
 0001:001d9230       ?_Getcat@?$moneypunct@D$00@std@@SAIPAPBVfacet@locale@2@PBV42@@Z 005da230 f i libcpmtd:xlocale.obj
 0001:001d9330       ?_Getcat@?$moneypunct@D$0A@@std@@SAIPAPBVfacet@locale@2@PBV42@@Z 005da330 f i libcpmtd:xlocale.obj
 0001:001d9430       ?_Getcat@?$time_get@DV?$istreambuf_iterator@DU?$char_traits@D@std@@@std@@@std@@SAIPAPBVfacet@locale@2@PBV42@@Z 005da430 f i libcpmtd:xlocale.obj
 0001:001d9530       ?_Getcat@?$time_put@DV?$ostreambuf_iterator@DU?$char_traits@D@std@@@std@@@std@@SAIPAPBVfacet@locale@2@PBV42@@Z 005da530 f i libcpmtd:xlocale.obj
 0001:001d9630       ?_Getfmt@?$time_get@DV?$istreambuf_iterator@DU?$char_traits@D@std@@@std@@@std@@IBE?AV?$istreambuf_iterator@DU?$char_traits@D@std@@@2@V32@0AAVios_base@2@AAHPAUtm@@PBD@Z 005da630 f i libcpmtd:xlocale.obj
 0001:001d97e0       ?_Getint@?$time_get@DV?$istreambuf_iterator@DU?$char_traits@D@std@@@std@@@std@@ABAHAAV?$istreambuf_iterator@DU?$char_traits@D@std@@@2@0HHAAHABV?$ctype@D@2@@Z 005da7e0 f i libcpmtd:xlocale.obj
 0001:001d99e0       ?_Getmfld@?$money_get@DV?$istreambuf_iterator@DU?$char_traits@D@std@@@std@@@std@@ABE?AV?$basic_string@DU?$char_traits@D@std@@V?$allocator@D@2@@2@AAV?$istreambuf_iterator@DU?$char_traits@D@std@@@2@0_NAAVios_base@2@PAD@Z 005da9e0 f i libcpmtd:xlocale.obj
 0001:001da9d0       ?_Gettnames@_Locinfo@std@@QBE?AV_Timevec@2@XZ 005db9d0 f i libcpmtd:xlocale.obj
 0001:001daa00       ?_Init@?$_Mpunct@D@std@@IAEXABV_Locinfo@2@_N@Z 005dba00 f i libcpmtd:xlocale.obj
 0001:001dabd0       ?_Init@?$collate@D@std@@IAEXABV_Locinfo@2@@Z 005dbbd0 f i libcpmtd:xlocale.obj
 0001:001dac00       ?_Init@?$messages@D@std@@IAEXABV_Locinfo@2@@Z 005dbc00 f i libcpmtd:xlocale.obj
 0001:001dac10       ?_Init@?$money_get@DV?$istreambuf_iterator@DU?$char_traits@D@std@@@std@@@std@@IAEXABV_Locinfo@2@@Z 005dbc10 f i libcpmtd:xlocale.obj
 0001:001dac20       ?_Init@?$money_put@DV?$ostreambuf_iterator@DU?$char_traits@D@std@@@std@@@std@@IAEXABV_Locinfo@2@@Z 005dbc20 f i libcpmtd:xlocale.obj
 0001:001dac30       ?_Init@?$time_get@DV?$istreambuf_iterator@DU?$char_traits@D@std@@@std@@@std@@IAEXABV_Locinfo@2@@Z 005dbc30 f i libcpmtd:xlocale.obj
 0001:001dacf0       ?_Init@?$time_put@DV?$ostreambuf_iterator@DU?$char_traits@D@std@@@std@@@std@@IAEXABV_Locinfo@2@@Z 005dbcf0 f i libcpmtd:xlocale.obj
 0001:001dad70       ?_Makexloc@_Locimp@locale@std@@CAXABV_Locinfo@3@HPAV123@PBV23@@Z 005dbd70 f   libcpmtd:xlocale.obj
 0001:001db360       ?_Makpat@?$_Mpunct@D@std@@AAEXAAUpattern@money_base@2@III@Z 005dc360 f i libcpmtd:xlocale.obj
 0001:001db3d0       ?_Put@?$money_put@DV?$ostreambuf_iterator@DU?$char_traits@D@std@@@std@@@std@@CA?AV?$ostreambuf_iterator@DU?$char_traits@D@std@@@2@V32@V?$_String_const_iterator@V?$_String_val@U?$_Simple_types@D@std@@@std@@@2@I@Z 005dc3d0 f i libcpmtd:xlocale.obj
 0001:001db470       ?_Putmfld@?$money_put@DV?$ostreambuf_iterator@DU?$char_traits@D@std@@@std@@@std@@ABE?AV?$ostreambuf_iterator@DU?$char_traits@D@std@@@2@V32@_NAAVios_base@2@D1V?$basic_string@DU?$char_traits@D@std@@V?$allocator@D@2@@2@D@Z 005dc470 f i libcpmtd:xlocale.obj
 0001:001dc140       ?_Rep@?$money_put@DV?$ostreambuf_iterator@DU?$char_traits@D@std@@@std@@@std@@CA?AV?$ostreambuf_iterator@DU?$char_traits@D@std@@@2@V32@DI@Z 005dd140 f i libcpmtd:xlocale.obj
 0001:001dc190       ?_Tidy@?$_Mpunct@D@std@@AAEXXZ 005dd190 f i libcpmtd:xlocale.obj
 0001:001dc1e0       ?_Tidy@?$time_get@DV?$istreambuf_iterator@DU?$char_traits@D@std@@@std@@@std@@AAEXXZ 005dd1e0 f i libcpmtd:xlocale.obj
 0001:001dc220       ?curr_symbol@?$_Mpunct@D@std@@QBE?AV?$basic_string@DU?$char_traits@D@std@@V?$allocator@D@2@@2@XZ 005dd220 f i libcpmtd:xlocale.obj
 0001:001dc260       ?date_order@?$time_get@DV?$istreambuf_iterator@DU?$char_traits@D@std@@@std@@@std@@QBE?AW4dateorder@time_base@2@XZ 005dd260 f i libcpmtd:xlocale.obj
 0001:001dc280       ?decimal_point@?$_Mpunct@D@std@@QBEDXZ 005dd280 f i libcpmtd:xlocale.obj
 0001:001dc2a0       ?do_close@?$messages@D@std@@MBEXH@Z 005dd2a0 f i libcpmtd:xlocale.obj
 0001:001dc2b0       ?do_compare@?$collate@D@std@@MBEHPBD000@Z 005dd2b0 f i libcpmtd:xlocale.obj
 0001:001dc340       ?do_curr_symbol@?$_Mpunct@D@std@@MBE?AV?$basic_string@DU?$char_traits@D@std@@V?$allocator@D@2@@2@XZ 005dd340 f i libcpmtd:xlocale.obj
 0001:001dc380       ?do_date_order@?$time_get@DV?$istreambuf_iterator@DU?$char_traits@D@std@@@std@@@std@@MBE?AW4dateorder@time_base@2@XZ 005dd380 f i libcpmtd:xlocale.obj
 0001:001dc3a0       ?do_decimal_point@?$_Mpunct@D@std@@MBEDXZ 005dd3a0 f i libcpmtd:xlocale.obj
 0001:001dc3c0       ?do_frac_digits@?$_Mpunct@D@std@@MBEHXZ 005dd3c0 f i libcpmtd:xlocale.obj
 0001:001dc3e0       ?do_get@?$messages@D@std@@MBE?AV?$basic_string@DU?$char_traits@D@std@@V?$allocator@D@2@@2@HHHABV32@@Z 005dd3e0 f i libcpmtd:xlocale.obj
 0001:001dc410       ?do_get@?$money_get@DV?$istreambuf_iterator@DU?$char_traits@D@std@@@std@@@std@@MBE?AV?$istreambuf_iterator@DU?$char_traits@D@std@@@2@V32@0_NAAVios_base@2@AAHAAO@Z 005dd410 f i libcpmtd:xlocale.obj
 0001:001dc530       ?do_get@?$money_get@DV?$istreambuf_iterator@DU?$char_traits@D@std@@@std@@@std@@MBE?AV?$istreambuf_iterator@DU?$char_traits@D@std@@@2@V32@0_NAAVios_base@2@AAHAAV?$basic_string@DU?$char_traits@D@std@@V?$allocator@D@2@@2@@Z 005dd530 f i libcpmtd:xlocale.obj
 0001:001dc690       ?do_get@?$time_get@DV?$istreambuf_iterator@DU?$char_traits@D@std@@@std@@@std@@MBE?AV?$istreambuf_iterator@DU?$char_traits@D@std@@@2@V32@0AAVios_base@2@AAHPAUtm@@DD@Z 005dd690 f i libcpmtd:xlocale.obj
 0001:001dcd50       ?do_get_date@?$time_get@DV?$istreambuf_iterator@DU?$char_traits@D@std@@@std@@@std@@MBE?AV?$istreambuf_iterator@DU?$char_traits@D@std@@@2@V32@0AAVios_base@2@AAHPAUtm@@@Z 005ddd50 f i libcpmtd:xlocale.obj
 0001:001dd350       ?do_get_monthname@?$time_get@DV?$istreambuf_iterator@DU?$char_traits@D@std@@@std@@@std@@MBE?AV?$istreambuf_iterator@DU?$char_traits@D@std@@@2@V32@0AAVios_base@2@AAHPAUtm@@@Z 005de350 f i libcpmtd:xlocale.obj
 0001:001dd3f0       ?do_get_time@?$time_get@DV?$istreambuf_iterator@DU?$char_traits@D@std@@@std@@@std@@MBE?AV?$istreambuf_iterator@DU?$char_traits@D@std@@@2@V32@0AAVios_base@2@AAHPAUtm@@@Z 005de3f0 f i libcpmtd:xlocale.obj
 0001:001dd5b0       ?do_get_weekday@?$time_get@DV?$istreambuf_iterator@DU?$char_traits@D@std@@@std@@@std@@MBE?AV?$istreambuf_iterator@DU?$char_traits@D@std@@@2@V32@0AAVios_base@2@AAHPAUtm@@@Z 005de5b0 f i libcpmtd:xlocale.obj
 0001:001dd650       ?do_get_year@?$time_get@DV?$istreambuf_iterator@DU?$char_traits@D@std@@@std@@@std@@MBE?AV?$istreambuf_iterator@DU?$char_traits@D@std@@@2@V32@0AAVios_base@2@AAHPAUtm@@@Z 005de650 f i libcpmtd:xlocale.obj
 0001:001dd780       ?do_grouping@?$_Mpunct@D@std@@MBE?AV?$basic_string@DU?$char_traits@D@std@@V?$allocator@D@2@@2@XZ 005de780 f i libcpmtd:xlocale.obj
 0001:001dd7c0       ?do_hash@?$collate@D@std@@MBEJPBD0@Z 005de7c0 f i libcpmtd:xlocale.obj
 0001:001dd800       ?do_neg_format@?$_Mpunct@D@std@@MBE?AUpattern@money_base@2@XZ 005de800 f i libcpmtd:xlocale.obj
 0001:001dd820       ?do_negative_sign@?$_Mpunct@D@std@@MBE?AV?$basic_string@DU?$char_traits@D@std@@V?$allocator@D@2@@2@XZ 005de820 f i libcpmtd:xlocale.obj
 0001:001dd860       ?do_open@?$messages@D@std@@MBEHABV?$basic_string@DU?$char_traits@D@std@@V?$allocator@D@2@@2@ABVlocale@2@@Z 005de860 f i libcpmtd:xlocale.obj
 0001:001dd870       ?do_pos_format@?$_Mpunct@D@std@@MBE?AUpattern@money_base@2@XZ 005de870 f i libcpmtd:xlocale.obj
 0001:001dd890       ?do_positive_sign@?$_Mpunct@D@std@@MBE?AV?$basic_string@DU?$char_traits@D@std@@V?$allocator@D@2@@2@XZ 005de890 f i libcpmtd:xlocale.obj
 0001:001dd8d0       ?do_put@?$money_put@DV?$ostreambuf_iterator@DU?$char_traits@D@std@@@std@@@std@@MBE?AV?$ostreambuf_iterator@DU?$char_traits@D@std@@@2@V32@_NAAVios_base@2@DABV?$basic_string@DU?$char_traits@D@std@@V?$allocator@D@2@@2@@Z 005de8d0 f i libcpmtd:xlocale.obj
 0001:001ddab0       ?do_put@?$money_put@DV?$ostreambuf_iterator@DU?$char_traits@D@std@@@std@@@std@@MBE?AV?$ostreambuf_iterator@DU?$char_traits@D@std@@@2@V32@_NAAVios_base@2@DO@Z 005deab0 f i libcpmtd:xlocale.obj
 0001:001ddc70       ?do_put@?$time_put@DV?$ostreambuf_iterator@DU?$char_traits@D@std@@@std@@@std@@MBE?AV?$ostreambuf_iterator@DU?$char_traits@D@std@@@2@V32@AAVios_base@2@DPBUtm@@DD@Z 005dec70 f i libcpmtd:xlocale.obj
 0001:001dde20       ?do_thousands_sep@?$_Mpunct@D@std@@MBEDXZ 005dee20 f i libcpmtd:xlocale.obj
 0001:001dde40       ?do_transform@?$collate@D@std@@MBE?AV?$basic_string@DU?$char_traits@D@std@@V?$allocator@D@2@@2@PBD0@Z 005dee40 f i libcpmtd:xlocale.obj
 0001:001ddfc0       ?frac_digits@?$_Mpunct@D@std@@QBEHXZ 005defc0 f i libcpmtd:xlocale.obj
 0001:001ddfe0       ?get_monthname@?$time_get@DV?$istreambuf_iterator@DU?$char_traits@D@std@@@std@@@std@@QBE?AV?$istreambuf_iterator@DU?$char_traits@D@std@@@2@V32@0AAVios_base@2@AAHPAUtm@@@Z 005defe0 f i libcpmtd:xlocale.obj
 0001:001de020       ?get_weekday@?$time_get@DV?$istreambuf_iterator@DU?$char_traits@D@std@@@std@@@std@@QBE?AV?$istreambuf_iterator@DU?$char_traits@D@std@@@2@V32@0AAVios_base@2@AAHPAUtm@@@Z 005df020 f i libcpmtd:xlocale.obj
 0001:001de060       ?get_year@?$time_get@DV?$istreambuf_iterator@DU?$char_traits@D@std@@@std@@@std@@QBE?AV?$istreambuf_iterator@DU?$char_traits@D@std@@@2@V32@0AAVios_base@2@AAHPAUtm@@@Z 005df060 f i libcpmtd:xlocale.obj
 0001:001de0a0       ?grouping@?$_Mpunct@D@std@@QBE?AV?$basic_string@DU?$char_traits@D@std@@V?$allocator@D@2@@2@XZ 005df0a0 f i libcpmtd:xlocale.obj
 0001:001de0e0       ?narrow@?$ctype@D@std@@QBEDDD@Z 005df0e0 f i libcpmtd:xlocale.obj
 0001:001de110       ?neg_format@?$_Mpunct@D@std@@QBE?AUpattern@money_base@2@XZ 005df110 f i libcpmtd:xlocale.obj
 0001:001de140       ?negative_sign@?$_Mpunct@D@std@@QBE?AV?$basic_string@DU?$char_traits@D@std@@V?$allocator@D@2@@2@XZ 005df140 f i libcpmtd:xlocale.obj
 0001:001de180       ?pos_format@?$_Mpunct@D@std@@QBE?AUpattern@money_base@2@XZ 005df180 f i libcpmtd:xlocale.obj
 0001:001de1b0       ?positive_sign@?$_Mpunct@D@std@@QBE?AV?$basic_string@DU?$char_traits@D@std@@V?$allocator@D@2@@2@XZ 005df1b0 f i libcpmtd:xlocale.obj
 0001:001de1f0       ?resize@?$basic_string@DU?$char_traits@D@std@@V?$allocator@D@2@@std@@QAEXI@Z 005df1f0 f i libcpmtd:xlocale.obj
 0001:001de210       ?resize@?$basic_string@DU?$char_traits@D@std@@V?$allocator@D@2@@std@@QAEXID@Z 005df210 f i libcpmtd:xlocale.obj
 0001:001de250       ?thousands_sep@?$_Mpunct@D@std@@QBEDXZ 005df250 f i libcpmtd:xlocale.obj
 0001:001de270       __Stof                     005df270 f   libcpmtd:xstof.obj
 0001:001de290       __Stofx                    005df290 f   libcpmtd:xstof.obj
 0001:001de5c0       __Stod                     005df5c0 f   libcpmtd:xstod.obj
 0001:001de5e0       __Stodx                    005df5e0 f   libcpmtd:xstod.obj
 0001:001de930       __Stold                    005df930 f   libcpmtd:xstold.obj
 0001:001de950       __Stoldx                   005df950 f   libcpmtd:xstold.obj
 0001:001deca0       __Stolx                    005dfca0 f   libcpmtd:xstol.obj
 0001:001dedd0       __Stoul                    005dfdd0 f   libcpmtd:xstoul.obj
 0001:001dedf0       __Stoulx                   005dfdf0 f   libcpmtd:xstoul.obj
 0001:001df070       __Stoll                    005e0070 f   libcpmtd:xstoll.obj
 0001:001df090       __Stollx                   005e0090 f   libcpmtd:xstoll.obj
 0001:001df200       __Stoull                   005e0200 f   libcpmtd:xstoull.obj
 0001:001df220       __Stoullx                  005e0220 f   libcpmtd:xstoull.obj
 0001:001df520       __Call_once                005e0520 f   libcpmtd:once.obj
 0001:001df5f0       __Getcoll                  005e05f0 f   libcpmtd:xstrcoll.obj
 0001:001df630       __Strcoll                  005e0630 f   libcpmtd:xstrcoll.obj
 0001:001df750       __Getdateorder             005e0750 f   libcpmtd:xdateord.obj
 0001:001df7f0       __Mbrtowc                  005e07f0 f   libcpmtd:xmbtowc.obj
 0001:001dfa70       __Wcscoll                  005e0a70 f   libcpmtd:xwcscoll.obj
 0001:001dfbf0       __Wcsxfrm                  005e0bf0 f   libcpmtd:xwcsxfrm.obj
 0001:001dfd40       __Getwctype                005e0d40 f   libcpmtd:xgetwctype.obj
 0001:001dfd80       __Getwctypes               005e0d80 f   libcpmtd:xgetwctype.obj
 0001:001dfdb0       __Towlower                 005e0db0 f   libcpmtd:xtowlower.obj
 0001:001dfe40       __Towupper                 005e0e40 f   libcpmtd:xtowupper.obj
 0001:001dfed0       __Strxfrm                  005e0ed0 f   libcpmtd:xstrxfrm.obj
 0001:001dffc0       __Stopfx                   005e0fc0 f   libcpmtd:xstopfx.obj
 0001:001e02e0       __Stoflt                   005e12e0 f   libcpmtd:xstoflt.obj
 0001:001e0730       __Stoxflt                  005e1730 f   libcpmtd:xstoxflt.obj
 0001:001e0be0       __FDtest                   005e1be0 f   libcpmtd:xfdtest.obj
 0001:001e0cb0       __FPlsw                    005e1cb0 f   libcpmtd:xfdtest.obj
 0001:001e0cc0       __FPmsw                    005e1cc0 f   libcpmtd:xfdtest.obj
 0001:001e0cd0       __FDscale                  005e1cd0 f   libcpmtd:xfdscale.obj
 0001:001e10c0       __FXp_addh                 005e20c0 f   libcpmtd:xfprec.obj
 0001:001e1590       __FXp_addx                 005e2590 f   libcpmtd:xfprec.obj
 0001:001e15f0       __FXp_getw                 005e25f0 f   libcpmtd:xfprec.obj
 0001:001e1770       __FXp_invx                 005e2770 f   libcpmtd:xfprec.obj
 0001:001e1920       __FXp_ldexpx               005e2920 f   libcpmtd:xfprec.obj
 0001:001e1990       __FXp_movx                 005e2990 f   libcpmtd:xfprec.obj
 0001:001e19b0       __FXp_mulh                 005e29b0 f   libcpmtd:xfprec.obj
 0001:001e1c00       __FXp_mulx                 005e2c00 f   libcpmtd:xfprec.obj
 0001:001e1d40       __FXp_setn                 005e2d40 f   libcpmtd:xfprec.obj
 0001:001e1dc0       __FXp_setw                 005e2dc0 f   libcpmtd:xfprec.obj
 0001:001e1f50       __FXp_sqrtx                005e2f50 f   libcpmtd:xfprec.obj
 0001:001e2130       __FXp_subx                 005e3130 f   libcpmtd:xfprec.obj
 0001:001e2190       __FDtento                  005e3190 f   libcpmtd:xfdtento.obj
 0001:001e22e0       __Dtest                    005e32e0 f   libcpmtd:xdtest.obj
 0001:001e2400       __Plsw                     005e3400 f   libcpmtd:xdtest.obj
 0001:001e2410       __Pmsw                     005e3410 f   libcpmtd:xdtest.obj
 0001:001e2420       __Dscale                   005e3420 f   libcpmtd:xdscale.obj
 0001:001e29b0       __Xp_addh                  005e39b0 f   libcpmtd:xprec.obj
 0001:001e2e80       __Xp_addx                  005e3e80 f   libcpmtd:xprec.obj
 0001:001e2ee0       __Xp_getw                  005e3ee0 f   libcpmtd:xprec.obj
 0001:001e3050       __Xp_invx                  005e4050 f   libcpmtd:xprec.obj
 0001:001e31f0       __Xp_ldexpx                005e41f0 f   libcpmtd:xprec.obj
 0001:001e3260       __Xp_movx                  005e4260 f   libcpmtd:xprec.obj
 0001:001e3280       __Xp_mulh                  005e4280 f   libcpmtd:xprec.obj
 0001:001e34c0       __Xp_mulx                  005e44c0 f   libcpmtd:xprec.obj
 0001:001e3600       __Xp_setn                  005e4600 f   libcpmtd:xprec.obj
 0001:001e3630       __Xp_setw                  005e4630 f   libcpmtd:xprec.obj
 0001:001e37f0       __Xp_sqrtx                 005e47f0 f   libcpmtd:xprec.obj
 0001:001e39c0       __Xp_subx                  005e49c0 f   libcpmtd:xprec.obj
 0001:001e3a20       __Dtento                   005e4a20 f   libcpmtd:xdtento.obj
 0001:001e3b70       __LDtest                   005e4b70 f   libcpmtd:xldtest.obj
 0001:001e3b90       __LPlsw                    005e4b90 f   libcpmtd:xldtest.obj
 0001:001e3ba0       __LPmsw                    005e4ba0 f   libcpmtd:xldtest.obj
 0001:001e3bb0       __LDscale                  005e4bb0 f   libcpmtd:xldscale.obj
 0001:001e3bd0       __LXp_addh                 005e4bd0 f   libcpmtd:xlprec.obj
 0001:001e40a0       __LXp_addx                 005e50a0 f   libcpmtd:xlprec.obj
 0001:001e4100       __LXp_getw                 005e5100 f   libcpmtd:xlprec.obj
 0001:001e4270       __LXp_invx                 005e5270 f   libcpmtd:xlprec.obj
 0001:001e4410       __LXp_ldexpx               005e5410 f   libcpmtd:xlprec.obj
 0001:001e4480       __LXp_movx                 005e5480 f   libcpmtd:xlprec.obj
 0001:001e44a0       __LXp_mulh                 005e54a0 f   libcpmtd:xlprec.obj
 0001:001e46e0       __LXp_mulx                 005e56e0 f   libcpmtd:xlprec.obj
 0001:001e4820       __LXp_setn                 005e5820 f   libcpmtd:xlprec.obj
 0001:001e4850       __LXp_setw                 005e5850 f   libcpmtd:xlprec.obj
 0001:001e4a10       __LXp_sqrtx                005e5a10 f   libcpmtd:xlprec.obj
 0001:001e4be0       __LXp_subx                 005e5be0 f   libcpmtd:xlprec.obj
 0001:001e4c40       _sqrtl                     005e5c40 f i libcpmtd:xlprec.obj
 0001:001e4c60       __LDtento                  005e5c60 f   libcpmtd:xldtento.obj
 0001:001e4db0       __FDnorm                   005e5db0 f   libcpmtd:xfdnorm.obj
 0001:001e4fc0       __Feraise                  005e5fc0 f   libcpmtd:xferaise.obj
 0001:001e4ff0       __FDint                    005e5ff0 f   libcpmtd:xfdint.obj
 0001:001e51d0       __FDunscale                005e61d0 f   libcpmtd:xfdunsca.obj
 0001:001e52c0       __Dnorm                    005e62c0 f   libcpmtd:xdnorm.obj
 0001:001e5600       __Dint                     005e6600 f   libcpmtd:xdint.obj
 0001:001e58b0       __Dunscale                 005e68b0 f   libcpmtd:xdunscal.obj
 0001:001e59c0       __LDint                    005e69c0 f   libcpmtd:xldint.obj
 0001:001e59e0       __LDunscale                005e69e0 f   libcpmtd:xldunsca.obj
 0001:001e5a00       __get_purecall_handler     005e6a00 f   LIBCMTD:purevirt.obj
 0001:001e5a20       __purecall                 005e6a20 f   LIBCMTD:purevirt.obj
 0001:001e5a60       __set_purecall_handler     005e6a60 f   LIBCMTD:purevirt.obj
 0001:001e5a90       ??2@YAPAXI@Z               005e6a90 f   LIBCMTD:new.obj
 0001:001e5ae0       ??3@YAXPAX@Z               005e6ae0 f   LIBCMTD:dbgdel.obj
 0001:001e5bd0       ___onexitinit              005e6bd0 f   LIBCMTD:onexit.obj
 0001:001e5c30       __onexit                   005e6c30 f   LIBCMTD:onexit.obj
 0001:001e5df0       _atexit                    005e6df0 f   LIBCMTD:onexit.obj
 0001:001e5e20       _memcpy                    005e6e20 f   LIBCMTD:memcpy.obj
 0001:001e6470       _memset                    005e7470 f   LIBCMTD:memset.obj
 0001:001e6500       _strcpy                    005e7500 f   LIBCMTD:strcat.obj
 0001:001e6510       _strcat                    005e7510 f   LIBCMTD:strcat.obj
 0001:001e6600       _strlen                    005e7600 f   LIBCMTD:strlen.obj
 0001:001e6690       _memmove                   005e7690 f   LIBCMTD:memmove.obj
 0001:001e6ce0       _free                      005e7ce0 f   LIBCMTD:dbgfree.obj
 0001:001e6d00       __fclose_nolock            005e7d00 f   LIBCMTD:fclose.obj
 0001:001e6e10       _fclose                    005e7e10 f   LIBCMTD:fclose.obj
 0001:001e6f30       __fsopen                   005e7f30 f   LIBCMTD:fopen.obj
 0001:001e7180       _fopen                     005e8180 f   LIBCMTD:fopen.obj
 0001:001e71a0       _fopen_s                   005e81a0 f   LIBCMTD:fopen.obj
 0001:001e7260       __fwrite_nolock            005e8260 f   LIBCMTD:fwrite.obj
 0001:001e7670       _fwrite                    005e8670 f   LIBCMTD:fwrite.obj
 0001:001e7790       __get_printf_count_output  005e8790 f   LIBCMTD:printf.obj
 0001:001e77c0       __printf_l                 005e87c0 f   LIBCMTD:printf.obj
 0001:001e77f0       __printf_p                 005e87f0 f   LIBCMTD:printf.obj
 0001:001e7810       __printf_p_l               005e8810 f   LIBCMTD:printf.obj
 0001:001e7840       __printf_s_l               005e8840 f   LIBCMTD:printf.obj
 0001:001e7870       __set_printf_count_output  005e8870 f   LIBCMTD:printf.obj
 0001:001e78d0       _printf                    005e88d0 f   LIBCMTD:printf.obj
 0001:001e7a50       _printf_s                  005e8a50 f   LIBCMTD:printf.obj
 0001:001e7a70       __mkdir                    005e8a70 f   LIBCMTD:mkdir.obj
 0001:001e7ac0       ??0__non_rtti_object@std@@QAE@ABV01@@Z 005e8ac0 f   LIBCMTD:stdexcpt.obj
 0001:001e7af0       ??0__non_rtti_object@std@@QAE@PBD@Z 005e8af0 f   LIBCMTD:stdexcpt.obj
 0001:001e7b20       ??0bad_cast@std@@QAE@ABV01@@Z 005e8b20 f   LIBCMTD:stdexcpt.obj
 0001:001e7b50       ??0bad_cast@std@@QAE@PBD@Z 005e8b50 f   LIBCMTD:stdexcpt.obj
 0001:001e7b80       ??0bad_typeid@std@@QAE@ABV01@@Z 005e8b80 f   LIBCMTD:stdexcpt.obj
 0001:001e7bb0       ??0bad_typeid@std@@QAE@PBD@Z 005e8bb0 f   LIBCMTD:stdexcpt.obj
 0001:001e7be0       ??0exception@std@@QAE@ABQBD@Z 005e8be0 f   LIBCMTD:stdexcpt.obj
 0001:001e7c20       ??0exception@std@@QAE@ABQBDH@Z 005e8c20 f   LIBCMTD:stdexcpt.obj
 0001:001e7c50       ??0exception@std@@QAE@ABV01@@Z 005e8c50 f   LIBCMTD:stdexcpt.obj
 0001:001e7c90       ??0exception@std@@QAE@XZ   005e8c90 f   LIBCMTD:stdexcpt.obj
 0001:001e7cc0       ??1__non_rtti_object@std@@UAE@XZ 005e8cc0 f   LIBCMTD:stdexcpt.obj
 0001:001e7ce0       ??1bad_cast@std@@UAE@XZ    005e8ce0 f   LIBCMTD:stdexcpt.obj
 0001:001e7d00       ??1bad_typeid@std@@UAE@XZ  005e8d00 f   LIBCMTD:stdexcpt.obj
 0001:001e7d20       ??1exception@std@@UAE@XZ   005e8d20 f   LIBCMTD:stdexcpt.obj
 0001:001e7d40       ??4exception@std@@QAEAAV01@ABV01@@Z 005e8d40 f   LIBCMTD:stdexcpt.obj
 0001:001e7d90       ??_G__non_rtti_object@std@@UAEPAXI@Z 005e8d90 f i LIBCMTD:stdexcpt.obj
 0001:001e7d90       ??_E__non_rtti_object@std@@UAEPAXI@Z 005e8d90 f i LIBCMTD:stdexcpt.obj
 0001:001e7dc0       ??_Gbad_cast@std@@UAEPAXI@Z 005e8dc0 f i LIBCMTD:stdexcpt.obj
 0001:001e7dc0       ??_Ebad_cast@std@@UAEPAXI@Z 005e8dc0 f i LIBCMTD:stdexcpt.obj
 0001:001e7df0       ??_Gbad_typeid@std@@UAEPAXI@Z 005e8df0 f i LIBCMTD:stdexcpt.obj
 0001:001e7df0       ??_Ebad_typeid@std@@UAEPAXI@Z 005e8df0 f i LIBCMTD:stdexcpt.obj
 0001:001e7e20       ??_Gexception@std@@UAEPAXI@Z 005e8e20 f i LIBCMTD:stdexcpt.obj
 0001:001e7e20       ??_Eexception@std@@UAEPAXI@Z 005e8e20 f i LIBCMTD:stdexcpt.obj
 0001:001e7e50       ?_Copy_str@exception@std@@AAEXPBD@Z 005e8e50 f   LIBCMTD:stdexcpt.obj
 0001:001e7eb0       ?_Tidy@exception@std@@AAEXXZ 005e8eb0 f   LIBCMTD:stdexcpt.obj
 0001:001e7ef0       ?what@exception@std@@UBEPBDXZ 005e8ef0 f   LIBCMTD:stdexcpt.obj
 0001:001e7f20       ??0_LocaleUpdate@@QAE@PAUlocaleinfo_struct@@@Z 005e8f20 f i LIBCMTD:dbgheap.obj
 0001:001e8000       ??1_LocaleUpdate@@QAE@XZ   005e9000 f i LIBCMTD:dbgheap.obj
 0001:001e8030       ?GetLocaleT@_LocaleUpdate@@QAEPAUlocaleinfo_struct@@XZ 005e9030 f i LIBCMTD:dbgheap.obj
 0001:001e84d0       __CrtCheckMemory           005e94d0 f   LIBCMTD:dbgheap.obj
 0001:001e8930       __CrtDoForAllClientObjects 005e9930 f   LIBCMTD:dbgheap.obj
 0001:001e8a60       __CrtDumpMemoryLeaks       005e9a60 f   LIBCMTD:dbgheap.obj
 0001:001e8b00       __CrtGetAllocHook          005e9b00 f   LIBCMTD:dbgheap.obj
 0001:001e8b10       __CrtGetCheckCount         005e9b10 f   LIBCMTD:dbgheap.obj
 0001:001e8b20       __CrtGetDumpClient         005e9b20 f   LIBCMTD:dbgheap.obj
 0001:001e8b30       __CrtIsMemoryBlock         005e9b30 f   LIBCMTD:dbgheap.obj
 0001:001e8ca0       __CrtIsValidHeapPointer    005e9ca0 f   LIBCMTD:dbgheap.obj
 0001:001e8ce0       __CrtIsValidPointer        005e9ce0 f   LIBCMTD:dbgheap.obj
 0001:001e8d10       __CrtMemCheckpoint         005e9d10 f   LIBCMTD:dbgheap.obj
 0001:001e8f40       __CrtMemDifference         005e9f40 f   LIBCMTD:dbgheap.obj
 0001:001e91a0       __CrtMemDumpAllObjectsSince 005ea1a0 f   LIBCMTD:dbgheap.obj
